 tazXBoxR

 Timestamp is 3dedcfc6 (Wed Dec 04 09:49:58 2002)

 Preferred load address is 00400000

 Start         Length     Name                   Class
 0001:00000000 00157806H .text                   CODE
 0001:00157810 00005eb2H .text$x                 CODE
 0001:0015d6d0 00000710H .text$yc                CODE
 0001:0015dde0 00000250H .text$yd                CODE
 0002:00000000 0000c6f0H D3D                     CODE
 0002:0000c6f0 000011b8H D3D_RD                  CODE
 0002:0000d8b0 00003288H D3D_URW                 CODE
 0003:00000000 000097beH DSOUND                  CODE
 0003:000097c0 00012a70H DSOUND_RD               CODE
 0003:0001c230 000006c8H DSOUND_RW               CODE
 0003:0001c8f8 000001b4H DSOUND_URW              CODE
 0004:00000000 00011a77H XGRPH                   CODE
 0004:00011a78 0000249bH XGRPH_RD                CODE
 0004:00013f18 00000c70H XGRPH_RW                CODE
 0005:00000000 00000838H WMADECXMO               CODE
 0005:00000838 00000000H WMADECXMO_RD            CODE
 0006:00000000 0000ac78H WMADEC                  CODE
 0006:0000ac78 0000e0c8H WMADEC_RD               CODE
 0006:00018d40 00000040H WMADEC_RW               CODE
 0007:00000000 0001d540H WMVDEC                  CODE
 0007:0001d540 0000eb54H WMVDECRD                CODE
 0007:0002c098 0000681cH WMVDECRW                CODE
 0008:00000000 00000004H .XID$A                  CODE
 0008:00000004 00000004H .XID$Gamepad            CODE
 0008:00000008 00000004H .XID$IrRemote           CODE
 0008:0000000c 00000004H .XID$Keyboard           CODE
 0008:00000010 00000004H .XID$ZZZ                CODE
 0008:00000014 00000004H .XPP$ClassA             CODE
 0008:00000018 00000004H .XPP$ClassHub           CODE
 0008:0000001c 00000004H .XPP$ClassMU            CODE
 0008:00000020 00000008H .XPP$ClassXID           CODE
 0008:00000028 00000004H .XPP$ClassZ             CODE
 0008:00000030 000001d0H .XPP$Data               CODE
 0008:00000200 00000c49H .XPPCINIT               CODE
 0008:00000e49 0000679eH .XPPCODE                CODE
 0008:000075e8 00000040H .XPPRDATA               CODE
 0009:00000000 000001d4H .idata$5                DATA
 0009:000001d8 0001e4b0H .rdata                  DATA
 0009:0001e688 00002d04H .xdata$x                DATA
 0009:0002138c 00000000H .edata                  DATA
 000a:00000000 00000004H .CRT$RIA                DATA
 000a:00000004 00000004H .CRT$RII10              DATA
 000a:00000008 00000004H .CRT$RII20              DATA
 000a:0000000c 00000004H .CRT$RIZ                DATA
 000a:00000010 00000004H .CRT$XCA                DATA
 000a:00000014 00000120H .CRT$XCU                DATA
 000a:00000134 00000004H .CRT$XCZ                DATA
 000a:00000138 00000004H .CRT$XIA                DATA
 000a:0000013c 0000000cH .CRT$XIC                DATA
 000a:00000148 00000004H .CRT$XIY                DATA
 000a:0000014c 00000004H .CRT$XIZ                DATA
 000a:00000150 00000004H .CRT$XPA                DATA
 000a:00000154 00000004H .CRT$XPX                DATA
 000a:00000158 00000004H .CRT$XPZ                DATA
 000a:0000015c 00000004H .CRT$XTA                DATA
 000a:00000160 00000004H .CRT$XTB                DATA
 000a:00000164 00000004H .CRT$XTZ                DATA
 000a:00000170 0001af56H .data                   DATA
 000a:0001b0e0 00111698H .bss                    DATA
 000b:00000000 00007180H DOLBY                   DATA
 000c:00000000 00000014H .idata$2                CODE
 000c:00000014 00000014H .idata$3                CODE
 000c:00000028 000001d4H .idata$4                CODE
 000c:000001fc 0000000eH .idata$6                CODE
 000d:00000000 00000010H .XBLD$A                 DATA
 000d:00000010 00000060H .XBLD$V                 DATA
 000e:00000000 00000001H .tls                    DATA
 000e:00000004 00000008H .tls$                   DATA
 000e:0000000c 00000001H .tls$ZZZ                DATA

  Address         Publics by Value              Rva+Base     Lib:Object

 0000:00000000       __except_list              00000000     <absolute>
 0000:00000004       __tls_array                00000004     <absolute>
 0001:00000000       ??2@YAPAXI@Z               00400440 f i alligator.obj
 0001:00000020       ?bmQuatCopy@@YAXQAMQBM@Z   00400460 f i anvilgang.obj
 0001:00000020       ?bmVectorCopy@@YAXQAMQBM@Z 00400460 f i alligator.obj
 0001:00000040       ?CheckIfPlayingAnimation@@YAHPAU_TBActorInstance@@PAD@Z 00400480 f i alligator.obj
 0001:00000040       ?CheckIfPlayingAnimation@@YAHPAUTAG_ACTORINSTANCE@@PAD@Z 00400480 f i alligator.obj
 0001:00000070       ??_H@YGXPAXIHP6EPAX0@Z@Z   004004b0 f i alligator.obj
 0001:000000a0       ?AlligatorDefendSeq@@YAHPAUTAG_ACTORINSTANCE@@@Z 004004e0 f   alligator.obj
 0001:000000a0       ?AlligatorAwareSeq@@YAHPAUTAG_ACTORINSTANCE@@@Z 004004e0 f   alligator.obj
 0001:000000a0       ?AlligatorIdleSeq@@YAHPAUTAG_ACTORINSTANCE@@@Z 004004e0 f   alligator.obj
 0001:000000e0       ?AlligatorAttackSeq@@YAHPAUTAG_ACTORINSTANCE@@@Z 00400520 f   alligator.obj
 0001:000001b0       ?AlligatorAttackedSeq@@YAHPAUTAG_ACTORINSTANCE@@@Z 004005f0 f   alligator.obj
 0001:00000210       ?AlligatorOutOfRangeSeq@@YAHPAUTAG_ACTORINSTANCE@@@Z 00400650 f   alligator.obj
 0001:00000250       ?AlligatorJumpUpdate@@YA_NPAUTAG_ACTORINSTANCE@@_N@Z 00400690 f   alligator.obj
 0001:00000350       ?AlligatorMessageHandler@@YAHPAUTAG_ACTORINSTANCE@@PAD@Z 00400790 f   alligator.obj
 0001:000008f0       ?AlligatorUpdate@@YAXPAUTAG_ACTORINSTANCE@@@Z 00400d30 f   alligator.obj
 0001:000009b0       ?AlligatorAttackCallback@@YAHPAUTAG_ACTORINSTANCE@@@Z 00400df0 f   alligator.obj
 0001:00000a70       ?CreateActorInstanceAlligator@@YAHPAUTAG_ACTORINSTANCE@@PAUTAG_ACTORINSTANCELIST@@1I@Z 00400eb0 f   alligator.obj
 0001:00000c40       ?bmRand@@YAHXZ             00401080 f i anvilgang.obj
 0001:00000c60       ?bmVectorAdd@@YAXQAMQBM1@Z 004010a0 f i anvilgang.obj
 0001:00000c90       ?bmVectorSub@@YAXQAMQBM1@Z 004010d0 f i anvilgang.obj
 0001:00000cc0       ?bmVectorCMul@@YAXQAMQBMM@Z 00401100 f i anvilgang.obj
 0001:00000cf0       ?bmVectorCDiv@@YAXQAMQBMM@Z 00401130 f i anvilgang.obj
 0001:00000d20       ?bmVectorLen@@YAMQBM@Z     00401160 f i anvilgang.obj
 0001:00000d50       ?AnvilGangIdleSeq@@YAHPAUTAG_ACTORINSTANCE@@@Z 00401190 f   anvilgang.obj
 0001:00000d90       ?AnvilGangAwareSeq@@YAHPAUTAG_ACTORINSTANCE@@@Z 004011d0 f   anvilgang.obj
 0001:00000f50       ?AnvilGangAttackSeq@@YAHPAUTAG_ACTORINSTANCE@@@Z 00401390 f   anvilgang.obj
 0001:00001030       ?AnvilGangPursuitAttackSeq@@YAHPAUTAG_ACTORINSTANCE@@@Z 00401470 f   anvilgang.obj
 0001:00001070       ?AnvilGangTooCloseSeq@@YAHPAUTAG_ACTORINSTANCE@@@Z 004014b0 f   anvilgang.obj
 0001:000010b0       ?AnvilGangAttackedSeq@@YAHPAUTAG_ACTORINSTANCE@@@Z 004014f0 f   anvilgang.obj
 0001:00001210       ?AnvilGangOutOfRangeSeq@@YAHPAUTAG_ACTORINSTANCE@@@Z 00401650 f   anvilgang.obj
 0001:00001250       ?AnvilGangAttackCallback@@YAHPAUTAG_ACTORINSTANCE@@@Z 00401690 f   anvilgang.obj
 0001:000013e0       ?CreateAnvil@@YAXPAUTAG_ACTORINSTANCE@@QAM1M@Z 00401820 f   anvilgang.obj
 0001:00001610       ?AnvilGangFire@@YAXPAUTAG_ACTORINSTANCE@@@Z 00401a50 f   anvilgang.obj
 0001:00001790       ?AnvilGangMessageHandler@@YAHPAUTAG_ACTORINSTANCE@@PAD@Z 00401bd0 f   anvilgang.obj
 0001:00001850       ?CreateActorInstanceAnvilGang@@YAHPAUTAG_ACTORINSTANCE@@PAUTAG_ACTORINSTANCELIST@@1@Z 00401c90 f   anvilgang.obj
 0001:00001a50       ?ApeIdleSeq@@YAHPAUTAG_ACTORINSTANCE@@@Z 00401e90 f   apes.obj
 0001:00001a90       ?ApeAwareSeq@@YAHPAUTAG_ACTORINSTANCE@@@Z 00401ed0 f   apes.obj
 0001:00001ad0       ?ApePuzzledSeq@@YAHPAUTAG_ACTORINSTANCE@@@Z 00401f10 f   apes.obj
 0001:00001b10       ?ApeAttackSeq@@YAHPAUTAG_ACTORINSTANCE@@@Z 00401f50 f   apes.obj
 0001:00001ba0       ?ApeTooCloseSeq@@YAHPAUTAG_ACTORINSTANCE@@@Z 00401fe0 f   apes.obj
 0001:00001be0       ?ApeAttackedSeq@@YAHPAUTAG_ACTORINSTANCE@@@Z 00402020 f   apes.obj
 0001:00001d50       ?ApeOutOfRangeSeq@@YAHPAUTAG_ACTORINSTANCE@@@Z 00402190 f   apes.obj
 0001:00001d90       ?BananaCollisionCallback@@YAHPAUTAG_ACTORINSTANCE@@0PAUTAG_PRECOLLINFO@@@Z 004021d0 f   apes.obj
 0001:00001f00       ?ApeAttackCallback@@YAHPAUTAG_ACTORINSTANCE@@@Z 00402340 f   apes.obj
 0001:00001f90       ?removeNode@?$LINKEDLIST@UTAG_EATITEM@@@@AAEXQAV1@@Z 004023d0 f i eating.obj
 0001:00001f90       ?removeNode@?$LINKEDLIST@VTAG_MIRROR@@@@AAEXQAV1@@Z 004023d0 f i effects.obj
 0001:00001f90       ?removeNode@?$LINKEDLIST@UTAG_LASERBEAM@@@@AAEXQAV1@@Z 004023d0 f i laser.obj
 0001:00001f90       ?removeNode@?$LINKEDLIST@VTAG_SPINPAD@@@@AAEXQAV1@@Z 004023d0 f i securitybox.obj
 0001:00001f90       ?removeNode@?$LINKEDLIST@VTAG_CACTUS@@@@AAEXQAV1@@Z 004023d0 f i nastycan.obj
 0001:00001f90       ?removeNode@?$LINKEDLIST@VTAG_SECURITYBOX@@@@AAEXQAV1@@Z 004023d0 f i securitybox.obj
 0001:00001f90       ?removeNode@?$LINKEDLIST@VTAG_BANANASKIN@@@@AAEXQAV1@@Z 004023d0 f i apes.obj
 0001:00001f90       ?removeNode@?$LINKEDLIST@UTAG_PAGE@@@@AAEXQAV1@@Z 004023d0 f i TextFX.obj
 0001:00001f90       ?removeNode@?$LINKEDLIST@UTAG_BOOK@@@@AAEXQAV1@@Z 004023d0 f i BookList.obj
 0001:00001f90       ?removeNode@?$LINKEDLIST@UTAG_SUBTITLE@@@@AAEXQAV1@@Z 004023d0 f i subtitle.obj
 0001:00001fe0       ?append@?$LINKEDLIST@VTAG_CACTUS@@@@QAEPAVTAG_CACTUS@@QAV2@@Z 00402420 f i nastycan.obj
 0001:00001fe0       ?append@?$LINKEDLIST@VTAG_BANANASKIN@@@@QAEPAVTAG_BANANASKIN@@QAV2@@Z 00402420 f i apes.obj
 0001:00001fe0       ?append@?$LINKEDLIST@UTAG_EATITEM@@@@QAEPAUTAG_EATITEM@@QAU2@@Z 00402420 f i eating.obj
 0001:00001fe0       ?append@?$LINKEDLIST@VTAG_SECURITYBOX@@@@QAEPAVTAG_SECURITYBOX@@QAV2@@Z 00402420 f i securitybox.obj
 0001:00001fe0       ?append@?$LINKEDLIST@UTAG_DECAL@@@@QAEPAUTAG_DECAL@@QAU2@@Z 00402420 f i decals.obj
 0001:00001fe0       ?append@?$LINKEDLIST@VTAG_STINKYCHEESE@@@@QAEPAVTAG_STINKYCHEESE@@QAV2@@Z 00402420 f i cheesegun.obj
 0001:00001fe0       ?append@?$LINKEDLIST@UTAG_CUTSCENEENTRY@@@@QAEPAUTAG_CUTSCENEENTRY@@QAU2@@Z 00402420 f i cutscene.obj
 0001:00001fe0       ?append@?$LINKEDLIST@VTAG_MIRROR@@@@QAEPAVTAG_MIRROR@@QAV2@@Z 00402420 f i effects.obj
 0001:00001fe0       ?append@?$LINKEDLIST@VTAG_SPINPAD@@@@QAEPAVTAG_SPINPAD@@QAV2@@Z 00402420 f i securitybox.obj
 0001:00002040       ??0TAG_BANANASKIN@@QAE@QAM0PAUTAG_ACTORINSTANCE@@MPAD@Z 00402480 f   apes.obj
 0001:00002100       ??1TAG_BANANASKIN@@QAE@XZ  00402540 f   apes.obj
 0001:000021e0       ?UpdateAllBananaSkins@@YAXXZ 00402620 f   apes.obj
 0001:000022a0       ?PirateApeThrowBanana@@YAXPAUTAG_ACTORINSTANCE@@@Z 004026e0 f   apes.obj
 0001:000023d0       ?ApeMessageHandler@@YAHPAUTAG_ACTORINSTANCE@@PAD@Z 00402810 f   apes.obj
 0001:000028b0       ?CreateActorInstanceApe@@YAHPAUTAG_ACTORINSTANCE@@PAUTAG_ACTORINSTANCELIST@@1@Z 00402cf0 f   apes.obj
 0001:00002af0       ?BearIdleSeq@@YAHPAUTAG_ACTORINSTANCE@@@Z 00402f30 f   bears.obj
 0001:00002b70       ?BearAwareSeq@@YAHPAUTAG_ACTORINSTANCE@@@Z 00402fb0 f   bears.obj
 0001:00002bf0       ?BearAttackSeq@@YAHPAUTAG_ACTORINSTANCE@@@Z 00403030 f   bears.obj
 0001:00002c70       ?BearDefendSeq@@YAHPAUTAG_ACTORINSTANCE@@@Z 004030b0 f   bears.obj
 0001:00002cd0       ?BearAttackedSeq@@YAHPAUTAG_ACTORINSTANCE@@@Z 00403110 f   bears.obj
 0001:00002f10       ?BearOutOfRangeSeq@@YAHPAUTAG_ACTORINSTANCE@@@Z 00403350 f   bears.obj
 0001:00002f90       ?BearPuzzledSeq@@YAHPAUTAG_ACTORINSTANCE@@@Z 004033d0 f   bears.obj
 0001:00002ff0       ?PolarBearHit@@YAXPAUTAG_ACTORINSTANCE@@H@Z 00403430 f   bears.obj
 0001:00003180       ?AIPreCharacterCollisionDisabled@@YAHPAUTAG_ACTORINSTANCE@@0PAUTAG_PRECOLLINFO@@@Z 004035c0 f   genericai.obj
 0001:00003180       ?SecurityBotAttackCallback@@YAHPAUTAG_ACTORINSTANCE@@@Z 004035c0 f   securitybot.obj
 0001:00003180       ?BearAttackCallback@@YAHPAUTAG_ACTORINSTANCE@@@Z 004035c0 f   bears.obj
 0001:00003180       ?BJShellacAttackCallback@@YAHPAUTAG_ACTORINSTANCE@@@Z 004035c0 f   bjshellac.obj
 0001:00003180       ?DoggyAttackCallback@@YAHPAUTAG_ACTORINSTANCE@@@Z 004035c0 f   doggy.obj
 0001:00003180       ?ConstructionBotAttackCallback@@YAHPAUTAG_ACTORINSTANCE@@@Z 004035c0 f   constructionbot.obj
 0001:00003180       ?PreRespondToDeathCollision@@YAHPAUTAG_ACTORINSTANCE@@0PAUTAG_PRECOLLINFO@@@Z 004035c0 f   death.obj
 0001:00003180       ?NastyCanAttackCallback@@YAHPAUTAG_ACTORINSTANCE@@@Z 004035c0 f   nastycan.obj
 0001:00003180       ?mpDrawBook@@YAHXZ         004035c0 f   multiplayer.obj
 0001:00003180       ?MuseumGuardAttackCallback@@YAHPAUTAG_ACTORINSTANCE@@@Z 004035c0 f   museumguard.obj
 0001:00003180       ?PreRespondToMTweetyCrateCollision@@YAHPAUTAG_ACTORINSTANCE@@0PAUTAG_PRECOLLINFO@@@Z 004035c0 f   crateattack.obj
 0001:00003180       ?MechaTweetyIdleCallback@@YAHPAUTAG_MECHATWEETYINFO@@@Z 004035c0 f   mechatweety.obj
 0001:00003180       ?getNavigationScope@TAG_PAGEITEM@@UAEPAUTAG_PAGE@@XZ 004035c0 f   doors.obj
 0001:00003180       ?ConstructionWorkerAttackCallback@@YAHPAUTAG_ACTORINSTANCE@@@Z 004035c0 f   constructionworker.obj
 0001:00003180       ?dinerHandler@@YAHH@Z      004035c0 f   diner.obj
 0001:00003180       ?RespondToActorCollision2@@YAHPAUTAG_ACTORINSTANCE@@0PAUTAG_PRECOLLINFO@@@Z 004035c0 f   fallingobjects.obj
 0001:00003180       ?MinerBotAttackCallback@@YAHPAUTAG_ACTORINSTANCE@@@Z 004035c0 f   minerbot.obj
 0001:000031b0       ?SnowballCollision@@YAHPAUTAG_ACTORINSTANCE@@0@Z 004035f0 f   bears.obj
 0001:00003280       ?BearMessageHandler@@YAHPAUTAG_ACTORINSTANCE@@PAD@Z 004036c0 f   bears.obj
 0001:000039d0       ?CreateActorInstanceBear@@YAHPAUTAG_ACTORINSTANCE@@PAUTAG_ACTORINSTANCELIST@@1H@Z 00403e10 f   bears.obj
 0001:00003c10       ?BJShellacIdleSeq@@YAHPAUTAG_ACTORINSTANCE@@@Z 00404050 f   bjshellac.obj
 0001:00003c50       ?BJShellacAwareSeq@@YAHPAUTAG_ACTORINSTANCE@@@Z 00404090 f   bjshellac.obj
 0001:00003d20       ?BJShellacAttackSeq@@YAHPAUTAG_ACTORINSTANCE@@@Z 00404160 f   bjshellac.obj
 0001:00003db0       ?BJShellacPursuitAttackSeq@@YAHPAUTAG_ACTORINSTANCE@@@Z 004041f0 f   bjshellac.obj
 0001:00003df0       ?BJShellacTooCloseSeq@@YAHPAUTAG_ACTORINSTANCE@@@Z 00404230 f   bjshellac.obj
 0001:00003e30       ?BJShellacCostumeSeq@@YAHPAUTAG_ACTORINSTANCE@@@Z 00404270 f   bjshellac.obj
 0001:00003e70       ?BJShellacAttackedSeq@@YAHPAUTAG_ACTORINSTANCE@@@Z 004042b0 f   bjshellac.obj
 0001:00003fd0       ?BJShellacOutOfRangeSeq@@YAHPAUTAG_ACTORINSTANCE@@@Z 00404410 f   bjshellac.obj
 0001:00004250       ?CreateDynamite@@YAXPAUTAG_ACTORINSTANCE@@QAM1M@Z 00404690 f   bjshellac.obj
 0001:00004500       ?BJShellacFire@@YAXPAUTAG_ACTORINSTANCE@@H@Z 00404940 f   bjshellac.obj
 0001:00004840       ?BJShellacMessageHandler@@YAHPAUTAG_ACTORINSTANCE@@PAD@Z 00404c80 f   bjshellac.obj
 0001:00004a60       ?CreateActorInstanceBJShellac@@YAHPAUTAG_ACTORINSTANCE@@PAUTAG_ACTORINSTANCELIST@@1H@Z 00404ea0 f   bjshellac.obj
 0001:00004cb0       ?BuzzardPlayAnimCallback@@YAHPAUTAG_ACTORINSTANCE@@PAUTAG_BUZZARDINFO@@@Z 004050f0 f   buzzard.obj
 0001:00004d00       ?BuzzardTakeOffCallback@@YAHPAUTAG_ACTORINSTANCE@@PAUTAG_BUZZARDINFO@@@Z 00405140 f   buzzard.obj
 0001:00004de0       ?BuzzardFlyHomeCallback@@YAHPAUTAG_ACTORINSTANCE@@PAUTAG_BUZZARDINFO@@@Z 00405220 f   buzzard.obj
 0001:00005280       ?BuzzardTurnCallback@@YAHPAUTAG_ACTORINSTANCE@@PAUTAG_BUZZARDINFO@@@Z 004056c0 f   buzzard.obj
 0001:000052f0       ?BuzzardLandCallback@@YAHPAUTAG_ACTORINSTANCE@@PAUTAG_BUZZARDINFO@@@Z 00405730 f   buzzard.obj
 0001:00005650       ?BuzzardEggAttackCallback@@YAHPAUTAG_ACTORINSTANCE@@PAUTAG_BUZZARDINFO@@@Z 00405a90 f   buzzard.obj
 0001:000057d0       ?BuzzardAIStateChangeCallback@@YAHPAUTAG_ACTORINSTANCE@@W4EBuzzardAIState@@1@Z 00405c10 f   buzzard.obj
 0001:000058a0       ?UpdateBuzzard@@YAXPAUTAG_ACTORINSTANCE@@@Z 00405ce0 f   buzzard.obj
 0001:000058e0       ?UpdateBuzzardLogic@@YAXPAUTAG_ACTORINSTANCE@@@Z 00405d20 f   buzzard.obj
 0001:00005c80       ?CreateActorInstanceBuzzard@@YAHPAUTAG_ACTORINSTANCE@@@Z 004060c0 f   buzzard.obj
 0001:00005de0       ?RequestNewBuzzardScript@@YAHPAUTAG_ACTORINSTANCE@@PAUTAG_BUZZARD_EVENT@@@Z 00406220 f   buzzardscripts.obj
 0001:00005e20       ?UpdateBuzzardAIScripts@@YAXPAUTAG_ACTORINSTANCELIST@@@Z 00406260 f   buzzardscripts.obj
 0001:000060a0       ?ConstructionBotIdleSeq@@YAHPAUTAG_ACTORINSTANCE@@@Z 004064e0 f   constructionbot.obj
 0001:00006120       ?ConstructionBotAwareSeq@@YAHPAUTAG_ACTORINSTANCE@@@Z 00406560 f   constructionbot.obj
 0001:00006160       ?ConstructionBotCostumeSeq@@YAHPAUTAG_ACTORINSTANCE@@@Z 004065a0 f   constructionbot.obj
 0001:000061a0       ?ConstructionBotAttackSeq@@YAHPAUTAG_ACTORINSTANCE@@@Z 004065e0 f   constructionbot.obj
 0001:000061e0       ?ConstructionBotTooCloseSeq@@YAHPAUTAG_ACTORINSTANCE@@@Z 00406620 f   constructionbot.obj
 0001:00006220       ?ConstructionBotAttackedSeq@@YAHPAUTAG_ACTORINSTANCE@@@Z 00406660 f   constructionbot.obj
 0001:000063a0       ?ConstructionBotOutOfRangeSeq@@YAHPAUTAG_ACTORINSTANCE@@@Z 004067e0 f   constructionbot.obj
 0001:000063e0       ?RivetCollision1@@YAHPAUTAG_ACTORINSTANCE@@0@Z 00406820 f   constructionbot.obj
 0001:000064a0       ?RivetCollision2@@YAHPAUTAG_ACTORINSTANCE@@0@Z 004068e0 f   constructionbot.obj
 0001:00006670       ?RivetCollision3@@YAHPAUTAG_ACTORINSTANCE@@0@Z 00406ab0 f   constructionbot.obj
 0001:00006780       ?ConstructionBotEvent@@YAXPAUTAG_ACTORINSTANCE@@H@Z 00406bc0 f   constructionbot.obj
 0001:00006a90       ?ConstructionBotMessageHandler@@YAHPAUTAG_ACTORINSTANCE@@PAD@Z 00406ed0 f   constructionbot.obj
 0001:00006b90       ?CreateActorInstanceConstructionBot@@YAHPAUTAG_ACTORINSTANCE@@PAUTAG_ACTORINSTANCELIST@@1@Z 00406fd0 f   constructionbot.obj
 0001:00006d90       ?ConstructionWorkerIdleSeq@@YAHPAUTAG_ACTORINSTANCE@@@Z 004071d0 f   constructionworker.obj
 0001:00006e20       ?ConstructionWorkerAwareSeq@@YAHPAUTAG_ACTORINSTANCE@@@Z 00407260 f   constructionworker.obj
 0001:00006f30       ?ConstructionWorkerAttackSeq@@YAHPAUTAG_ACTORINSTANCE@@@Z 00407370 f   constructionworker.obj
 0001:00006f70       ?ConstructionWorkerTooCloseSeq@@YAHPAUTAG_ACTORINSTANCE@@@Z 004073b0 f   constructionworker.obj
 0001:00006ff0       ?ConstructionWorkerPuzzledSeq@@YAHPAUTAG_ACTORINSTANCE@@@Z 00407430 f   constructionworker.obj
 0001:00007030       ?ConstructionWorkerAttackedSeq@@YAHPAUTAG_ACTORINSTANCE@@@Z 00407470 f   constructionworker.obj
 0001:00007170       ?ConstructionWorkerOutOfRangeSeq@@YAHPAUTAG_ACTORINSTANCE@@@Z 004075b0 f   constructionworker.obj
 0001:00007290       ?ConstructionWorkerStateChangeCallback@@YAXPAUTAG_ACTORINSTANCE@@HH@Z 004076d0 f   constructionworker.obj
 0001:00007380       ?ConstructionWorkerMessageHandler@@YAHPAUTAG_ACTORINSTANCE@@PAD@Z 004077c0 f   constructionworker.obj
 0001:00007910       ?CreateActorInstanceConstructionWorker@@YAHPAUTAG_ACTORINSTANCE@@PAUTAG_ACTORINSTANCELIST@@1@Z 00407d50 f   constructionworker.obj
 0001:00007b30       ?DoggyIdleSeq@@YAHPAUTAG_ACTORINSTANCE@@@Z 00407f70 f   doggy.obj
 0001:00007b70       ?DoggyAwareSeq@@YAHPAUTAG_ACTORINSTANCE@@@Z 00407fb0 f   doggy.obj
 0001:00007bb0       ?DoggyAttackSeq@@YAHPAUTAG_ACTORINSTANCE@@@Z 00407ff0 f   doggy.obj
 0001:00007bf0       ?DoggyDefendSeq@@YAHPAUTAG_ACTORINSTANCE@@@Z 00408030 f   doggy.obj
 0001:00007c30       ?DoggyAttackedSeq@@YAHPAUTAG_ACTORINSTANCE@@@Z 00408070 f   doggy.obj
 0001:00007d40       ?DoggyOutOfRangeSeq@@YAHPAUTAG_ACTORINSTANCE@@@Z 00408180 f   doggy.obj
 0001:00007d80       ?DoggyPuzzledSeq@@YAHPAUTAG_ACTORINSTANCE@@@Z 004081c0 f   doggy.obj
 0001:00007dc0       ?DoggyBiteChangeCallback@@YAXPAUTAG_ACTORINSTANCE@@@Z 00408200 f   doggy.obj
 0001:00007ed0       ?DoggyMessageHandler@@YAHPAUTAG_ACTORINSTANCE@@PAD@Z 00408310 f   doggy.obj
 0001:00007fc0       ?CreateActorInstanceDoggy@@YAHPAUTAG_ACTORINSTANCE@@PAUTAG_ACTORINSTANCELIST@@1H@Z 00408400 f   doggy.obj
 0001:000081d0       ?CheckIfPlayingAnimation@@YAHPAUTAG_ACTORINSTANCE@@PADI@Z 00408610 f i genericai.obj
 0001:00008200       ?CaptureTaz@@YA_NQBUTAG_ACTORINSTANCE@@@Z 00408640 f   genericai.obj
 0001:00008570       ?SetupCameraForCage@@YAXPAUTAG_ACTORINSTANCE@@@Z 004089b0 f   genericai.obj
 0001:00008650       ?SetupTazInCage@@YAXPAUTAG_ACTORINSTANCE@@@Z 00408a90 f   genericai.obj
 0001:00008890       ?IsTazWithinHeightRange@@YA_NPAUTAG_ACTORINSTANCE@@@Z 00408cd0 f   genericai.obj
 0001:00008a10       ?AICharacterCollisionDisabled@@YAHPAUTAG_ACTORINSTANCE@@0@Z 00408e50 f   genericai.obj
 0001:00008c00       ?AIPreCharacterCollision@@YAHPAUTAG_ACTORINSTANCE@@0PAUTAG_PRECOLLINFO@@@Z 00409040 f   genericai.obj
 0001:00008c60       ?AICharacterScared@@YAXPAUTAG_ACTORINSTANCE@@0@Z 004090a0 f   genericai.obj
 0001:00008cf0       ?AICharacterBitten@@YAXPAUTAG_ACTORINSTANCE@@0@Z 00409130 f   genericai.obj
 0001:00008de0       ?AICharacterSpun@@YA_NPAUTAG_ACTORINSTANCE@@0H_N@Z 00409220 f   genericai.obj
 0001:00008ee0       ?SetAISeqFunctions@@YAXPAUTAG_ACTORINSTANCE@@P6AH0@Z11111111@Z 00409320 f   genericai.obj
 0001:00008f80       ?EnlargeBBox@@YAXPAUTAG_BOUNDINGBOX@@QAY03M1M@Z 004093c0 f   genericai.obj
 0001:000092c0       ?SetAIAttackCallback@@YAXPAUTAG_ACTORINSTANCE@@P6AH0@Z@Z 00409700 f   genericai.obj
 0001:000092e0       ?SetAIChangeStateCallback@@YAXPAUTAG_ACTORINSTANCE@@P6AX0HH@Z@Z 00409720 f   genericai.obj
 0001:00009300       ?FreeActorGenericAI@@YAXPAUTAG_ACTORINSTANCE@@@Z 00409740 f   genericai.obj
 0001:00009360       ?UpdateCharacterAIStats@@YAXPAUTAG_ACTORINSTANCE@@@Z 004097a0 f   genericai.obj
 0001:00009590       ?GoActive@@YA_NPAUTAG_ACTORINSTANCE@@@Z 004099d0 f   genericai.obj
 0001:00009630       ?SafeToAttackTaz@@YA_NPAUTAG_ACTORINSTANCE@@@Z 00409a70 f   genericai.obj
 0001:000096c0       ?IsPlayerQuiet@@YA_NPAUTAG_ACTORINSTANCE@@@Z 00409b00 f   genericai.obj
 0001:00009730       ?GoAware@@YA_NPAUTAG_ACTORINSTANCE@@@Z 00409b70 f   genericai.obj
 0001:00009830       ?GoAttack@@YA_NPAUTAG_ACTORINSTANCE@@@Z 00409c70 f   genericai.obj
 0001:00009940       ?OUTOFRANGE@@YA_NPAUTAG_ACTORINSTANCE@@@Z 00409d80 f   genericai.obj
 0001:000099b0       ?FacePoint@@YAXPAUTAG_ACTORINSTANCE@@QAMMM@Z 00409df0 f   genericai.obj
 0001:00009a20       ?FacingPoint@@YA_NPAUTAG_ACTORINSTANCE@@QAMMM@Z 00409e60 f   genericai.obj
 0001:00009ad0       ?ReachedPoint@@YAHQAM0M@Z  00409f10 f   genericai.obj
 0001:00009b10       ?SetAIMessageHandler@@YAXPAUTAG_ACTORINSTANCE@@P6AH0PAD@Z@Z 00409f50 f   genericai.obj
 0001:00009b30       ?AISoundCallback@@YAXPAX@Z 00409f70 f   genericai.obj
 0001:00009ba0       ?AICollideWithSpecial@@YAXPAUTAG_ACTORINSTANCE@@0@Z 00409fe0 f   genericai.obj
 0001:00009be0       ?DistFromNodeToTaz@@YAMPAUTAG_ACTORINSTANCE@@PAD@Z 0040a020 f   genericai.obj
 0001:00009cb0       ?FindClosestEnemyToActor@@YAPAUTAG_ACTORINSTANCE@@QAMAAMQBU1@QBU_TBActor@@@Z 0040a0f0 f   genericai.obj
 0001:00009d50       ?SetupCharacterBox@@YAXQBUTAG_ACTORINSTANCE@@PADQAM22@Z 0040a190 f   genericai.obj
 0001:00009ee0       ?AISetShadow@@YAXPAUTAG_ACTORINSTANCE@@MMM@Z 0040a320 f   genericai.obj
 0001:00009f20       ?CheckForCharacterMessages@@YA_NPAUTAG_ACTORINSTANCE@@PAD@Z 0040a360 f   genericai.obj
 0001:00009f60       ?SetupTazPostCageIdle@@YAXPAUTAG_ACTORINSTANCE@@@Z 0040a3a0 f   genericai.obj
 0001:00009fc0       ?AICharacterCollision@@YAHPAUTAG_ACTORINSTANCE@@0@Z 0040a400 f   genericai.obj
 0001:0000a100       ?ClipPositionToBox@@YA_NPAUTAG_MOVEMENTBOX@@QAMM@Z 0040a540 f   genericai.obj
 0001:0000a810       ?ProcessPattern@@YA?AW4EPatternState@@PAUTAG_ACTORINSTANCE@@@Z 0040ac50 f   genericai.obj
 0001:0000bbb0       ?InitActorGenericAI@@YAXPAUTAG_ACTORINSTANCE@@PAUTAG_ACTORINSTANCELIST@@1@Z 0040bff0 f   genericai.obj
 0001:0000bdd0       ?GetNewSeq@@YAXPAUTAG_ACTORINSTANCE@@W4EAIState@@@Z 0040c210 f   genericai.obj
 0001:0000bee0       ?UpdateCharacterAI@@YA_NPAUTAG_ACTORINSTANCE@@@Z 0040c320 f   genericai.obj
 0001:0000cde0       ?UpdateCharacterAIInstances@@YAXPAUTAG_ACTORINSTANCELIST@@@Z 0040d220 f   genericai.obj
 0001:0000cf80       ?MinerBotIdleSeq@@YAHPAUTAG_ACTORINSTANCE@@@Z 0040d3c0 f   minerbot.obj
 0001:0000cfc0       ?MinerBotAwareSeq@@YAHPAUTAG_ACTORINSTANCE@@@Z 0040d400 f   minerbot.obj
 0001:0000d040       ?MinerBotAttackSeq@@YAHPAUTAG_ACTORINSTANCE@@@Z 0040d480 f   minerbot.obj
 0001:0000d0c0       ?MinerBotTooCloseSeq@@YAHPAUTAG_ACTORINSTANCE@@@Z 0040d500 f   minerbot.obj
 0001:0000d100       ?MinerBotPuzzledSeq@@YAHPAUTAG_ACTORINSTANCE@@@Z 0040d540 f   minerbot.obj
 0001:0000d140       ?MinerBotAttackedSeq@@YAHPAUTAG_ACTORINSTANCE@@@Z 0040d580 f   minerbot.obj
 0001:0000d280       ?MinerBotOutOfRangeSeq@@YAHPAUTAG_ACTORINSTANCE@@@Z 0040d6c0 f   minerbot.obj
 0001:0000d3a0       ?SecurityBotStateChangeCallback@@YAXPAUTAG_ACTORINSTANCE@@HH@Z 0040d7e0 f   securitybot.obj
 0001:0000d3a0       ?MinerBotStateChangeCallback@@YAXPAUTAG_ACTORINSTANCE@@HH@Z 0040d7e0 f   minerbot.obj
 0001:0000d3e0       ?MinerBotMessageHandler@@YAHPAUTAG_ACTORINSTANCE@@PAD@Z 0040d820 f   minerbot.obj
 0001:0000d6a0       ?CreateActorInstanceMinerBot@@YAHPAUTAG_ACTORINSTANCE@@PAUTAG_ACTORINSTANCELIST@@1@Z 0040dae0 f   minerbot.obj
 0001:0000d870       ?MuseumGuardIdleSeq@@YAHPAUTAG_ACTORINSTANCE@@@Z 0040dcb0 f   museumguard.obj
 0001:0000d8b0       ?MuseumGuardAwareSeq@@YAHPAUTAG_ACTORINSTANCE@@@Z 0040dcf0 f   museumguard.obj
 0001:0000d9e0       ?MuseumGuardAttackSeq@@YAHPAUTAG_ACTORINSTANCE@@@Z 0040de20 f   museumguard.obj
 0001:0000da40       ?MuseumGuardTooCloseSeq@@YAHPAUTAG_ACTORINSTANCE@@@Z 0040de80 f   museumguard.obj
 0001:0000da80       ?MuseumGuardPuzzledSeq@@YAHPAUTAG_ACTORINSTANCE@@@Z 0040dec0 f   museumguard.obj
 0001:0000dae0       ?MuseumGuardAttackedSeq@@YAHPAUTAG_ACTORINSTANCE@@@Z 0040df20 f   museumguard.obj
 0001:0000dc70       ?MuseumGuardOutOfRangeSeq@@YAHPAUTAG_ACTORINSTANCE@@@Z 0040e0b0 f   museumguard.obj
 0001:0000ddb0       ?MuseumGuardStateChangeCallback@@YAXPAUTAG_ACTORINSTANCE@@HH@Z 0040e1f0 f   museumguard.obj
 0001:0000de10       ?MuseumGuardMessageHandler@@YAHPAUTAG_ACTORINSTANCE@@PAD@Z 0040e250 f   museumguard.obj
 0001:0000e190       ?CreateActorInstanceMuseumGuard@@YAHPAUTAG_ACTORINSTANCE@@PAUTAG_ACTORINSTANCELIST@@1@Z 0040e5d0 f   museumguard.obj
 0001:0000e3b0       ?NastyCanIdleSeq@@YAHPAUTAG_ACTORINSTANCE@@@Z 0040e7f0 f   nastycan.obj
 0001:0000e3f0       ?NastyCanAwareSeq@@YAHPAUTAG_ACTORINSTANCE@@@Z 0040e830 f   nastycan.obj
 0001:0000e4c0       ?NastyCanPursuitAttackSeq@@YAHPAUTAG_ACTORINSTANCE@@@Z 0040e900 f   nastycan.obj
 0001:0000e4c0       ?NastyCanAttackSeq@@YAHPAUTAG_ACTORINSTANCE@@@Z 0040e900 f   nastycan.obj
 0001:0000e500       ?NastyCanTooCloseSeq@@YAHPAUTAG_ACTORINSTANCE@@@Z 0040e940 f   nastycan.obj
 0001:0000e540       ?NastyCanAttackedSeq@@YAHPAUTAG_ACTORINSTANCE@@@Z 0040e980 f   nastycan.obj
 0001:0000e670       ?NastyCanOutOfRangeSeq@@YAHPAUTAG_ACTORINSTANCE@@@Z 0040eab0 f   nastycan.obj
 0001:0000e6b0       ?NastyCanHit@@YAXPAUTAG_ACTORINSTANCE@@@Z 0040eaf0 f   nastycan.obj
 0001:0000e810       ?CactusCollisionCallback@@YAHPAUTAG_ACTORINSTANCE@@0@Z 0040ec50 f   nastycan.obj
 0001:0000e890       ?Init@TAG_CACTUS@@AAEXMQAM00@Z 0040ecd0 f   nastycan.obj
 0001:0000e900       ?UpdateAllCactie@@YAXXZ    0040ed40 f   nastycan.obj
 0001:0000eae0       ?CreateCactus@@YAXPAUTAG_ACTORINSTANCE@@QAM1M@Z 0040ef20 f   nastycan.obj
 0001:0000ed20       ?NastyCanFire@@YAXPAUTAG_ACTORINSTANCE@@@Z 0040f160 f   nastycan.obj
 0001:0000eea0       ?NastyCanMessageHandler@@YAHPAUTAG_ACTORINSTANCE@@PAD@Z 0040f2e0 f   nastycan.obj
 0001:0000ef90       ?CreateActorInstanceNastyCan@@YAHPAUTAG_ACTORINSTANCE@@PAUTAG_ACTORINSTANCELIST@@1@Z 0040f3d0 f   nastycan.obj
 0001:0000f190       ?SecurityBotIdleSeq@@YAHPAUTAG_ACTORINSTANCE@@@Z 0040f5d0 f   securitybot.obj
 0001:0000f210       ?SecurityBotAwareSeq@@YAHPAUTAG_ACTORINSTANCE@@@Z 0040f650 f   securitybot.obj
 0001:0000f290       ?SecurityBotAttackSeq@@YAHPAUTAG_ACTORINSTANCE@@@Z 0040f6d0 f   securitybot.obj
 0001:0000f310       ?SecurityBotTooCloseSeq@@YAHPAUTAG_ACTORINSTANCE@@@Z 0040f750 f   securitybot.obj
 0001:0000f350       ?SecurityBotPuzzledSeq@@YAHPAUTAG_ACTORINSTANCE@@@Z 0040f790 f   securitybot.obj
 0001:0000f390       ?SecurityBotAttackedSeq@@YAHPAUTAG_ACTORINSTANCE@@@Z 0040f7d0 f   securitybot.obj
 0001:0000f520       ?SecurityBotOutOfRangeSeq@@YAHPAUTAG_ACTORINSTANCE@@@Z 0040f960 f   securitybot.obj
 0001:0000f560       ?SecurityBotMessageHandler@@YAHPAUTAG_ACTORINSTANCE@@PAD@Z 0040f9a0 f   securitybot.obj
 0001:0000fba0       ?CreateActorInstanceSecurityBot@@YAHPAUTAG_ACTORINSTANCE@@PAUTAG_ACTORINSTANCELIST@@1@Z 0040ffe0 f   securitybot.obj
 0001:0000fda0       ?SharkIdleSeq@@YAHPAUTAG_ACTORINSTANCE@@@Z 004101e0 f   shark.obj
 0001:0000fde0       ?SharkAwareSeq@@YAHPAUTAG_ACTORINSTANCE@@@Z 00410220 f   shark.obj
 0001:0000fde0       ?SharkCostumeSeq@@YAHPAUTAG_ACTORINSTANCE@@@Z 00410220 f   shark.obj
 0001:0000fe20       ?SharkAttackSeq@@YAHPAUTAG_ACTORINSTANCE@@@Z 00410260 f   shark.obj
 0001:0000fe20       ?SharkTooCloseSeq@@YAHPAUTAG_ACTORINSTANCE@@@Z 00410260 f   shark.obj
 0001:0000fe60       ?SharkAttackedSeq@@YAHPAUTAG_ACTORINSTANCE@@@Z 004102a0 f   shark.obj
 0001:0000fea0       ?SharkOutOfRangeSeq@@YAHPAUTAG_ACTORINSTANCE@@@Z 004102e0 f   shark.obj
 0001:0000fed0       ?SharkSpitTaz@@YAXPAUTAG_ACTORINSTANCE@@QAM@Z 00410310 f   shark.obj
 0001:00010130       ?SharkStateChangeCallback@@YAXPAUTAG_ACTORINSTANCE@@HH@Z 00410570 f   shark.obj
 0001:00010210       ?HoldTazInShark@@YAXPAUTAG_ACTORINSTANCE@@@Z 00410650 f   shark.obj
 0001:000102a0       ?SharkFlyingUpdate@@YA_NPAUTAG_ACTORINSTANCE@@@Z 004106e0 f   shark.obj
 0001:000104b0       ?SharkMessageHandler@@YAHPAUTAG_ACTORINSTANCE@@PAD@Z 004108f0 f   shark.obj
 0001:00010ac0       ?FindPatrolPoints@@YAXPAUTAG_ACTORINSTANCE@@@Z 00410f00 f   shark.obj
 0001:00010cd0       ?CreateActorInstanceShark@@YAHPAUTAG_ACTORINSTANCE@@PAUTAG_ACTORINSTANCELIST@@1@Z 00411110 f   shark.obj
 0001:00010ea0       ?TaskForceIdleSeq@@YAHPAUTAG_ACTORINSTANCE@@@Z 004112e0 f   taskforce.obj
 0001:00010ee0       ?TaskForceAwareSeq@@YAHPAUTAG_ACTORINSTANCE@@@Z 00411320 f   taskforce.obj
 0001:00011040       ?TaskForceAttackSeq@@YAHPAUTAG_ACTORINSTANCE@@@Z 00411480 f   taskforce.obj
 0001:00011120       ?TaskForcePursuitAttackSeq@@YAHPAUTAG_ACTORINSTANCE@@@Z 00411560 f   taskforce.obj
 0001:00011160       ?TaskForceTooCloseSeq@@YAHPAUTAG_ACTORINSTANCE@@@Z 004115a0 f   taskforce.obj
 0001:000111a0       ?TaskForceAttackedSeq@@YAHPAUTAG_ACTORINSTANCE@@@Z 004115e0 f   taskforce.obj
 0001:000112f0       ?TaskForceOutOfRangeSeq@@YAHPAUTAG_ACTORINSTANCE@@@Z 00411730 f   taskforce.obj
 0001:00011330       ?TaskForceAttackCallback@@YAHPAUTAG_ACTORINSTANCE@@@Z 00411770 f   taskforce.obj
 0001:00011460       ?CreateActorInstanceTaskForce@@YAHPAUTAG_ACTORINSTANCE@@PAUTAG_ACTORINSTANCELIST@@1@Z 004118a0 f   taskforce.obj
 0001:00011660       ?TazCatcherIdleSeq@@YAHPAUTAG_ACTORINSTANCE@@@Z 00411aa0 f   tazcatcher.obj
 0001:00011720       ?TazCatcherAwareSeq@@YAHPAUTAG_ACTORINSTANCE@@@Z 00411b60 f   tazcatcher.obj
 0001:00011850       ?TazCatcherAttackSeq@@YAHPAUTAG_ACTORINSTANCE@@@Z 00411c90 f   tazcatcher.obj
 0001:00011940       ?TazCatcherTooCloseSeq@@YAHPAUTAG_ACTORINSTANCE@@@Z 00411d80 f   tazcatcher.obj
 0001:00011980       ?TazCatcherAttackedSeq@@YAHPAUTAG_ACTORINSTANCE@@@Z 00411dc0 f   tazcatcher.obj
 0001:00011b10       ?TazCatcherOutOfRangeSeq@@YAHPAUTAG_ACTORINSTANCE@@@Z 00411f50 f   tazcatcher.obj
 0001:00011b50       ?TazCatcherAttackCallback@@YAHPAUTAG_ACTORINSTANCE@@@Z 00411f90 f   tazcatcher.obj
 0001:00011d00       ?TazCatcherMessageHandler@@YAHPAUTAG_ACTORINSTANCE@@PAD@Z 00412140 f   tazcatcher.obj
 0001:00011d30       ?ConstructionBotStateChangeCallback@@YAXPAUTAG_ACTORINSTANCE@@HH@Z 00412170 f   constructionbot.obj
 0001:00011d30       ?TazCatcherStateChangeCallback@@YAXPAUTAG_ACTORINSTANCE@@HH@Z 00412170 f   tazcatcher.obj
 0001:00011d30       ?ApeStateChangeCallback@@YAXPAUTAG_ACTORINSTANCE@@HH@Z 00412170 f   apes.obj
 0001:00011d50       ?CreateActorInstanceTazCatcher@@YAHPAUTAG_ACTORINSTANCE@@PAUTAG_ACTORINSTANCELIST@@1@Z 00412190 f   tazcatcher.obj
 0001:00011f50       ?TribalChiefIdleSeq@@YAHPAUTAG_ACTORINSTANCE@@@Z 00412390 f   tribalchief.obj
 0001:00011f90       ?TribalChiefAwareSeq@@YAHPAUTAG_ACTORINSTANCE@@@Z 004123d0 f   tribalchief.obj
 0001:00012080       ?TribalChiefAttackSeq@@YAHPAUTAG_ACTORINSTANCE@@@Z 004124c0 f   tribalchief.obj
 0001:00012100       ?TribalChiefPursuitAttackSeq@@YAHPAUTAG_ACTORINSTANCE@@@Z 00412540 f   tribalchief.obj
 0001:00012140       ?TribalChiefTooCloseSeq@@YAHPAUTAG_ACTORINSTANCE@@@Z 00412580 f   tribalchief.obj
 0001:00012180       ?TribalChiefDisguiseSeq@@YAHPAUTAG_ACTORINSTANCE@@@Z 004125c0 f   tribalchief.obj
 0001:000121c0       ?TribalChiefAttackedSeq@@YAHPAUTAG_ACTORINSTANCE@@@Z 00412600 f   tribalchief.obj
 0001:00012300       ?TribalChiefOutOfRangeSeq@@YAHPAUTAG_ACTORINSTANCE@@@Z 00412740 f   tribalchief.obj
 0001:00012440       ?TribalChiefMessageHandler@@YAHPAUTAG_ACTORINSTANCE@@PAD@Z 00412880 f   tribalchief.obj
 0001:00012670       ?Draw2@@YAXPAUTAG_ACTORINSTANCE@@@Z 00412ab0 f   tribalchief.obj
 0001:000126d0       ?CreateActorInstanceTribalChief@@YAHPAUTAG_ACTORINSTANCE@@PAUTAG_ACTORINSTANCELIST@@1@Z 00412b10 f   tribalchief.obj
 0001:00012920       ?bmRandf@@YAMXZ            00412d60 f i tweety.obj
 0001:00012960       ?bmVectorSquaredLen@@YAMQBM@Z 00412da0 f i tweety.obj
 0001:00012990       ?CreateTweety@@YAXQAM0@Z   00412dd0 f   tweety.obj
 0001:00012af0       ?TweetyLookAt2D@@YAXQAM@Z  00412f30 f   tweety.obj
 0001:00012b70       ?MoveTweety@@YAXXZ         00412fb0 f   tweety.obj
 0001:00012db0       ?AnimateTweety@@YAXXZ      004131f0 f   tweety.obj
 0001:00013070       ?SetTweetyDest@@YAXQAM@Z   004134b0 f   tweety.obj
 0001:000130f0       ?SetTweetyAOI@@YAXPAUTAG_ACTORINSTANCE@@@Z 00413530 f   tweety.obj
 0001:00013110       ?TeleportTweety@@YAXQAM@Z  00413550 f   tweety.obj
 0001:00013140       ?DrawTweety@@YAXXZ         00413580 f   tweety.obj
 0001:000131f0       ?UpdateTweetyLanguage@@YAPAUTAG_TWEETY@@M@Z 00413630 f   tweety.obj
 0001:00013530       ?UpdateTweetyNormal@@YAHM@Z 00413970 f   tweety.obj
 0001:000138e0       ?DestroyTweety@@YAXXZ      00413d20 f   tweety.obj
 0001:00013900       ?interuptTweetyIntro@@YA_NMM@Z 00413d40 f   tweety.obj
 0001:00013950       ?StartTweetyIntro@@YAXXZ   00413d90 f   tweety.obj
 0001:00013a30       ?DoTweetyIntro@@YAXXZ      00413e70 f   tweety.obj
 0001:00013d00       ?ZookeeperIdleSeq@@YAHPAUTAG_ACTORINSTANCE@@@Z 00414140 f   zookeeper.obj
 0001:00013d40       ?ZookeeperAwareSeq@@YAHPAUTAG_ACTORINSTANCE@@@Z 00414180 f   zookeeper.obj
 0001:00013e40       ?ZookeeperAttackSeq@@YAHPAUTAG_ACTORINSTANCE@@@Z 00414280 f   zookeeper.obj
 0001:00013ec0       ?ZookeeperPursuitAttackSeq@@YAHPAUTAG_ACTORINSTANCE@@@Z 00414300 f   zookeeper.obj
 0001:00013f00       ?ZookeeperTooCloseSeq@@YAHPAUTAG_ACTORINSTANCE@@@Z 00414340 f   zookeeper.obj
 0001:00013f40       ?ZookeeperAttackedSeq@@YAHPAUTAG_ACTORINSTANCE@@@Z 00414380 f   zookeeper.obj
 0001:00014110       ?ZookeeperOutOfRangeSeq@@YAHPAUTAG_ACTORINSTANCE@@@Z 00414550 f   zookeeper.obj
 0001:00014150       ?NetControl@@YAXPAUTAG_PADCONTROLSTATUS@@PAUTAG_CAMERAINFO@@PAUTAG_ACTORINSTANCE@@@Z 00414590 f   zookeeper.obj
 0001:00014360       ?ProcessCharacterInNet@@YAXPAUTAG_ACTORINSTANCE@@@Z 004147a0 f   zookeeper.obj
 0001:00014510       ?AnotherZookeeperAttacking@@YA_NPAUTAG_ACTORINSTANCE@@@Z 00414950 f   zookeeper.obj
 0001:00014590       ?ZooKeeperMessageHandler@@YAHPAUTAG_ACTORINSTANCE@@PAD@Z 004149d0 f   zookeeper.obj
 0001:00015090       ?CreateActorInstanceZookeeper@@YAHPAUTAG_ACTORINSTANCE@@PAUTAG_ACTORINSTANCELIST@@1W4EZookeeperType@@I@Z 004154d0 f   zookeeper.obj
 0001:000152e0       ?DestroyObject@@YAXPAUTAG_ACTORINSTANCE@@@Z 00415720 f   breakables.obj
 0001:000155c0       ?DestroyObject@@YAXPAUTAG_ACTORINSTANCE@@PAUTAG_DESTRUCTIBLEDEBRISINFO@@H@Z 00415a00 f   breakables.obj
 0001:00015be0       ?RespondToBumperCollision@@YAHPAUTAG_ACTORINSTANCE@@0@Z 00416020 f   bumper.obj
 0001:00015d60       ?setBumperIgnoreCharacter@@YAXPAUTAG_ACTORINSTANCE@@@Z 004161a0 f   bumper.obj
 0001:00015d70       ?CreateBumper@@YAHPAUTAG_ACTORINSTANCE@@M@Z 004161b0 f   bumper.obj
 0001:00015df0       ?bmVectorDot@@YAMQBM0@Z    00416230 f i destructibles.obj
 0001:00015e10       ?PreRespondToDestructibleCollision@@YAHPAUTAG_ACTORINSTANCE@@0PAUTAG_PRECOLLINFO@@@Z 00416250 f   destructibles.obj
 0001:00015f50       ?eatCallback@@YAXPAUTAG_ACTORINSTANCE@@@Z 00416390 f   destructibles.obj
 0001:00015fa0       ?ChangeIntoDestructibleVersion@@YAHPAUTAG_ACTORINSTANCE@@H@Z 004163e0 f   destructibles.obj
 0001:00016110       ?CopyDestructibleDebrisInfo@@YAPAUTAG_DESTRUCTIBLEDEBRISINFO@@PAU1@@Z 00416550 f   destructibles.obj
 0001:00016170       ?BounceCharacter@@YAXPAUTAG_ACTORINSTANCE@@QAMM@Z 004165b0 f   destructibles.obj
 0001:00016270       ?BounceCharacter@@YAXPAUTAG_ACTORINSTANCE@@0MH@Z 004166b0 f   destructibles.obj
 0001:00016370       ?FindTexturesFromMapUsedBySparkingObjects@@YAXXZ 004167b0 f   destructibles.obj
 0001:000163f0       ?RespondToDestructibleCollision@@YAHPAUTAG_ACTORINSTANCE@@0@Z 00416830 f   destructibles.obj
 0001:000178a0       ?UpdateDestroyEverything@@YAXPAUTAG_ACTORINSTANCE@@@Z 00417ce0 f   destructibles.obj
 0001:000179d0       ?CreateDestructibleObjectInstance@@YAHPAUTAG_ACTORINSTANCE@@HPAUTAG_DESTRUCTIBLEDEBRISINFO@@HIIIIPADMMMHIIFM@Z 00417e10 f   destructibles.obj
 0001:00017cb0       ?UpdateSpinningDestructibleObjects@@YAXPAUTAG_ACTORINSTANCE@@@Z 004180f0 f   destructibles.obj
 0001:00017f80       ?SetupDestructible@@YAXPAUTAG_MAPINFO@@PAVCPMNode@@1PAUTAG_MAPOBJECTATTRIBS@@PAUTAG_ACTORINSTANCE@@@Z 004183c0 f   destructibles.obj
 0001:00018770       ??0TAG_COLOUR@@QAE@XZ      00418bb0 f i doors.obj
 0001:00018790       ??0TAG_PAGEITEM@@QAE@XZ    00418bd0 f i doors.obj
 0001:00018820       ?endDraw@TAG_PAGEITEM@@MAEXXZ 00418c60 f i doors.obj
 0001:00018830       ?ActivateFragment@CBShaderFragment_Fog@@UAEXQBU_TBShaderContext@@@Z 00418c70 f i bActor:pcxbShaderSelector.obj
 0001:00018830       ?ActivateFragment@CBShaderFragment_PointLight@@UAEXQBU_TBShaderContext@@@Z 00418c70 f i bActor:pcxbShaderSelector.obj
 0001:00018830       ?ActivateFragment@CBShaderFragment_AmbientLight@@UAEXQBU_TBShaderContext@@@Z 00418c70 f i bActor:pcxbShaderSelector.obj
 0001:00018830       ?setLanguage@TAG_PAGEITEM@@MAEXW4EBLanguageID@@@Z 00418c70 f i doors.obj
 0001:00018830       ?ActivateFragment@CBShaderFragment_DirectionalLight@@UAEXQBU_TBShaderContext@@@Z 00418c70 f i bActor:pcxbShaderSelector.obj
 0001:00018830       ?DeactivateFragment@CBShaderFragment@@UAEXQBU_TBShaderContext@@@Z 00418c70 f i bActor:pcxbShaderSelector.obj
 0001:00018830       ?ActivateFragment@CBShaderFragment_ZOnly@@UAEXQBU_TBShaderContext@@@Z 00418c70 f i bActor:pcxbShaderSelector.obj
 0001:00018830       ?ActivateFragment@CBShaderFragment_OutColour@@UAEXQBU_TBShaderContext@@@Z 00418c70 f i bActor:pcxbShaderSelector.obj
 0001:00018830       ?ActivateFragment@CBShaderFragment_SpotLight@@UAEXQBU_TBShaderContext@@@Z 00418c70 f i bActor:pcxbShaderSelector.obj
 0001:00018830       ?ActivateFragment@CBShaderFragment@@UAEXQBU_TBShaderContext@@@Z 00418c70 f i bActor:pcxbShaderSelector.obj
 0001:00018830       ?RegisterData@CBShaderFragment@@UAEXQBU_TBShaderContext@@@Z 00418c70 f i bActor:pcxbShaderSelector.obj
 0001:00018840       ?setEffectChooser@TAG_PAGEITEM@@UAEPAU1@QBUPIECHOOSER@@@Z 00418c80 f i doors.obj
 0001:00018850       ?getTextbox@TAG_PAGEITEM@@UAEPAUTAG_TEXTBOX@@W4EStringIndex@@@Z 00418c90 f i doors.obj
 0001:00018850       ?getItem@TAG_PAGEITEM@@UAEPAU1@QBD@Z 00418c90 f i doors.obj
 0001:00018860       ?getItem@TAG_PAGEITEM@@UAEPAU1@MM@Z 00418ca0 f i doors.obj
 0001:000188b0       ?getNavigationCandidate@TAG_PAGEITEM@@UAEPAU1@AAUNAVCANDIDATE_INFO@@@Z 00418cf0 f i doors.obj
 0001:000188c0       ?navigate@TAG_PAGEITEM@@UAEXM_NW4EPageNavInput@@@Z 00418d00 f i doors.obj
 0001:000188d0       ?onInsert@TAG_PAGEITEM@@UAEXXZ 00418d10 f i doors.obj
 0001:000188e0       ?getRequiredWidth@TAG_PAGEITEM@@UAEMXZ 00418d20 f i doors.obj
 0001:000188e0       ?getRequiredHeight@TAG_PAGEITEM@@UAEMXZ 00418d20 f i doors.obj
 0001:000188f0       ??_ETAG_PAGEITEM@@UAEPAXI@Z 00418d30 f i doors.obj
 0001:000188f0       ??_GTAG_PAGEITEM@@UAEPAXI@Z 00418d30 f i doors.obj
 0001:00018910       ?UpdateRevolvingDoorOrientation@@YAXPAUTAG_ACTORINSTANCE@@@Z 00418d50 f   doors.obj
 0001:00018a10       ?UpdateSpringyDoorOrientation@@YAXPAUTAG_ACTORINSTANCE@@@Z 00418e50 f   doors.obj
 0001:00018b20       ?RespondToRevolvingDoorCollision@@YAHPAUTAG_ACTORINSTANCE@@0@Z 00418f60 f   doors.obj
 0001:00018cc0       ?RespondToSpringyDoorCollision@@YAHPAUTAG_ACTORINSTANCE@@0@Z 00419100 f   doors.obj
 0001:00018e90       ?FreeXDoor@@YAXPAUTAG_ACTORINSTANCE@@@Z 004192d0 f   doors.obj
 0001:00018f70       ?EnterSceneUsingXDoor@@YA_NPAUTAG_ACTORINSTANCE@@I@Z 004193b0 f   doors.obj
 0001:000190c0       ?UpdateXDoorState@@YA_NPAUTAG_ACTORINSTANCE@@@Z 00419500 f   doors.obj
 0001:00019600       ?UpdateXDoorSparkles@@YAXPAUTAG_ACTORINSTANCE@@@Z 00419a40 f   doors.obj
 0001:00019650       ?getFirstSelectableItem@TAG_PAGEITEM@@UAEPAU1@_N@Z 00419a90 f i doors.obj
 0001:00019670       ??0TAG_TEXTBOX@@QAE@W4EStringIndex@@@Z 00419ab0 f i doors.obj
 0001:000196f0       ?getStringIndex@TAG_TEXTBOX@@EAE?AW4EStringIndex@@XZ 00419b30 f i doors.obj
 0001:00019700       ?getTextRect@TAG_TEXTBOX@@MBE?AUTAG_RECTANGLE@@XZ 00419b40 f i doors.obj
 0001:00019730       ?update@TAG_TEXTBOX@@UAEXXZ 00419b70 f i doors.obj
 0001:00019740       ?CreateRevolvingDoor@@YAHPAUTAG_ACTORINSTANCE@@MMH@Z 00419b80 f   doors.obj
 0001:00019820       ?CreateSpringyDoor@@YAHPAUTAG_ACTORINSTANCE@@MMH@Z 00419c60 f   doors.obj
 0001:00019920       ?UpdateDoors@@YAXPAUTAG_ACTORINSTANCE@@@Z 00419d60 f   doors.obj
 0001:00019960       ?RespondToXDoorCollision@@YAHPAUTAG_ACTORINSTANCE@@0@Z 00419da0 f   doors.obj
 0001:00019cd0       ?CreateActorInstanceXDoor@@YA_NPAD0IQAM11PAVCPMNode@@2@Z 0041a110 f   doors.obj
 0001:0001a040       ?CreateDoor@@YAHPAUTAG_ACTORINSTANCE@@MMH@Z 0041a480 f   doors.obj
 0001:0001a090       ?RespondToEscalatorCollision@@YAHPAUTAG_ACTORINSTANCE@@0@Z 0041a4d0 f   escalator.obj
 0001:0001a0d0       ?UpdateLastEscalator@@YAXPAUTAG_ACTORINSTANCE@@@Z 0041a510 f   escalator.obj
 0001:0001a1b0       ?CreateEscalator@@YAHPAUTAG_ACTORINSTANCE@@QAMM@Z 0041a5f0 f   escalator.obj
 0001:0001a2e0       ?InitFallingObjectList@@YAXXZ 0041a720 f   fallingobjects.obj
 0001:0001a300       ?AddEntryToFallingObjectList@@YAXPAD0QAM1MHIIPAUTAG_TRIGGERINFO@@PAUTAG_DESTRUCTIBLEDEBRISINFO@@_N4@Z 0041a740 f   fallingobjects.obj
 0001:0001a460       ?SetFallingObjectState@@YAXI_N@Z 0041a8a0 f   fallingobjects.obj
 0001:0001a490       ?RemoveObjectFromFallingList@@YAHPAUTAG_FALLINGOBJECTLISTENTRY@@@Z 0041a8d0 f   fallingobjects.obj
 0001:0001a530       ?FreeAllFallingObjectsFromList@@YAXXZ 0041a970 f   fallingobjects.obj
 0001:0001a5b0       ?CreateFallingObjectInstance@@YAHPAUTAG_ACTORINSTANCE@@QAM@Z 0041a9f0 f   fallingobjects.obj
 0001:0001a630       ?UpdateFallingObjectInfo@@YAXPAUTAG_ACTORINSTANCE@@@Z 0041aa70 f   fallingobjects.obj
 0001:0001a710       ?FreeAllFallingObjectScaleInfo@@YAXPAUTAG_ACTORINSTANCELIST@@@Z 0041ab50 f   fallingobjects.obj
 0001:0001a770       ?ResetRemainTypeFallingObject@@YAHPAUTAG_ACTORINSTANCE@@0@Z 0041abb0 f   fallingobjects.obj
 0001:0001ab00       ?RemoveObjectFromFallingListByCRC@@YAHI@Z 0041af40 f   fallingobjects.obj
 0001:0001ab40       ?UpdateFallingObject@@YAXPAUTAG_ACTORINSTANCE@@@Z 0041af80 f   fallingobjects.obj
 0001:0001ad60       ?RespondToActorCollision@@YAHPAUTAG_ACTORINSTANCE@@0@Z 0041b1a0 f   fallingobjects.obj
 0001:0001af40       ?DropObject@@YAPAUTAG_ACTORINSTANCE@@PAUTAG_ACTORINSTANCELIST@@IIPADQAMIIPAUTAG_TRIGGERINFO@@PAUTAG_DESTRUCTIBLEDEBRISINFO@@M_NMPAU1@H@Z 0041b380 f   fallingobjects.obj
 0001:0001b390       ?UpdateFallingObjectList@@YAXPAUTAG_FALLINGOBJECTLIST@@@Z 0041b7d0 f   fallingobjects.obj
 0001:0001b610       ?CreateFlameThrowa@@YAHPAUTAG_ACTORINSTANCE@@MM@Z 0041ba50 f   famethrowa.obj
 0001:0001b680       ?UpdateFlameThrowa@@YAXPAUTAG_ACTORINSTANCE@@@Z 0041bac0 f   famethrowa.obj
 0001:0001bbd0       ?setDrawScale@TAG_PAGEITEM@@QAEPAU1@M@Z 0041c010 f i floorpolisherwantedposter.obj
 0001:0001bc00       ?setScale@TAG_PAGEITEM@@QAEPAU1@M@Z 0041c040 f i floorpolisherwantedposter.obj
 0001:0001bc50       ?InitFloorPolisherWantedPoster@@YAXPAPAUTAG_WANTEDPOSTERDECALINFO@@@Z 0041c090 f   floorpolisherwantedposter.obj
 0001:0001bc60       ?CreateFloorPolisherWantedPosterMesh@@YAXPAUTAG_WANTEDPOSTERDECALINFO@@@Z 0041c0a0 f   floorpolisherwantedposter.obj
 0001:0001bd60       ?UpdateFloorPolisherWantedPoster@@YAXPAUTAG_WANTEDPOSTERDECALINFO@@@Z 0041c1a0 f   floorpolisherwantedposter.obj
 0001:0001c130       ?DrawFloorPolisherWantedPoster@@YAXPAUTAG_WANTEDPOSTERDECALINFO@@@Z 0041c570 f   floorpolisherwantedposter.obj
 0001:0001c330       ?FreeFloorPolisherWantedPosterInfo@@YAXPAPAUTAG_WANTEDPOSTERDECALINFO@@@Z 0041c770 f   floorpolisherwantedposter.obj
 0001:0001c370       ?CreateFloorPolisherWantedPoster@@YAPAUTAG_WANTEDPOSTERDECALINFO@@QAMMMM@Z 0041c7b0 f   floorpolisherwantedposter.obj
 0001:0001c790       ?CreateRandomFood@@YAHQAMI@Z 0041cbd0 f   foodrandomiser.obj
 0001:0001c7c0       ?RespondToFountainCollision@@YAHPAUTAG_ACTORINSTANCE@@0@Z 0041cc00 f   fountain.obj
 0001:0001c900       ?ProcessFountainPhysics@@YAXPAUTAG_ACTORINSTANCE@@@Z 0041cd40 f   fountain.obj
 0001:0001d1a0       ?UpdateFountains@@YAXPAUTAG_ACTORINSTANCE@@@Z 0041d5e0 f   fountain.obj
 0001:0001d1c0       ?CreateFountain@@YAHPAUTAG_ACTORINSTANCE@@MMH@Z 0041d600 f   fountain.obj
 0001:0001d310       ?FountainExtraCreateCallback@@YAXPAU_TBExtraSystem@@PAEPAD@Z 0041d750 f   fountainextrasystem.obj
 0001:0001d460       ?FountainExtraUpdateCallback@@YAXPAU_TBExtraSystem@@HPAPAEM@Z 0041d8a0 f   fountainextrasystem.obj
 0001:0001d6e0       ?FountainExtraRenderCallback@@YAXPAU_TBExtraSystem@@HPAPAEPAX@Z 0041db20 f   fountainextrasystem.obj
 0001:0001d880       ?InitFountainExtraSystem@@YAXXZ 0041dcc0 f   fountainextrasystem.obj
 0001:0001d8c0       ?IceStateChangeCallback@@YAXPAUTAG_ACTORINSTANCE@@@Z 0041dd00 f   ice.obj
 0001:0001d9d0       ?RespondToIceCollision@@YAHPAUTAG_ACTORINSTANCE@@0@Z 0041de10 f   ice.obj
 0001:0001da70       ?CreateIceInstance@@YAXPAUTAG_ACTORINSTANCE@@PADD@Z 0041deb0 f   ice.obj
 0001:0001dbc0       ?RespondToLavaCollision@@YAHPAUTAG_ACTORINSTANCE@@0@Z 0041e000 f   lava.obj
 0001:0001dcf0       ?CreateLavaObject@@YAHPAUTAG_ACTORINSTANCE@@_N@Z 0041e130 f   lava.obj
 0001:0001dd40       ?CreateLavaSpitSource@@YAXPAUTAG_ACTORINSTANCE@@@Z 0041e180 f   lava.obj
 0001:0001dda0       ?UpdateLavaSpitSource@@YAXPAUTAG_ACTORINSTANCE@@@Z 0041e1e0 f   lava.obj
 0001:0001e080       ?LavaSpitExtraCreateCallback@@YAXPAU_TBExtraSystem@@PAEPAD@Z 0041e4c0 f   lava.obj
 0001:0001e120       ?LavaSpitExtraUpdateCallback@@YAXPAU_TBExtraSystem@@HPAPAEM@Z 0041e560 f   lava.obj
 0001:0001e210       ?LavaSpitExtraRenderCallback@@YAXPAU_TBExtraSystem@@HPAPAEPAX@Z 0041e650 f   lava.obj
 0001:0001e330       ?InitLavaSpitExtraSystem@@YAXXZ 0041e770 f   lava.obj
 0001:0001e370       ?CreateMagnetInstance@@YAPAUTAG_MAGNETINFO@@PAUTAG_ACTORINSTANCE@@MM@Z 0041e7b0 f   magnet.obj
 0001:0001e5f0       ?UpdateMagnetInstance@@YAXPAUTAG_ACTORINSTANCE@@@Z 0041ea30 f   magnet.obj
 0001:0001eb20       ?DrawMagnetStuff@@YAXPAUTAG_ACTORINSTANCELIST@@@Z 0041ef60 f   magnet.obj
 0001:0001eca0       ?CubeDistanceTest@@YAHQAM0M@Z 0041f0e0 f   mailbox.obj
 0001:0001ed30       ?CreateMailboxInstance@@YAHPAUTAG_ACTORINSTANCE@@QAMHI@Z 0041f170 f   mailbox.obj
 0001:0001ee20       ?UpdateIndividualMailbox@@YAXPAUTAG_ACTORINSTANCE@@0@Z 0041f260 f   mailbox.obj
 0001:0001f210       ?UpdateMailboxes@@YAXPAUTAG_ACTORINSTANCE@@@Z 0041f650 f   mailbox.obj
 0001:0001f230       ?CreateMusicBoxInstance@@YAXPAUTAG_ACTORINSTANCE@@MII@Z 0041f670 f   musicandsavagebeasts.obj
 0001:0001f360       ?PreCacheMusicBoxBoundaryInfo@@YAXPAUTAG_ACTORINSTANCELIST@@@Z 0041f7a0 f   musicandsavagebeasts.obj
 0001:0001f410       ?CheckIfVectorPositionLiesWithinInstance@@YAHPAUTAG_COLLPOLY@@PAUTAG_COLLVERTEX@@IQAM@Z 0041f850 f   musicandsavagebeasts.obj
 0001:0001f520       ?MusicBoxStateChangeCallback@@YAXPAUTAG_ACTORINSTANCE@@@Z 0041f960 f   musicandsavagebeasts.obj
 0001:0001f570       ?StaveExtraCreateCallback@@YAXPAU_TBExtraSystem@@PAEPAD@Z 0041f9b0 f   musicandsavagebeasts.obj
 0001:0001f870       ?StaveExtraUpdateCallback@@YAXPAU_TBExtraSystem@@HPAPAEM@Z 0041fcb0 f   musicandsavagebeasts.obj
 0001:0001fc40       ?StaveExtraRenderCallback@@YAXPAU_TBExtraSystem@@HPAPAEPAX@Z 00420080 f   musicandsavagebeasts.obj
 0001:0001ff10       ?UpdateMusicBoxInstances@@YAXPAUTAG_ACTORINSTANCELIST@@@Z 00420350 f   musicandsavagebeasts.obj
 0001:00020170       ?InitStaveExtraSystem@@YAXXZ 004205b0 f   musicandsavagebeasts.obj
 0001:000201b0       ?IsPoliceBoxAccessible@@YA_NPAD@Z 004205f0 f   phonebox.obj
 0001:00020300       ?PhoneBoxCamera@@YAXPAUTAG_ACTORINSTANCE@@@Z 00420740 f   phonebox.obj
 0001:00020390       ?EnterSceneUsingPoliceBox@@YA_NPAUTAG_ACTORINSTANCE@@H@Z 004207d0 f   phonebox.obj
 0001:000205f0       ?RespondToPhoneBoxCollision@@YAHPAUTAG_ACTORINSTANCE@@0@Z 00420a30 f   phonebox.obj
 0001:000208d0       ?UpdatePhoneBoxes@@YAXPAUTAG_ACTORINSTANCELIST@@@Z 00420d10 f   phonebox.obj
 0001:00020940       ?KillPhoneBoxBook@@YAXXZ   00420d80 f   phonebox.obj
 0001:00020960       ?CreateActorInstancePhoneBox@@YAHPAUTAG_ACTORINSTANCE@@0HPAD@Z 00420da0 f   phonebox.obj
 0001:00020bf0       ?UpdatePhoneBox@@YAXPAUTAG_ACTORINSTANCE@@@Z 00421030 f   phonebox.obj
 0001:00021a60       ?CreatePhoneBoxBook@@YAXXZ 00421ea0 f   phonebox.obj
 0001:00021b80       ?CreatePortalWorldInstance@@YAHPAUTAG_ACTORINSTANCE@@@Z 00421fc0 f   portal.obj
 0001:00021bb0       ?CalculatePortalWorldGravity@@YAXPAUTAG_ACTORINSTANCE@@@Z 00421ff0 f   portal.obj
 0001:00021c30       ?RespondToCannonCollision@@YAHPAUTAG_ACTORINSTANCE@@0@Z 00422070 f   projectile.obj
 0001:00021e00       ?LaunchStateChangeCallback@@YAXPAUTAG_ACTORINSTANCE@@@Z 00422240 f   projectile.obj
 0001:00021e90       ?CalculateProjectileInitialVelocity@@YAMQAM00M@Z 004222d0 f   projectile.obj
 0001:00021ff0       ?UpdateProjectilePitch@@YAXPAUTAG_ACTORINSTANCE@@@Z 00422430 f   projectile.obj
 0001:000220c0       ?UpdateProjectilePitch@@YAXPAUTAG_ACTORINSTANCE@@M@Z 00422500 f   projectile.obj
 0001:00022170       ?FollowFixedPath@@YAXPAUTAG_ACTORINSTANCE@@@Z 004225b0 f   projectile.obj
 0001:000222c0       ?CreateActorInstanceProjectile@@YAHPAUTAG_ACTORINSTANCE@@IMW4ESpecialType@@H_NDHH@Z 00422700 f   projectile.obj
 0001:00022410       ?LaunchActor@@YAXPAUTAG_ACTORINSTANCE@@0@Z 00422850 f   projectile.obj
 0001:00022820       ?UpdateCannonState@@YAXPAUTAG_ACTORINSTANCE@@@Z 00422c60 f   projectile.obj
 0001:00022be0       ?UpdateScenicObject@@YAXPAUTAG_ACTORINSTANCE@@@Z 00423020 f   scenicobjects.obj
 0001:00022c10       ?ScenicFireworksExtraCreateCallback@@YAXPAU_TBExtraSystem@@PAEPAD@Z 00423050 f   scenicobjects.obj
 0001:00022c60       ?ScenicFireworksExtraUpdateCallback@@YAXPAU_TBExtraSystem@@HPAPAEM@Z 004230a0 f   scenicobjects.obj
 0001:00022cc0       ?ScenicFireworksExtraRenderCallback@@YAXPAU_TBExtraSystem@@HPAPAEPAX@Z 00423100 f   scenicobjects.obj
 0001:00022e10       ?CreateScenic@@YAHPAUTAG_ACTORINSTANCE@@PADHIMW4EScenic@@H_N@Z 00423250 f   scenicobjects.obj
 0001:00022f10       ?InitScenicFireworksExtraSystem@@YAXXZ 00423350 f   scenicobjects.obj
 0001:00023020       ?RespondToSlideCollision@@YAHPAUTAG_ACTORINSTANCE@@0@Z 00423460 f   slides.obj
 0001:00023070       ?CreateSlide@@YAHPAUTAG_ACTORINSTANCE@@@Z 004234b0 f   slides.obj
 0001:000230b0       ?RespondToSpeedboostCollision@@YAHPAUTAG_ACTORINSTANCE@@0@Z 004234f0 f   speedboost.obj
 0001:00023270       ?CreateSpeedBoost@@YAHPAUTAG_ACTORINSTANCE@@QAM1MI_N2@Z 004236b0 f   speedboost.obj
 0001:000233b0       ?SplatCallback@@YAXPAUTAG_ACTORINSTANCE@@@Z 004237f0 f   splatobjects.obj
 0001:00023460       ?RespondToSplatCollision@@YAHPAUTAG_ACTORINSTANCE@@0@Z 004238a0 f   splatobjects.obj
 0001:00023580       ?CreateSplatObject@@YAHPAUTAG_ACTORINSTANCE@@@Z 004239c0 f   splatobjects.obj
 0001:000235e0       ?CalculateInitialVelocity@@YAMPAUTAG_ACTORINSTANCE@@0@Z 00423a20 f   springyobjects.obj
 0001:00023690       ?RespondToSpringCollision@@YAHPAUTAG_ACTORINSTANCE@@0@Z 00423ad0 f   springyobjects.obj
 0001:000238c0       ?CreateSpringyObject@@YAHPAUTAG_ACTORINSTANCE@@QAMMW4ESpecialType@@MHH_N3@Z 00423d00 f   springyobjects.obj
 0001:000239c0       ?CreateSteppingStoneActorInstanceInfo@@YAHPAUTAG_ACTORINSTANCE@@@Z 00423e00 f   steppingstone.obj
 0001:00023a00       ?RespondToSteppingStoneCollision@@YAHPAUTAG_ACTORINSTANCE@@0@Z 00423e40 f   steppingstone.obj
 0001:00023bb0       ?ApplyBobble@@YAXPAUTAG_ACTORINSTANCE@@MMM@Z 00423ff0 f   steppingstone.obj
 0001:00023c20       ?SinkSteppingStone@@YAXPAUTAG_ACTORINSTANCE@@@Z 00424060 f   steppingstone.obj
 0001:00023cb0       ?RaiseTheSteppingStone@@YAXPAUTAG_ACTORINSTANCE@@@Z 004240f0 f   steppingstone.obj
 0001:00023ce0       ?CreateSteppingStoneObject@@YAXPAUTAG_ACTORINSTANCE@@MQAMMMM@Z 00424120 f   steppingstone.obj
 0001:00023e30       ?SteppingStonePart@@YAXPAUTAG_ACTORINSTANCE@@@Z 00424270 f   steppingstone.obj
 0001:000240a0       ?NegativeSteppingStonePart@@YAXPAUTAG_ACTORINSTANCE@@@Z 004244e0 f   steppingstone.obj
 0001:00024320       ?UpdateSteppingStone@@YAXPAUTAG_ACTORINSTANCE@@@Z 00424760 f   steppingstone.obj
 0001:00024350       ?FindSwingingModelsFromMap@@YAXPAUTAG_ACTORINSTANCELIST@@@Z 00424790 f   swingingobjects.obj
 0001:00024490       ?ProcessSwing@@YAXPAUTAG_ACTORINSTANCE@@@Z 004248d0 f   swingingobjects.obj
 0001:00024520       ?CalculateOrientationOfRope@@YAXQAMPAUTAG_ACTORINSTANCE@@1@Z 00424960 f   swingingobjects.obj
 0001:000245c0       ?CalculateRotationAboutYAxis@@YAXPAUTAG_ACTORINSTANCE@@@Z 00424a00 f   swingingobjects.obj
 0001:00024640       ?ChooseIdleAnimationForMonkey@@YAPAU_TBActorAnimSegment@@PAUTAG_ACTORINSTANCE@@@Z 00424a80 f   swingingobjects.obj
 0001:00024740       ?RespondToSwingerCollision@@YAHPAUTAG_ACTORINSTANCE@@0@Z 00424b80 f   swingingobjects.obj
 0001:000249f0       ?UpdateSwingingObject@@YAXPAUTAG_ACTORINSTANCE@@@Z 00424e30 f   swingingobjects.obj
 0001:00024ae0       ?SwingActor@@YAXPAUTAG_ACTORINSTANCE@@@Z 00424f20 f   swingingobjects.obj
 0001:00024ef0       ?CreateSwingingObject@@YAHPAUTAG_ACTORINSTANCE@@QAMMHPAD@Z 00425330 f   swingingobjects.obj
 0001:000252b0       ?RespondToTiltingObjectCollision@@YAHPAUTAG_ACTORINSTANCE@@0@Z 004256f0 f   tiltingobjects.obj
 0001:000253b0       ?ProcessTilting@@YAXPAUTAG_ACTORINSTANCE@@@Z 004257f0 f   tiltingobjects.obj
 0001:000255a0       ?CreateTiltingObject@@YAXPAUTAG_ACTORINSTANCE@@MMMQAMMM@Z 004259e0 f   tiltingobjects.obj
 0001:000256e0       ?UpdateTiltingObject@@YAXPAUTAG_ACTORINSTANCE@@@Z 00425b20 f   tiltingobjects.obj
 0001:00025790       ?RespondToTransporterCollision@@YAHPAUTAG_ACTORINSTANCE@@0@Z 00425bd0 f   transporter.obj
 0001:00025b30       ?CreateTransporter@@YAHPAUTAG_ACTORINSTANCE@@IPADMMMM_N2II@Z 00425f70 f   transporter.obj
 0001:00025c40       ?CreateTumbleWeedInfo@@YAPAUTAG_TUMBLEWEEDINFO@@PAUTAG_ACTORINSTANCE@@II@Z 00426080 f   tumbleweed.obj
 0001:00025ce0       ?UpdateTumbleweed@@YAXPAUTAG_ACTORINSTANCE@@@Z 00426120 f   tumbleweed.obj
 0001:00025e60       ?RespondToWantedPosterCollision@@YAHPAUTAG_ACTORINSTANCE@@0@Z 004262a0 f   wantedposter.obj
 0001:000260b0       ?UpdateSpecialCaseWantedPoster@@YAHPAUTAG_ACTORINSTANCE@@@Z 004264f0 f   wantedposter.obj
 0001:000262d0       ?CreateWantedPosterInstance@@YAHPAUTAG_ACTORINSTANCE@@HH@Z 00426710 f   wantedposter.obj
 0001:00026370       ??_V@YAXPAX@Z              004267b0 f i water.obj
 0001:00026370       ??3@YAXPAX@Z               004267b0 f i alligator.obj
 0001:00026380       ?PreRespondToWaterCollision@@YAHPAUTAG_ACTORINSTANCE@@0PAUTAG_PRECOLLINFO@@@Z 004267c0 f   water.obj
 0001:00026730       ?FindClosestResetPoint@@YAMPAUTAG_ACTORINSTANCE@@QAM11@Z 00426b70 f   water.obj
 0001:00026870       ?ResetActorAtSideOfWaterWithCartoonScaling@@YAXPAUTAG_ACTORINSTANCE@@QAM1W4EWaterType@@@Z 00426cb0 f   water.obj
 0001:00026a10       ?FreeWaterResetPoints@@YAXPAUTAG_WATERRESETINFO@@@Z 00426e50 f   water.obj
 0001:00026a80       ?CreateWaterResetInfo@@YAPAUTAG_WATERRESETINFO@@H@Z 00426ec0 f   water.obj
 0001:00026ae0       ?AddWaterResetObject@@YAHPAUTAG_WATERRESETINFO@@PAD@Z 00426f20 f   water.obj
 0001:00026ae0       ?AddElectricityPathObject@@YAHPAUTAG_ELECTRICITYPATHINFO@@I@Z 00426f20 f   sparks.obj
 0001:00026b10       ?FinishedFadeFromWater@@YAXPAVTAG_FADE@@@Z 00426f50 f   water.obj
 0001:00026b50       ?ResetFadeToPoint@@YAXPAVTAG_FADE@@@Z 00426f90 f   water.obj
 0001:00026b60       ?UpdateWater@@YAXPAUTAG_ACTORINSTANCE@@@Z 00426fa0 f   water.obj
 0001:00026bc0       ?CalculateResetPoint@@YAXPAUTAG_ACTORINSTANCE@@0@Z 00427000 f   water.obj
 0001:00026f50       ?RespondToWaterCollision@@YAHPAUTAG_ACTORINSTANCE@@0@Z 00427390 f   water.obj
 0001:00026fd0       ?CreateWateryObject@@YAHPAUTAG_ACTORINSTANCE@@PAUTAG_BOUNDINGBOX@@IQAMW4EWaterType@@@Z 00427410 f   water.obj
 0001:00027100       ?CreateZapper@@YAHPAUTAG_ACTORINSTANCE@@W4EZapperType@@@Z 00427540 f   zapper.obj
 0001:000271c0       ?TazToMouseCallback@@YAXPAUTAG_ACTORINSTANCE@@@Z 00427600 f   zapper.obj
 0001:00027200       ?MouseToBallCallback@@YAXPAUTAG_ACTORINSTANCE@@@Z 00427640 f   zapper.obj
 0001:00027200       ?BallStateChangeCallback@@YAXPAUTAG_ACTORINSTANCE@@@Z 00427640 f   zapper.obj
 0001:00027290       ?MouseToTazCallback@@YAXPAUTAG_ACTORINSTANCE@@@Z 004276d0 f   zapper.obj
 0001:00027290       ?BallToMouseCallback@@YAXPAUTAG_ACTORINSTANCE@@@Z 004276d0 f   zapper.obj
 0001:000272d0       ?UpdateZapper@@YAXPAUTAG_ACTORINSTANCE@@@Z 00427710 f   zapper.obj
 0001:00027430       ?CreateAirconUnit@@YAXPAUTAG_ACTORINSTANCE@@@Z 00427870 f   aircon.obj
 0001:000274b0       ?UpdateAirconUnit@@YAXPAUTAG_ACTORINSTANCE@@@Z 004278f0 f   aircon.obj
 0001:000275a0       ?AirconExtraCreateCallback@@YAXPAU_TBExtraSystem@@PAEPAD@Z 004279e0 f   aircon.obj
 0001:00027620       ?AirconExtraUpdateCallback@@YAXPAU_TBExtraSystem@@HPAPAEM@Z 00427a60 f   aircon.obj
 0001:00027790       ?AirconExtraRenderCallback@@YAXPAU_TBExtraSystem@@HPAPAEPAX@Z 00427bd0 f   aircon.obj
 0001:000278a0       ?InitAirconExtraSystem@@YAXXZ 00427ce0 f   aircon.obj
 0001:000278e0       ?CreateSafariArrow@@YAXPAUTAG_ACTORINSTANCE@@@Z 00427d20 f   arrow.obj
 0001:000279d0       ?UpdateSafariArrow@@YAXPAUTAG_ACTORINSTANCE@@@Z 00427e10 f   arrow.obj
 0001:00027c20       ?UpdateCartoonScaling@@YAXPAUTAG_ACTORINSTANCE@@PAUTAG_CARTOONSCALEINFO@@@Z 00428060 f   cartoonscaling.obj
 0001:00027e30       ?CreateCartoonScalingInfo@@YAPAUTAG_CARTOONSCALEINFO@@M@Z 00428270 f   cartoonscaling.obj
 0001:00027e70       ?StunEnemies@TAG_STINKYCHEESE@@AAEXM@Z 004282b0 f   cheesegun.obj
 0001:00027ed0       ?CheeseExtraCreateCallback@@YAXPAU_TBExtraSystem@@PAEPAD@Z 00428310 f   cheesegun.obj
 0001:00027f70       ?CheeseExtraUpdateCallback@@YAXPAU_TBExtraSystem@@HPAPAEM@Z 004283b0 f   cheesegun.obj
 0001:00028060       ?CheeseExtraRenderCallback@@YAXPAU_TBExtraSystem@@HPAPAEPAX@Z 004284a0 f   cheesegun.obj
 0001:00028150       ?Update@TAG_STINKYCHEESE@@AAEXXZ 00428590 f   cheesegun.obj
 0001:00028200       ?InitCheeseExtraSystem@@YAXXZ 00428640 f   cheesegun.obj
 0001:00028240       ?kill@?$LINKEDLIST@VTAG_STINKYCHEESE@@@@QAEXXZ 00428680 f i cheesegun.obj
 0001:000282a0       ?Init@TAG_STINKYCHEESE@@AAEXQAM00M@Z 004286e0 f   cheesegun.obj
 0001:00028380       ?KillStinkyCheese@@YAXXZ   004287c0 f   cheesegun.obj
 0001:00028390       ?UpdateStinkyCheese@@YAXXZ 004287d0 f   cheesegun.obj
 0001:00028490       ?DrawStinkyCheese@@YAXXZ   004288d0 f   cheesegun.obj
 0001:00028560       ?FireCheese@@YAHPAUTAG_ACTORINSTANCE@@@Z 004289a0 f   cheesegun.obj
 0001:000286d0       ?InitialiseCloudBank@@YAXXZ 00428b10 f   clouds.obj
 0001:000286f0       ?AddEntryToCloudBank@@YAPAUTAG_SKYCLOUD@@XZ 00428b30 f   clouds.obj
 0001:00028760       ?DeleteEntryFromCloudBank@@YAHPAUTAG_SKYCLOUD@@@Z 00428ba0 f   clouds.obj
 0001:000287f0       ?UpdateCloudsInSky@@YAXXZ  00428c30 f   clouds.obj
 0001:00028990       ?FreeCloudBank@@YAXXZ      00428dd0 f   clouds.obj
 0001:00028a10       ?PrepCloudBank@@YAXXZ      00428e50 f   clouds.obj
 0001:00028a40       ?DrawCloudBankBackground@@YAXXZ 00428e80 f   clouds.obj
 0001:00028ad0       ?DrawCloudBankForeground@@YAXXZ 00428f10 f   clouds.obj
 0001:00028b10       ?DestroyInjuryStars@@YAXPAUTAG_ACTORINSTANCE@@@Z 00428f50 f   clouds.obj
 0001:00028b70       ?CreateCloudsInSky@@YAHQAMHMHHIPAUTAG_ACTORINSTANCE@@PAU_TBActorNodeInstance@@0@Z 00428fb0 f   clouds.obj
 0001:00029040       ?CreateInjuryStars@@YAXHPAUTAG_ACTORINSTANCE@@PADQAM2@Z 00429480 f   clouds.obj
 0001:00029090       ?CreateInjuryStars@@YAXQAUTAG_ACTORINSTANCE@@M@Z 004294d0 f   clouds.obj
 0001:00029110       ?SetupCostume@@YAHPAUTAG_ACTORINSTANCE@@D@Z 00429550 f   costumes.obj
 0001:00029c40       ?RemoveCostume@@YAHPAUTAG_ACTORINSTANCE@@@Z 0042a080 f   costumes.obj
 0001:00029e40       ?DoTazanCostumeMove@@YAXPAUTAG_ACTORINSTANCE@@@Z 0042a280 f   costumes.obj
 0001:0002a0c0       ?UpdateLoseCostumeEffect@@YAPAUTAG_LOSECOSTUMEINFO@@PAUTAG_ACTORINSTANCE@@PAU1@@Z 0042a500 f   costumes.obj
 0001:0002a270       ?DrawLoseCostumeEffect@@YAXPAUTAG_ACTORINSTANCELIST@@@Z 0042a6b0 f   costumes.obj
 0001:0002a450       ?GetNaked@@YAHPAUTAG_ACTORINSTANCE@@W4EScene@@@Z 0042a890 f   costumes.obj
 0001:0002a640       ?InitialiseNakedness@@YAXW4EScene@@@Z 0042aa80 f   costumes.obj
 0001:0002aae0       ?SetupLevelCostume@@YAXQAUTAG_ACTORINSTANCE@@@Z 0042af20 f   costumes.obj
 0001:0002ac80       ?CreateLoseCostumeEffect@@YAPAUTAG_LOSECOSTUMEINFO@@PAUTAG_ACTORINSTANCE@@PADM@Z 0042b0c0 f   costumes.obj
 0001:0002ad00       ??D@YA?AUTAG_COLOUR@@ABU0@M@Z 0042b140 f i decals.obj
 0001:0002ad90       ?DrawDecal@@YAXPAUTAG_DECAL@@@Z 0042b1d0 f   decals.obj
 0001:0002ae90       ?CreateDecal@@YAHPAUTAG_SHADOW@@PAU_TBTexture@@MMEEEEHMM@Z 0042b2d0 f   decals.obj
 0001:0002b0f0       ?CreateFloorDecal@@YAHPAU_TBTexture@@QAMMMMABUTAG_COLOUR@@H21MM@Z 0042b530 f   decals.obj
 0001:0002b4b0       ?DeleteAllDecals@@YAXXZ    0042b8f0 f   decals.obj
 0001:0002b580       ?UpdateDecals@@YAXXZ       0042b9c0 f   decals.obj
 0001:0002b990       ?DrawAllDecals@@YAXXZ      0042bdd0 f   decals.obj
 0001:0002ba40       ??0TAG_EATING@@QAE@XZ      0042be80 f   eating.obj
 0001:0002ba60       ??1TAG_EATING@@QAE@XZ      0042bea0 f   eating.obj
 0001:0002bab0       ?AddItem@TAG_EATING@@QAEXPAU_TBActorInstance@@@Z 0042bef0 f   eating.obj
 0001:0002bb30       ?Update@TAG_EATING@@QAEXPAUTAG_ACTORINSTANCE@@@Z 0042bf70 f   eating.obj
 0001:0002bde0       ?Draw@TAG_EATING@@QAEXXZ   0042c220 f   eating.obj
 0001:0002be30       ?InitEffectsList@@YAXXZ    0042c270 f   effects.obj
 0001:0002be50       ?AddEntryToEffectsList@@YAXQAM0MI@Z 0042c290 f   effects.obj
 0001:0002bee0       ?UpdateEffectsList@@YAXPAUTAG_EFFECTSLIST@@@Z 0042c320 f   effects.obj
 0001:0002bfa0       ?FreeAllEffectsFromList@@YAXXZ 0042c3e0 f   effects.obj
 0001:0002bff0       ?DrawInstance@TAG_MIRROR@@AAEXPAUTAG_ACTORINSTANCE@@I@Z 0042c430 f   effects.obj
 0001:0002c420       ?DrawAllMirrors@@YAXPAUTAG_ACTORINSTANCE@@@Z 0042c860 f   effects.obj
 0001:0002c490       ?FreeMirror@@YAXPAUTAG_ACTORINSTANCE@@@Z 0042c8d0 f   effects.obj
 0001:0002c520       ??0TAG_MIRROR@@QAE@PAUTAG_ACTORINSTANCE@@@Z 0042c960 f   effects.obj
 0001:0002c5c0       ?FreeAllMirrors@@YAXXZ     0042ca00 f   effects.obj
 0001:0002c690       ?UpdateHighVoltageObject@@YAXPAUTAG_ACTORINSTANCE@@@Z 0042cad0 f   electrocution.obj
 0001:0002c6e0       ?FinishedFadeFromBallPuzzle@@YAXPAVTAG_FADE@@@Z 0042cb20 f   electrocution.obj
 0001:0002c8c0       ?RespondToHighVoltageCollision@@YAHPAUTAG_ACTORINSTANCE@@0@Z 0042cd00 f   electrocution.obj
 0001:0002ce80       ?UpdateElectrocutionEffect@@YAXPAUTAG_ACTORINSTANCE@@@Z 0042d2c0 f   electrocution.obj
 0001:0002cf30       ?CreateHighVoltageObject@@YAHPAUTAG_ACTORINSTANCE@@HD@Z 0042d370 f   electrocution.obj
 0001:0002d020       ?SetupEnvMapSpecial@@YAHPAUTAG_ENVMAP@@MPAD11MM@Z 0042d460 f   envmap.obj
 0001:0002d2a0       ?PrepareEnvMap@@YAXPAUTAG_ENVMAP@@QAM@Z 0042d6e0 f   envmap.obj
 0001:0002d2c0       ?RenderEnvMap@@YAXPAUTAG_ENVMAP@@@Z 0042d700 f   envmap.obj
 0001:0002d4c0       ?StartCartoonExplosion@@YAXQAMMMH@Z 0042d900 f   explode.obj
 0001:0002d590       ?ExplosionExtraCreateCallback@@YAXPAU_TBExtraSystem@@PAEPAD@Z 0042d9d0 f   explode.obj
 0001:0002d6d0       ?ExplosionExtraDeleteCallback@@YAHPAU_TBExtraSystem@@PAE@Z 0042db10 f   explode.obj
 0001:0002d700       ?ExplosionExtraUpdateCallback@@YAXPAU_TBExtraSystem@@HPAPAEM@Z 0042db40 f   explode.obj
 0001:0002d7d0       ?ExplosionExtraRenderCallback@@YAXPAU_TBExtraSystem@@HPAPAEPAX@Z 0042dc10 f   explode.obj
 0001:0002d880       ?StartExplosion@@YAXQAMMMPADIH@Z 0042dcc0 f   explode.obj
 0001:0002d8c0       ?InitExplosionExtraSystem@@YAXXZ 0042dd00 f   explode.obj
 0001:0002d900       ?DrawFade@TAG_FADE@@QAEXXZ 0042dd40 f   fade.obj
 0001:0002dab0       ?FinishedFade@TAG_FADE@@QAEHXZ 0042def0 f   fade.obj
 0001:0002dae0       ?SetFadeState@TAG_FADE@@AAE_NXZ 0042df20 f   fade.obj
 0001:0002dea0       ?GetFadeState@TAG_FADE@@QAEHXZ 0042e2e0 f   fade.obj
 0001:0002deb0       ?GetPlayer@TAG_FADE@@QAEPAUTAG_ACTORINSTANCE@@XZ 0042e2f0 f   fade.obj
 0001:0002dec0       ?GetFadeValue@TAG_FADE@@QAEMXZ 0042e300 f   fade.obj
 0001:0002ded0       ?GetFadeSpeed@TAG_FADE@@QAEMXZ 0042e310 f   fade.obj
 0001:0002dee0       ?GetSceneToLoad@TAG_FADE@@QAEHXZ 0042e320 f   fade.obj
 0001:0002def0       ?Lock@TAG_FADE@@QAE_NXZ    0042e330 f   fade.obj
 0001:0002df10       ?Unlock@TAG_FADE@@QAEXXZ   0042e350 f   fade.obj
 0001:0002df20       ?RemoveSecureFade@TAG_FADE@@QAE_NXZ 0042e360 f   fade.obj
 0001:0002df30       ?InitFade@TAG_FADE@@QAEXXZ 0042e370 f   fade.obj
 0001:0002e590       ?StartFadeDown@TAG_FADE@@QAE_NW4EFadeTypes@@M_N@Z 0042e9d0 f   fade.obj
 0001:0002e630       ?SetFadeUp@TAG_FADE@@QAE_NXZ 0042ea70 f   fade.obj
 0001:0002e6c0       ?SetFadeDown@TAG_FADE@@QAE_NXZ 0042eb00 f   fade.obj
 0001:0002e750       ?StartFadeUp@TAG_FADE@@QAE_NW4EFadeTypes@@M_N@Z 0042eb90 f   fade.obj
 0001:0002e7e0       ?FadeAndChangeScene@TAG_FADE@@QAE_NPAUTAG_GAMESTATUS@@W4EFadeTypes@@HMI_N@Z 0042ec20 f   fade.obj
 0001:0002e940       ?SetSwipeDirection@TAG_FADE@@QAE_NMM@Z 0042ed80 f   fade.obj
 0001:0002e9b0       ?SetCircleFadeTo@TAG_FADE@@QAE_NMM@Z 0042edf0 f   fade.obj
 0001:0002ea30       ?SetFadeUpFinishedCallback@TAG_FADE@@QAE_NP6AXPAV1@@Z@Z 0042ee70 f   fade.obj
 0001:0002ea90       ?SetFadeDownFinishedCallback@TAG_FADE@@QAE_NP6AXPAV1@@Z@Z 0042eed0 f   fade.obj
 0001:0002eaf0       ?SetFadeTint@TAG_FADE@@QAE_NEEEE@Z 0042ef30 f   fade.obj
 0001:0002ec00       ?SetPlayer@TAG_FADE@@QAE_NPAUTAG_ACTORINSTANCE@@@Z 0042f040 f   fade.obj
 0001:0002ec60       ?SetSceneToLoad@TAG_FADE@@QAE_NH@Z 0042f0a0 f   fade.obj
 0001:0002ecc0       ?SetGameStatus@TAG_FADE@@QAE_NPAUTAG_GAMESTATUS@@@Z 0042f100 f   fade.obj
 0001:0002ed20       ?LevelCompleteOnFadeDown@TAG_FADE@@QAE_N_N@Z 0042f160 f   fade.obj
 0001:0002ed80       ?FadeUpOnCompletion@TAG_FADE@@QAE_N_N@Z 0042f1c0 f   fade.obj
 0001:0002ede0       ?SetFadeStatus@TAG_FADE@@QAE_NW4EFadeStates@@@Z 0042f220 f   fade.obj
 0001:0002ee40       ?UpdateFade@TAG_FADE@@QAEXXZ 0042f280 f   fade.obj
 0001:0002f090       ?CreateFireParticleEffect@@YAXPAUTAG_ACTORINSTANCE@@@Z 0042f4d0 f   fire.obj
 0001:0002f260       ?CreateFireExtrasVertexList@@YAXPAUTAG_FIREEXTRAS@@@Z 0042f6a0 f   fire.obj
 0001:0002f350       ?FireExtraCreateCallback@@YAXPAU_TBExtraSystem@@PAEPAD@Z 0042f790 f   fire.obj
 0001:0002f560       ?FireExtraUpdateCallback@@YAXPAU_TBExtraSystem@@HPAPAEM@Z 0042f9a0 f   fire.obj
 0001:0002f9a0       ?TBPrimVertexCopy@@YAXPAU_TBPrimVertex@@0@Z 0042fde0 f   fire.obj
 0001:0002fa40       ?CreateFireInstance@@YAHPAUTAG_ACTORINSTANCE@@M@Z 0042fe80 f   fire.obj
 0001:0002fb40       ?UpdateFireInstances@@YAXPAUTAG_ACTORINSTANCE@@@Z 0042ff80 f   fire.obj
 0001:0002fb60       ?FireExtraRenderCallback@@YAXPAU_TBExtraSystem@@HPAPAEPAX@Z 0042ffa0 f   fire.obj
 0001:0002fcf0       ?InitFireExtraSystem@@YAXXZ 00430130 f   fire.obj
 0001:0002fd30       ?bmRandfSigned@@YAMXZ      00430170 f i Fireball.obj
 0001:0002fd70       ?visible@TAG_BOUNDINGBOX@@QBE?AW4BBVisibility@@QAY03$$CBM@Z 004301b0 f i Fireball.obj
 0001:0002fdb0       ??0TAG_FBPARTICLE@@QAE@XZ  004301f0 f i Fireball.obj
 0001:0002fdd0       ?init@TAG_FBPARTICLE@@QAEXQAVTAG_FIREBALL@@QAM1M@Z 00430210 f   Fireball.obj
 0001:0002feb0       ?update@TAG_FBPARTICLE@@QAEXAAV?$LOOPARRAY@VTAG_FBPARTICLE@@$0GE@@@@Z 004302f0 f   Fireball.obj
 0001:00030230       ?draw@TAG_FBPARTICLE@@QAEXQAU_TBPrimVertex2D@@QAH@Z 00430670 f   Fireball.obj
 0001:000302e0       ?draw@TAG_FIREBALL@@QAEXXZ 00430720 f   Fireball.obj
 0001:000303e0       ?Fireball_init@@YAXXZ      00430820 f   Fireball.obj
 0001:00030400       ?Fireball_explosionSupportEffects@@YAXQAMI@Z 00430840 f   Fireball.obj
 0001:00030460       ?discardOldest@?$LOOPARRAY@VTAG_FBPARTICLE@@$0GE@@@QAEXI@Z 004308a0 f i Fireball.obj
 0001:000304c0       ?discardOldest@?$LOOPARRAY@VTAG_FIREBALL@@$07@@QAEXI@Z 00430900 f i Fireball.obj
 0001:00030520       ??0FIREBALLINFO@@QAE@XZ    00430960 f i Fireball.obj
 0001:000305c0       ?init@TAG_FIREBALL@@QAEXXZ 00430a00 f   Fireball.obj
 0001:00030660       ?Fireball_shutdown@@YAXXZ  00430aa0 f   Fireball.obj
 0001:00030690       ?getNew@?$LOOPARRAY@VTAG_FBPARTICLE@@$0GE@@@QAEPAVTAG_FBPARTICLE@@I@Z 00430ad0 f i Fireball.obj
 0001:00030730       ?getNew@?$LOOPARRAY@VTAG_FIREBALL@@$07@@QAEPAVTAG_FIREBALL@@I@Z 00430b70 f i Fireball.obj
 0001:000307e0       ?update@TAG_FIREBALL@@QAEXXZ 00430c20 f   Fireball.obj
 0001:00030bb0       ?Fireball_update@@YAXXZ    00430ff0 f   Fireball.obj
 0001:00030d90       ?Fireball_draw@@YAXXZ      004311d0 f   Fireball.obj
 0001:00030ec0       ?Fireball_create@@YAXABUFIREBALLINFO@@@Z 00431300 f   Fireball.obj
 0001:00031110       ?Fireball_create@@YAXQAM0MMMQ6AXQAVTAG_FIREBALL@@J@ZJABUTAG_COLOUR@@333@Z 00431550 f   Fireball.obj
 0001:000311d0       ?Fireball_create@@YAXQAMMMMMMMQ6AXQAVTAG_FIREBALL@@J@ZJMABUTAG_COLOUR@@333@Z 00431610 f   Fireball.obj
 0001:000312f0       ?Fireball_create@@YAXMQAM0MMQ6AXQAVTAG_FIREBALL@@J@ZJABUTAG_COLOUR@@333@Z 00431730 f   Fireball.obj
 0001:000313f0       ?Fireball_normalExplosion@@YAXQAMMABUTAG_COLOUR@@111I@Z 00431830 f   Fireball.obj
 0001:00031470       ?Fireball_normalExplosion@@YAXQAUTAG_ACTORINSTANCE@@ABUTAG_COLOUR@@111I@Z 004318b0 f   Fireball.obj
 0001:000314b0       ?Fireball_flatExplosion@@YAXQAMMMABUTAG_COLOUR@@111I@Z 004318f0 f   Fireball.obj
 0001:00031570       ?Fireball_flatExplosion@@YAXQAUTAG_ACTORINSTANCE@@ABUTAG_COLOUR@@111I@Z 004319b0 f   Fireball.obj
 0001:000315c0       ?Fireball_cannonExplosion@@YAXQAUTAG_ACTORINSTANCE@@@Z 00431a00 f   Fireball.obj
 0001:00031770       ?Fireball_cementMixerExplosion@@YAXQAUTAG_ACTORINSTANCE@@@Z 00431bb0 f   Fireball.obj
 0001:00031920       ??0?$LOOPARRAY@VTAG_FIREBALL@@$07@@QAE@QBD@Z 00431d60 f i Fireball.obj
 0001:000319b0       ?CreateFireworkBurst@@YAXQAMW4EFirework@@HHHIM@Z 00431df0 f   fireworks.obj
 0001:00031b50       ?FireworksExtraCreateCallback@@YAXPAU_TBExtraSystem@@PAEPAD@Z 00431f90 f   fireworks.obj
 0001:00032030       ?FireworksExtraUpdateCallback@@YAXPAU_TBExtraSystem@@HPAPAEM@Z 00432470 f   fireworks.obj
 0001:00032400       ?FireworksExtraRenderCallback@@YAXPAU_TBExtraSystem@@HPAPAEPAX@Z 00432840 f   fireworks.obj
 0001:000327c0       ?InitFireworksExtraSystem@@YAXI@Z 00432c00 f   fireworks.obj
 0001:00032800       ??0TAG_FLYGROUP@@QAE@QAMUTAG_COLOUR@@HW4_FlyType@@@Z 00432c40 f   Flies.obj
 0001:00032a50       ?draw@TAG_FLYGROUP@@QAEXQBUTAG_CAMERAINFO@@@Z 00432e90 f   Flies.obj
 0001:00032b00       ?update@TAG_FLYGROUP@@QAEXXZ 00432f40 f   Flies.obj
 0001:00032d00       ??0?$LINKEDLIST@UTAG_LASERBEAM@@@@QAE@QAD@Z 00433140 f i laser.obj
 0001:00032d00       ??0?$LINKEDLIST@UTAG_FLYGROUP@@@@QAE@QAD@Z 00433140 f i Flies.obj
 0001:00032d00       ??0?$LINKEDLIST@VTAG_SPINPAD@@@@QAE@QAD@Z 00433140 f i securitybox.obj
 0001:00032d00       ??0?$LINKEDLIST@VTAG_BANANASKIN@@@@QAE@QAD@Z 00433140 f i apes.obj
 0001:00032d00       ??0?$LINKEDLIST@UTAG_DECAL@@@@QAE@QAD@Z 00433140 f i decals.obj
 0001:00032d00       ??0?$LINKEDLIST@VTAG_SECURITYBOX@@@@QAE@QAD@Z 00433140 f i securitybox.obj
 0001:00032d00       ??0?$LINKEDLIST@UTAG_SUBTITLE@@@@QAE@QAD@Z 00433140 f i subtitle.obj
 0001:00032d40       ?kill@?$LINKEDLIST@UTAG_FLYGROUP@@@@QAEXXZ 00433180 f i Flies.obj
 0001:00032db0       ?Flies_addGroup@@YAXQAMUTAG_COLOUR@@HW4_FlyType@@@Z 004331f0 f   Flies.obj
 0001:00032e30       ?Flies_draw@@YAXQBUTAG_CAMERAINFO@@@Z 00433270 f   Flies.obj
 0001:00032ee0       ?Flies_update@@YAXXZ       00433320 f   Flies.obj
 0001:00032f20       ?Flies_shutdown@@YAXXZ     00433360 f   Flies.obj
 0001:00032f30       ?CreateFlockStructure@@YAPAUTAG_FLOCKINGINFO@@H@Z 00433370 f   flocking.obj
 0001:00033010       ?PrepFlockers@@YAXPAUTAG_ACTORINSTANCELIST@@@Z 00433450 f   flocking.obj
 0001:00033090       ?UpdateFlockers@@YAXPAUTAG_ACTORINSTANCE@@@Z 004334d0 f   flocking.obj
 0001:00033790       ?DrawFlockers@@YAXPAUTAG_ACTORINSTANCELIST@@@Z 00433bd0 f   flocking.obj
 0001:00033890       ?DrawFlockers2@@YAXPAUTAG_ACTORINSTANCELIST@@@Z 00433cd0 f   flocking.obj
 0001:000339a0       ?CheckForFlockerCollidingWithTazSpitObject@@YAXPAUTAG_DEBRIS@@@Z 00433de0 f   flocking.obj
 0001:00033cc0       ?CreateFlockers@@YAHPAUTAG_ACTORINSTANCE@@PAUTAG_BOUNDINGBOX@@PADMHII@Z 00434100 f   flocking.obj
 0001:000341a0       ?Glare_drawDirectional@@YAMABUTAG_VEC@@ABUTAG_COLOUR@@M@Z 004345e0 f   Glare.obj
 0001:000343f0       ?InitialiseGlowAroundPlinth@@YAXXZ 00434830 f   glowaroundplinth.obj
 0001:00034410       ?StartPoliceBoxGlowEffect@@YAXPAUTAG_ACTORINSTANCE@@@Z 00434850 f   glowaroundplinth.obj
 0001:00034550       ?CreateGlowAroundPlinthInZooHub@@YAPAUTAG_PLINTHGLOWINFO@@XZ 00434990 f   glowaroundplinth.obj
 0001:000347d0       ?CreateGlowAroundSecretItem@@YAPAUTAG_PLINTHGLOWINFO@@PAX@Z 00434c10 f   glowaroundplinth.obj
 0001:000348f0       ?CreateGlowAroundInstance@@YAPAUTAG_PLINTHGLOWINFO@@PAUTAG_ACTORINSTANCE@@M@Z 00434d30 f   glowaroundplinth.obj
 0001:00034a10       ?UpdateGlowAroundPlinth@@YAXPAUTAG_PLINTHGLOWINFO@@@Z 00434e50 f   glowaroundplinth.obj
 0001:00034f90       ?UpdatePlinthGlowAroundActorInstance@@YAXPAUTAG_PLINTHGLOWINFO@@@Z 004353d0 f   glowaroundplinth.obj
 0001:00035150       ?DrawGlowAroundPlinth@@YAXPAUTAG_PLINTHGLOWINFO@@@Z 00435590 f   glowaroundplinth.obj
 0001:000353f0       ?EndPoliceBoxGlowEffect@@YAXXZ 00435830 f   glowaroundplinth.obj
 0001:00035410       ?FreeGlowAroundPlinth@@YAXPAUTAG_PLINTHGLOWINFO@@@Z 00435850 f   glowaroundplinth.obj
 0001:00035430       ?PlinthGlowExtraCreateCallback@@YAXPAU_TBExtraSystem@@PAEPAD@Z 00435870 f   glowaroundplinth.obj
 0001:000354a0       ?PlinthGlowExtraUpdateCallback@@YAXPAU_TBExtraSystem@@HPAPAEM@Z 004358e0 f   glowaroundplinth.obj
 0001:00035560       ?PlinthGlowExtraRenderCallback@@YAXPAU_TBExtraSystem@@HPAPAEPAX@Z 004359a0 f   glowaroundplinth.obj
 0001:00035670       ?InitPlinthGlowExtraSystem@@YAXXZ 00435ab0 f   glowaroundplinth.obj
 0001:000356b0       ?CreateHaarObject@@YAHPAUTAG_ACTORINSTANCE@@MMMM@Z 00435af0 f   haar.obj
 0001:00035d30       ?FreeHaarObject@@YAXPAUTAG_ACTORINSTANCE@@@Z 00436170 f   haar.obj
 0001:00035d60       ?HaarExtraCreateCallback@@YAXPAU_TBExtraSystem@@PAEPAD@Z 004361a0 f   haar.obj
 0001:00036330       ?HaarExtraUpdateCallback@@YAXPAU_TBExtraSystem@@HPAPAEM@Z 00436770 f   haar.obj
 0001:000363d0       ?HaarExtraRenderCallback@@YAXPAU_TBExtraSystem@@HPAPAEPAX@Z 00436810 f   haar.obj
 0001:000364c0       ?InitHaarExtraSystem@@YAXXZ 00436900 f   haar.obj
 0001:00036500       ?CreateHaloObject@@YAHPAUTAG_ACTORINSTANCE@@MIIHHH@Z 00436940 f   halo.obj
 0001:000366a0       ?UpdateHaloObject@@YAXPAUTAG_ACTORINSTANCE@@@Z 00436ae0 f   halo.obj
 0001:00036840       ?DrawHaloObject@@YAXPAUTAG_ACTORINSTANCELIST@@@Z 00436c80 f   halo.obj
 0001:00036a00       ?FreeHaloObjectMemory@@YAXPAUTAG_ACTORINSTANCE@@@Z 00436e40 f   halo.obj
 0001:00036a80       ?bmVectorCross@@YAXQAMQBM1@Z 00436ec0 f i holysmoke.obj
 0001:00036ac0       ?InitSkidSmoke@@YAXQAM0MMM@Z 00436f00 f   holysmoke.obj
 0001:00036bc0       ?InitTazSpinSmoke@@YAXQAM0MMM@Z 00437000 f   holysmoke.obj
 0001:00036df0       ?InitSpinSmoke@@YAXQAM0MMM@Z 00437230 f   holysmoke.obj
 0001:00036f20       ?InitFallSmoke@@YAXQAM0MMM@Z 00437360 f   holysmoke.obj
 0001:00037070       ?InitExplosionSmoke@@YAXQAM0MMM@Z 004374b0 f   holysmoke.obj
 0001:000371f0       ?InitFingerSmoke@@YAXQAM0MMM@Z 00437630 f   holysmoke.obj
 0001:00037330       ?UpdateImpactClouds@@YAHPAUTAG_SMOKEEXTRAINFO@@@Z 00437770 f   holysmoke.obj
 0001:00037450       ?UpdateExplosionSmoke@@YAHPAUTAG_SMOKEEXTRAINFO@@@Z 00437890 f   holysmoke.obj
 0001:00037540       ?UpdateFingerSmoke@@YAHPAUTAG_SMOKEEXTRAINFO@@@Z 00437980 f   holysmoke.obj
 0001:000376d0       ??0FUSESMOKESECTION@@QAE@XZ 00437b10 f i holysmoke.obj
 0001:000376e0       ?CreateImpactClouds@@YAHQAM00MMMI@Z 00437b20 f   holysmoke.obj
 0001:000378a0       ?DrawSmokeAtNodeInstance@@YAXPAUTAG_ACTORINSTANCE@@PADIIM@Z 00437ce0 f   holysmoke.obj
 0001:00037910       ??0?$LOOPARRAY@UFUSESMOKE@@$04@@QAE@QBD@Z 00437d50 f i holysmoke.obj
 0001:00037980       ?CreateLaser@@YAHDPAD00MPAVCPMNode@@1@Z 00437dc0 f   laser.obj
 0001:00037a50       ?DrawLaser@@YAXPAUTAG_ACTORINSTANCELIST@@@Z 00437e90 f   laser.obj
 0001:00037cd0       ?UpdateLaserBeams@@YAXXZ   00438110 f   laser.obj
 0001:00037d70       ?DrawLaserBeams@@YAXXZ     004381b0 f   laser.obj
 0001:00037ea0       ?DeleteLaserBeams@@YAXXZ   004382e0 f   laser.obj
 0001:00037fc0       ?CreateLightningNodePoints@@YAHPAUTAG_LIGHTNINGINFO@@PAUTAG_ACTORINSTANCE@@@Z 00438400 f   lightning.obj
 0001:00038430       ?DrawLightning@@YAXPAUTAG_ACTORINSTANCELIST@@@Z 00438870 f   lightning.obj
 0001:000386d0       ?CreateLightning@@YAHPAD0PAVCPMNode@@1@Z 00438b10 f   lightning.obj
 0001:000387d0       ?UpdateLightning@@YAXPAUTAG_ACTORINSTANCE@@0@Z 00438c10 f   lightning.obj
 0001:00038890       ?InitCartoonLight@@YAXPAD@Z 00438cd0 f   lights.obj
 0001:000389b0       ?UpdateCartoonLight@@YAXQBMABUTAG_COLOUR@@@Z 00438df0 f   lights.obj
 0001:00038a20       ?SetLightRamp@@YAXW4_LightRamp@@@Z 00438e60 f   lights.obj
 0001:00038a30       ?DestroyCartoonLight@@YAXXZ 00438e70 f   lights.obj
 0001:00038a40       ?CreateMirrorballLights@@YAPAUTAG_MIRRORBALLINFO@@XZ 00438e80 f   mirrorball.obj
 0001:00038c70       ?UpdateMirrorball@@YAXPAUTAG_ACTORINSTANCE@@@Z 004390b0 f   mirrorball.obj
 0001:00038de0       ?DrawMirrorball@@YAHPAUTAG_ACTORINSTANCELIST@@@Z 00439220 f   mirrorball.obj
 0001:00038fb0       ?bmFMod@@YAMMM@Z           004393f0 f i MonitorFX.obj
 0001:00039030       ?MonitorFX_drawInstanceList@@YAXQAUTAG_ACTORINSTANCELIST@@@Z 00439470 f   MonitorFX.obj
 0001:00039080       ?init@TAG_MFXFLYINGOBJECTS@@QAEXMMMMMMM@Z 004394c0 f   MonitorFX.obj
 0001:00039200       ?draw@TAG_MFXFLYINGOBJECTS@@UAEXXZ 00439640 f   MonitorFX.obj
 0001:000393e0       ?update@TAG_MFXFLYINGOBJECTS@@UAEXXZ 00439820 f   MonitorFX.obj
 0001:00039650       ?init@TAG_MFXFLYINGWINDOWS@@QAEXMMMMMMM@Z 00439a90 f   MonitorFX.obj
 0001:00039880       ?update@TAG_MFXFLYINGWINDOWS@@UAEXXZ 00439cc0 f   MonitorFX.obj
 0001:00039c70       ?draw@TAG_MFXFLYINGWINDOWS@@UAEXXZ 0043a0b0 f   MonitorFX.obj
 0001:00039e40       ?init@TAG_MFXMYSTIFY@@QAEXMMMMMMM@Z 0043a280 f   MonitorFX.obj
 0001:0003a630       ?update@TAG_MFXMYSTIFY@@UAEXXZ 0043aa70 f   MonitorFX.obj
 0001:0003a990       ?draw@TAG_MFXMYSTIFY@@UAEXXZ 0043add0 f   MonitorFX.obj
 0001:0003ab80       ?init@TAG_MFXMARQUEE@@QAEXMMMMMMM@Z 0043afc0 f   MonitorFX.obj
 0001:0003aef0       ?update@TAG_MFXMARQUEE@@UAEXXZ 0043b330 f   MonitorFX.obj
 0001:0003afd0       ?draw@TAG_MFXMARQUEE@@UAEXXZ 0043b410 f   MonitorFX.obj
 0001:0003b090       ?init@TAG_MFXWATCH@@QAEXQAUTAG_ACTORINSTANCE@@H@Z 0043b4d0 f   MonitorFX.obj
 0001:0003b120       ?draw@TAG_MFXWATCH@@UAEXXZ 0043b560 f   MonitorFX.obj
 0001:0003b500       ?update@TAG_MFXWATCH@@UAEXXZ 0043b940 f   MonitorFX.obj
 0001:0003b6f0       ?shutdown@TAG_MFXWATCH@@QAEXXZ 0043bb30 f   MonitorFX.obj
 0001:0003b700       ??0TAG_MFXFLYINGOBJECTS@@QAE@MMMMMMM@Z 0043bb40 f i MonitorFX.obj
 0001:0003b740       ??0TAG_MFXFLYINGWINDOWS@@QAE@MMMMMMM@Z 0043bb80 f i MonitorFX.obj
 0001:0003b780       ??0TAG_MFXMYSTIFY@@QAE@MMMMMMM@Z 0043bbc0 f i MonitorFX.obj
 0001:0003b7c0       ??0TAG_MFXMARQUEE@@QAE@MMMMMMM@Z 0043bc00 f i MonitorFX.obj
 0001:0003b800       ?CreateMonitorObject@@YAHQAUTAG_ACTORINSTANCE@@@Z 0043bc40 f   MonitorFX.obj
 0001:0003bb40       ?MonitorFX_init@@YAXXZ     0043bf80 f   MonitorFX.obj
 0001:0003bb70       ?MonitorFX_drawLevelMonitors@@YAXXZ 0043bfb0 f   MonitorFX.obj
 0001:0003bc30       ?MonitorFX_addLevelMonitor@@YAXMMMMM@Z 0043c070 f   MonitorFX.obj
 0001:0003be40       ?MonitorFX_deleteLevelMonitors@@YAXXZ 0043c280 f   MonitorFX.obj
 0001:0003be50       ??A?$LINKEDLIST@UTAG_MONITOREFFECT@@@@QAEAAUTAG_MONITOREFFECT@@H@Z 0043c290 f i MonitorFX.obj
 0001:0003bf10       ?MonitorFX_updateLevelMonitors@@YAXXZ 0043c350 f   MonitorFX.obj
 0001:0003bfd0       ?UpdatePhoneBoxEffect@@YAXPAUTAG_ACTORINSTANCE@@@Z 0043c410 f   phoneboxeffect.obj
 0001:0003c0d0       ?PhoneBoxExtraCreateCallback@@YAXPAU_TBExtraSystem@@PAEPAD@Z 0043c510 f   phoneboxeffect.obj
 0001:0003c260       ?PhoneBoxExtraUpdateCallback@@YAXPAU_TBExtraSystem@@HPAPAEM@Z 0043c6a0 f   phoneboxeffect.obj
 0001:0003c440       ?PhoneBoxExtraRenderCallback@@YAXPAU_TBExtraSystem@@HPAPAEPAX@Z 0043c880 f   phoneboxeffect.obj
 0001:0003c560       ?InitPhoneBoxExtraSystem@@YAXXZ 0043c9a0 f   phoneboxeffect.obj
 0001:0003c5a0       ?CreatePolyLevelCopyOfActorInstance@@YAPAUTAG_ACTORINSTANCE@@PAUTAG_COLLISIONCACHE@@PAUTAG_POLYEFFECTSLIST@@PAU1@QAMHPAU_TBTexture@@I@Z 0043c9e0 f   polyeffects.obj
 0001:0003ce00       ?InitPolyEffectsList@@YAXPAUTAG_POLYEFFECTSLIST@@@Z 0043d240 f   polyeffects.obj
 0001:0003ce20       ?RemoveObjectFromPolyEffectsList@@YAHPAUTAG_POLYEFFECTSLIST@@PAUTAG_POLYEFFECTSINFO@@@Z 0043d260 f   polyeffects.obj
 0001:0003ce90       ?FreeAllPolyEffectsFromList@@YAXPAUTAG_POLYEFFECTSLIST@@I@Z 0043d2d0 f   polyeffects.obj
 0001:0003cf00       ?DrawPolyEffects@@YAXPAUTAG_POLYEFFECTSLIST@@@Z 0043d340 f   polyeffects.obj
 0001:0003d2d0       ?UpdatePolyEffects@@YAXPAUTAG_POLYEFFECTSLIST@@@Z 0043d710 f   polyeffects.obj
 0001:0003da40       ?InitPrecipitationList@@YAXXZ 0043de80 f   precipitation.obj
 0001:0003da60       ?AddEntryToPrecipitationList@@YAXQAM0HMMMIM@Z 0043dea0 f   precipitation.obj
 0001:0003db40       ?CreatePrecipitation@@YAHQAM0HMMMIMPAUTAG_PRECIPITATIONLISTENTRY@@@Z 0043df80 f   precipitation.obj
 0001:0003ddf0       ?PrecipitationExtraCreateCallback@@YAXPAU_TBExtraSystem@@PAEPAD@Z 0043e230 f   precipitation.obj
 0001:0003dfe0       ?UpdateSnow@@YAXPAUTAG_PRECIPITATION@@@Z 0043e420 f   precipitation.obj
 0001:0003e090       ?UpdateRain@@YAXPAUTAG_PRECIPITATION@@@Z 0043e4d0 f   precipitation.obj
 0001:0003e120       ?PrecipitationExtraRenderCallback@@YAXPAU_TBExtraSystem@@HPAPAEPAX@Z 0043e560 f   precipitation.obj
 0001:0003e3e0       ?FreeAllPrecipitationFromList@@YAXXZ 0043e820 f   precipitation.obj
 0001:0003e430       ?UpdatePrecipitationList@@YAXXZ 0043e870 f   precipitation.obj
 0001:0003e480       ?PrecipitationExtraUpdateCallback@@YAXPAU_TBExtraSystem@@HPAPAEM@Z 0043e8c0 f   precipitation.obj
 0001:0003e500       ?CreateRapperBlast@@YAXPAUTAG_ACTORINSTANCE@@@Z 0043e940 f   rapperblast.obj
 0001:0003e770       ?UpdateRapperBlast@@YAXPAUTAG_ACTORINSTANCE@@@Z 0043ebb0 f   rapperblast.obj
 0001:0003ec10       ?DrawRapperBlast@@YAXPAUTAG_ACTORINSTANCE@@@Z 0043f050 f   rapperblast.obj
 0001:0003ed50       ?FireSeekingRocketFromActorNode@@YAPAUTAG_ACTORINSTANCE@@PAU1@0PADQAM@Z 0043f190 f   rocketscience.obj
 0001:0003f100       ?DestroySeekingRocketWithLoudBang@@YAXPAUTAG_ACTORINSTANCE@@@Z 0043f540 f   rocketscience.obj
 0001:0003f200       ?DestroySeekingRocketQuietly@@YAXPAUTAG_ACTORINSTANCE@@@Z 0043f640 f   rocketscience.obj
 0001:0003f230       ?EatRocket@@YAXPAUTAG_ACTORINSTANCE@@@Z 0043f670 f   rocketscience.obj
 0001:0003f310       ?UpdateSeekingRockets@@YAXPAUTAG_ACTORINSTANCE@@@Z 0043f750 f   rocketscience.obj
 0001:0003f940       ?CreateRumbleController@@YAPAUTAG_RUMBLECONTROLLER@@H@Z 0043fd80 f   rumble.obj
 0001:0003f9f0       ?RequestRumbleEffect@@YAHPAUTAG_PADCONTROLSTATUS@@HMMMMW4EWaveform@@MMII@Z 0043fe30 f   rumble.obj
 0001:0003fc30       ?RequestBuzzerEffect@@YAHPAUTAG_PADCONTROLSTATUS@@MMW4EWaveform@@MMII@Z 00440070 f   rumble.obj
 0001:0003fde0       ?RequestPresetRumble@@YAHPAUTAG_PADCONTROLSTATUS@@HMW4EWaveform@@II@Z 00440220 f   rumble.obj
 0001:0003ff30       ?UpdateRumble@@YAXPAUTAG_PADCONTROLSTATUS@@M@Z 00440370 f   rumble.obj
 0001:00040380       ?FlushRumbleQueueMember@@YAHPAUTAG_PADCONTROLSTATUS@@H@Z 004407c0 f   rumble.obj
 0001:000403d0       ?PauseRumble@@YAXPAUTAG_PADCONTROLSTATUS@@@Z 00440810 f   rumble.obj
 0001:000403f0       ?UnPauseRumble@@YAXPAUTAG_PADCONTROLSTATUS@@@Z 00440830 f   rumble.obj
 0001:00040410       ?DisableRumble@@YAXPAUTAG_PADCONTROLSTATUS@@@Z 00440850 f   rumble.obj
 0001:00040440       ?EnableRumble@@YAXPAUTAG_PADCONTROLSTATUS@@@Z 00440880 f   rumble.obj
 0001:00040460       ?FreeRumbleController@@YAXPAUTAG_PADCONTROLSTATUS@@@Z 004408a0 f   rumble.obj
 0001:000404e0       ?FlushRumbleQueue@@YAXPAUTAG_PADCONTROLSTATUS@@@Z 00440920 f   rumble.obj
 0001:00040670       ?Reactivate@TAG_SECURITYBOX@@AAEXXZ 00440ab0 f   securitybox.obj
 0001:000406c0       ?SelectWeapon@TAG_SECURITYBOX@@AAEXXZ 00440b00 f   securitybox.obj
 0001:00040720       ?FreeWeapon@TAG_SECURITYBOX@@AAEXXZ 00440b60 f   securitybox.obj
 0001:00040740       ?CalculateArm@TAG_SECURITYBOX@@AAEXXZ 00440b80 f   securitybox.obj
 0001:00040980       ?init@?$LINKEDLIST@VTAG_MIRROR@@@@QAAXQBDZZ 00440dc0 f i effects.obj
 0001:00040980       ?init@?$LINKEDLIST@VTAG_BANANASKIN@@@@QAAXQBDZZ 00440dc0 f i apes.obj
 0001:00040980       ?init@?$LINKEDLIST@VTAG_CACTUS@@@@QAAXQBDZZ 00440dc0 f i nastycan.obj
 0001:00040980       ?init@?$LINKEDLIST@VTAG_SPINPAD@@@@QAAXQBDZZ 00440dc0 f i securitybox.obj
 0001:00040980       ?init@?$LINKEDLIST@UTAG_LASERBEAM@@@@QAAXQBDZZ 00440dc0 f i laser.obj
 0001:00040980       ?init@?$LINKEDLIST@UTAG_PAGEROW@@@@QAAXQBDZZ 00440dc0 f i shadow.obj
 0001:00040980       ?init@?$LINKEDLIST@UPAPERPAGEINFO@@@@QAAXQBDZZ 00440dc0 f i tutorial.obj
 0001:00040980       ?init@?$LINKEDLIST@UTAG_KOSCAMTARGET@@@@QAAXQBDZZ 00440dc0 f i cameracase.obj
 0001:00040980       ?init@?$LINKEDLIST@UTAG_SUBTITLE@@@@QAAXQBDZZ 00440dc0 f i subtitle.obj
 0001:00040980       ?init@?$LINKEDLIST@M@@QAAXQBDZZ 00440dc0 f i endoflevelstats.obj
 0001:00040980       ?init@?$LINKEDLIST@UBOOKCHAPTER@@@@QAAXQBDZZ 00440dc0 f i TextFX.obj
 0001:00040980       ?init@?$LINKEDLIST@UTAG_CUTSCENEENTRY@@@@QAAXQBDZZ 00440dc0 f i mapfile.obj
 0001:00040980       ?init@?$LINKEDLIST@UTAG_DECAL@@@@QAAXQBDZZ 00440dc0 f i decals.obj
 0001:00040980       ?init@?$LINKEDLIST@UTAG_SHOCKWAVE@@@@QAAXQBDZZ 00440dc0 f i shockwave.obj
 0001:00040980       ?init@?$LINKEDLIST@UTAG_MONITOREFFECT@@@@QAAXQBDZZ 00440dc0 f i MonitorFX.obj
 0001:00040980       ?init@?$LINKEDLIST@VTAG_SECURITYBOX@@@@QAAXQBDZZ 00440dc0 f i securitybox.obj
 0001:00040980       ?init@?$LINKEDLIST@UTAG_PAGE@@@@QAAXQBDZZ 00440dc0 f i TextFX.obj
 0001:00040980       ?init@?$LINKEDLIST@UTAG_EATITEM@@@@QAAXQBDZZ 00440dc0 f i eating.obj
 0001:00040980       ?init@?$LINKEDLIST@UTAG_BOOK@@@@QAAXQBDZZ 00440dc0 f i BookList.obj
 0001:00040980       ?init@?$LINKEDLIST@UTAG_FLYGROUP@@@@QAAXQBDZZ 00440dc0 f i Flies.obj
 0001:00040980       ?init@?$LINKEDLIST@UTAG_PAGEITEM@@@@QAAXQBDZZ 00440dc0 f i shadow.obj
 0001:00040980       ?init@?$LINKEDLIST@VTAG_STINKYCHEESE@@@@QAAXQBDZZ 00440dc0 f i cheesegun.obj
 0001:000409c0       ?Update@TAG_SECURITYBOX@@AAEXXZ 00440e00 f   securitybox.obj
 0001:00040f80       ?Draw@TAG_SECURITYBOX@@AAEXXZ 004413c0 f   securitybox.obj
 0001:00041110       ??1TAG_SECURITYBOX@@QAE@XZ 00441550 f   securitybox.obj
 0001:00041190       ?DrawSecurityBoxes@@YAXXZ  004415d0 f   securitybox.obj
 0001:000411d0       ?ShutdownSecurityBoxes@@YAX_N@Z 00441610 f   securitybox.obj
 0001:00041290       ?ReactivateSecurityBoxes@@YAXXZ 004416d0 f   securitybox.obj
 0001:00041320       ?Init@TAG_SPINPAD@@QAEHQAM0H@Z 00441760 f   securitybox.obj
 0001:00041410       ??1TAG_SPINPAD@@QAE@XZ     00441850 f   securitybox.obj
 0001:00041490       ?PlayerSpinOn@TAG_SPINPAD@@QAEXPAUTAG_PLAYER@@@Z 004418d0 f   securitybox.obj
 0001:00041520       ?RespondToSecurityBoxCollision@@YAHPAUTAG_ACTORINSTANCE@@0@Z 00441960 f   securitybox.obj
 0001:000415e0       ?SpinPadCollisionCallback@@YAHPAUTAG_ACTORINSTANCE@@0@Z 00441a20 f   securitybox.obj
 0001:00041670       ?Update@TAG_SPINPAD@@QAEXXZ 00441ab0 f   securitybox.obj
 0001:000417b0       ?KillSpinPads@@YAXXZ       00441bf0 f   securitybox.obj
 0001:00041810       ?UpdateSpinPads@@YAXXZ     00441c50 f   securitybox.obj
 0001:00041850       ?Init@TAG_SECURITYBOX@@AAEHQAM0IPAVCPMNode@@1@Z 00441c90 f   securitybox.obj
 0001:00041a90       ?KillSecurityBoxes@@YAXXZ  00441ed0 f   securitybox.obj
 0001:00041af0       ?UpdateSecurityBoxes@@YAXXZ 00441f30 f   securitybox.obj
 0001:00041b40       ?normalise2@TAG_VEC@@QAEAAU1@XZ 00441f80 f i shadow.obj
 0001:00041b60       ??G@YA?AUTAG_VEC@@QBMABU0@@Z 00441fa0 f i shadow.obj
 0001:00041b60       ??G@YA?AUTAG_VEC@@ABU0@0@Z 00441fa0 f i shadow.obj
 0001:00041b60       ??G@YA?AUTAG_VEC@@ABU0@QBM@Z 00441fa0 f i WestBossExp.obj
 0001:00041bc0       ??D@YA?AUTAG_VEC@@ABU0@M@Z 00442000 f i shadow.obj
 0001:00041c20       ??G@YA?AUTAG_VEC@@ABU0@@Z  00442060 f i shadow.obj
 0001:00041c70       ?intersectRayPlane@@YA_NABUTAG_VEC@@000@Z 004420b0 f i shadow.obj
 0001:00041d00       ??8TAG_PAGEITEM@@QBE_NQBD@Z 00442140 f i shadow.obj
 0001:00041d20       ?setFontSize@TAG_TEXTBOX@@QAEPAU1@M@Z 00442160 f i shadow.obj
 0001:00041d40       ??0TAG_SLIDER@@QAE@Q6AXMQAU0@@ZQBDUTAG_COLOUR@@3H@Z 00442180 f i shadow.obj
 0001:00041df0       ?getRequiredHeight@TAG_SLIDER@@UAEMXZ 00442230 f i shadow.obj
 0001:00041e00       ?getRequiredWidth@TAG_SLIDER@@UAEMXZ 00442240 f i shadow.obj
 0001:00041e10       ?SetShadowNode@@YAXPAUTAG_ACTORINSTANCE@@PAU_TBActorNodeInstance@@PAD@Z 00442250 f   shadow.obj
 0001:00041e70       ?InitialiseShadow@@YAXQAUTAG_ACTORINSTANCE@@MMMW4_ShadowType@@@Z 004422b0 f   shadow.obj
 0001:00041f10       ?CreateShadow@@YAXPAUTAG_ACTORINSTANCE@@PAUTAG_COLLISIONCACHE@@QAM@Z 00442350 f   shadow.obj
 0001:00042370       ?CreateZooBossShadow@@YAXPAUTAG_SHADOW@@PAUTAG_COLLISIONCACHE@@QAM@Z 004427b0 f   shadow.obj
 0001:00042750       ?DrawShadow@@YAXPAUTAG_SHADOW@@@Z 00442b90 f   shadow.obj
 0001:00042a80       ?draw@TAG_SHADOWLIGHT@@QAEXXZ 00442ec0 f   shadow.obj
 0001:00042b20       ?shadowLightEdit_sliderUpdateFunc@@YAXMQAUTAG_SLIDER@@@Z 00442f60 f   shadow.obj
 0001:00042c00       ?drawShadowLights@@YAXXZ   00443040 f   shadow.obj
 0001:00042c90       ?pickShadowLight@@YAPAUTAG_SHADOWLIGHT@@XZ 004430d0 f   shadow.obj
 0001:00042d60       ?getShadowLightForCharacter@@YAPAUTAG_SHADOWLIGHT@@QBUTAG_ACTORINSTANCE@@@Z 004431a0 f   shadow.obj
 0001:00042e50       ?discardOldest@?$LOOPARRAY@UTAG_SHADOWLIGHT@@$09@@QAEXI@Z 00443290 f i shadow.obj
 0001:00042eb0       ?getRequiredWidth@SPINNER@@UAEMXZ 004432f0 f i shadow.obj
 0001:00042ec0       ??_ETAG_BRICKDISPLAY@@UAEPAXI@Z 00443300 f i WestBoss.obj
 0001:00042ec0       ??_ETAG_CHECKBOX@@UAEPAXI@Z 00443300 f i shadow.obj
 0001:00042ec0       ??_GSPINNER@@UAEPAXI@Z     00443300 f i shadow.obj
 0001:00042ec0       ??_ETAG_ICON@@UAEPAXI@Z    00443300 f i tutorial.obj
 0001:00042ec0       ??_GTAG_TEXTBOX@@UAEPAXI@Z 00443300 f i doors.obj
 0001:00042ec0       ??_GTAG_BRICKDISPLAY@@UAEPAXI@Z 00443300 f i WestBoss.obj
 0001:00042ec0       ??_EGOLFBAR@@UAEPAXI@Z     00443300 f i WestBoss.obj
 0001:00042ec0       ??_GTAG_CHECKBOX@@UAEPAXI@Z 00443300 f i shadow.obj
 0001:00042ec0       ??_GGOLFBAR@@UAEPAXI@Z     00443300 f i WestBoss.obj
 0001:00042ec0       ??_ESPINNER@@UAEPAXI@Z     00443300 f i shadow.obj
 0001:00042ec0       ??_GTAG_SLIDER@@UAEPAXI@Z  00443300 f i shadow.obj
 0001:00042ec0       ??_ETAG_TEXTBOX@@UAEPAXI@Z 00443300 f i doors.obj
 0001:00042ec0       ??_ETAG_SLIDER@@UAEPAXI@Z  00443300 f i shadow.obj
 0001:00042ec0       ??_GTAG_ICON@@UAEPAXI@Z    00443300 f i tutorial.obj
 0001:00042ee0       ?DrawActorShadows@@YAXPAUTAG_ACTORINSTANCELIST@@@Z 00443320 f   shadow.obj
 0001:00042fb0       ?CreateTrueShadow@@YAXPAUTAG_ACTORINSTANCE@@PAUTAG_COLLISIONCACHE@@QAM@Z 004433f0 f   shadow.obj
 0001:00043660       ?getRequiredWidth@TAG_CHECKBOX@@UAEMXZ 00443aa0 f i shadow.obj
 0001:00043690       ?getRequiredHeight@TAG_CHECKBOX@@UAEMXZ 00443ad0 f i shadow.obj
 0001:000436c0       ?targetShadowLight@@YAXQAUTAG_SHADOWLIGHT@@@Z 00443b00 f   shadow.obj
 0001:00043710       ?selectShadowLight@@YAXQAUTAG_SHADOWLIGHT@@@Z 00443b50 f   shadow.obj
 0001:00043760       ?updateShadowLights@@YAXXZ 00443ba0 f   shadow.obj
 0001:000437c0       ??0?$LOOPARRAY@UTAG_SHADOWLIGHT@@$09@@QAE@QBD@Z 00443c00 f i shadow.obj
 0001:00043810       ?getNew@?$LOOPARRAY@UTAG_SHADOWLIGHT@@$09@@QAEPAUTAG_SHADOWLIGHT@@I@Z 00443c50 f i shadow.obj
 0001:000438b0       ??0TAG_PAGE@@QAE@QBDQ6AXQAU0@H@Z22@Z 00443cf0 f i shadow.obj
 0001:00043940       ?getNavigationScope@TAG_PAGE@@UAEPAU1@XZ 00443d80 f i shadow.obj
 0001:00043950       ??_GTAG_PAGE@@UAEPAXI@Z    00443d90 f i shadow.obj
 0001:00043950       ??_ETAG_PAGE@@UAEPAXI@Z    00443d90 f i shadow.obj
 0001:00043970       ?CreateActorShadows@@YAXPAUTAG_ACTORINSTANCELIST@@PAUTAG_COLLISIONCACHE@@@Z 00443db0 f   shadow.obj
 0001:00044a70       ?initShadowLights@@YAXXZ   00444eb0 f   shadow.obj
 0001:00044a80       ?addShadowLight@@YAPAUTAG_SHADOWLIGHT@@ABUTAG_VEC@@W4EShadowLightType@@0ABUTAG_COLOUR@@MMHHMMW4EShadowBlendMode@@@Z 00444ec0 f   shadow.obj
 0001:00044bd0       ?UpdateShatterObject@@YAXPAUTAG_ACTORINSTANCE@@@Z 00445010 f   shatter.obj
 0001:00044e40       ?PreRespondToShatterCollision@@YAHPAUTAG_ACTORINSTANCE@@0PAUTAG_PRECOLLINFO@@@Z 00445280 f   shatter.obj
 0001:00044e60       ?RespondToShatterCollision@@YAHPAUTAG_ACTORINSTANCE@@0@Z 004452a0 f   shatter.obj
 0001:00044f60       ?CreateShatterObject@@YAHPAUTAG_ACTORINSTANCE@@IHIMIII@Z 004453a0 f   shatter.obj
 0001:00045090       ??3@YAXPAXPADHG@Z          004454d0 f i apes.obj
 0001:00045090       ??_V@YAXPAXPADHG@Z         004454d0 f i shockwave.obj
 0001:000450a0       ?update@TAG_SHOCKWAVE@@QAEXXZ 004454e0 f   shockwave.obj
 0001:00045190       ??0TAG_SHOCKWAVE@@QAE@QBMMMMHMMMQBUTAG_COLOUR@@@Z 004455d0 f   shockwave.obj
 0001:00045280       ?shutdown@?$LINKEDLIST@UTAG_SHOCKWAVE@@@@QAEXXZ 004456c0 f i shockwave.obj
 0001:000452c0       ?Shockwave_create@@YAXQBMMMMHMMMQBUTAG_COLOUR@@@Z 00445700 f   shockwave.obj
 0001:00045360       ?Shockwave_update@@YAXXZ   004457a0 f   shockwave.obj
 0001:00045430       ?Shockwave_shutdown@@YAXXZ 00445870 f   shockwave.obj
 0001:00045440       ?CreateElectricityInfoStructure@@YAHPAUTAG_ACTORINSTANCE@@@Z 00445880 f   sparks.obj
 0001:00045480       ?CalculateSparkStartPosition@@YAXPAUTAG_ACTORINSTANCE@@@Z 004458c0 f   sparks.obj
 0001:00045530       ?CalculateNewSparkTarget@@YAXPAUTAG_ACTORINSTANCE@@@Z 00445970 f   sparks.obj
 0001:00045610       ?UpdateSparkOrientation@@YAXPAUTAG_ACTORINSTANCE@@QAM@Z 00445a50 f   sparks.obj
 0001:000456a0       ?CreateElectricityPathInfo@@YAPAUTAG_ELECTRICITYPATHINFO@@H@Z 00445ae0 f   sparks.obj
 0001:00045700       ?FreeAllElectricityPathNodes@@YAXPAUTAG_ACTORINSTANCE@@@Z 00445b40 f   sparks.obj
 0001:00045760       ?WereGonnaHaveSomeCrazySparks@@YAXQAM0MPAU_TBTexture@@@Z 00445ba0 f   sparks.obj
 0001:00045990       ?CrazySparksExtraCreateCallback@@YAXPAU_TBExtraSystem@@PAEPAD@Z 00445dd0 f   sparks.obj
 0001:00045ab0       ?CrazySparksExtraUpdateCallback@@YAXPAU_TBExtraSystem@@HPAPAEM@Z 00445ef0 f   sparks.obj
 0001:00045c60       ?CrazySparksExtraRenderCallback@@YAXPAU_TBExtraSystem@@HPAPAEPAX@Z 004460a0 f   sparks.obj
 0001:00045e50       ?CreateElectricityObject@@YAHMPAD0QAMDPAVCPMNode@@@Z 00446290 f   sparks.obj
 0001:00045f80       ?MoveSparkTowardsTarget@@YAXPAUTAG_ACTORINSTANCE@@@Z 004463c0 f   sparks.obj
 0001:00046050       ?InitCrazySparksExtraSystem@@YAXXZ 00446490 f   sparks.obj
 0001:00046090       ?UpdateElectricityObject@@YAXPAUTAG_ACTORINSTANCE@@@Z 004464d0 f   sparks.obj
 0001:00046110       ?UpdateSpinEffectForActor@@YAXPAUTAG_ACTORINSTANCE@@M@Z 00446550 f   spineffect.obj
 0001:00046850       ?UpdateCutSceneSpinEffect@@YAXPAU_TBActorInstance@@PAU_TBActorNodeInstance@@@Z 00446c90 f   spineffect.obj
 0001:00046b80       ?DrawSpinEffectForActor@@YAXPAUTAG_ACTORINSTANCE@@@Z 00446fc0 f   spineffect.obj
 0001:00046d50       ?DrawCutSceneSpinEffect@@YAXXZ 00447190 f   spineffect.obj
 0001:00046e10       ?CreateSpinEffectStrips@@YAXPAUTAG_SPINPOLYS@@QAHHM@Z 00447250 f   spineffect.obj
 0001:00046f80       ?CreateSpinEffectForActor@@YAPAUTAG_SPINEFFECTINFO@@I@Z 004473c0 f   spineffect.obj
 0001:00047350       ?CreateSpinEffectForCutScene@@YAXXZ 00447790 f   spineffect.obj
 0001:00047630       ?CreateTarBubbleEmmiter@@YAHPAUTAG_ACTORINSTANCE@@PADMMI@Z 00447a70 f   tarbubble.obj
 0001:000476d0       ?FindTexturesFromMapUsedByTarBubbleObjects@@YAXXZ 00447b10 f   tarbubble.obj
 0001:00047730       ?UpdateTarBubbleEmmiter@@YAXPAUTAG_ACTORINSTANCE@@@Z 00447b70 f   tarbubble.obj
 0001:00047790       ?TarBubbleExtraCreateCallback@@YAXPAU_TBExtraSystem@@PAEPAD@Z 00447bd0 f   tarbubble.obj
 0001:00047820       ?TarBubbleExtraUpdateCallback@@YAXPAU_TBExtraSystem@@HPAPAEM@Z 00447c60 f   tarbubble.obj
 0001:000478c0       ?TarBubbleExtraRenderCallback@@YAXPAU_TBExtraSystem@@HPAPAEPAX@Z 00447d00 f   tarbubble.obj
 0001:00047980       ?InitTarBubbleExtraSystem@@YAXXZ 00447dc0 f   tarbubble.obj
 0001:000479c0       ?UpdateTartanTazRenderTarget@@YADPAUTAG_ACTORINSTANCE@@@Z 00447e00 f   tartantaz.obj
 0001:00048280       ?InitThoughtBubble@@YAXPAUTAG_THOUGHTBUBBLE@@@Z 004486c0 f   thoughtbubble.obj
 0001:000482b0       ?SetUpBubbles@@YAXPAUTAG_THOUGHTBUBBLE@@QAM@Z 004486f0 f   thoughtbubble.obj
 0001:000484e0       ?DrawBubbles@@YAXPAUTAG_THOUGHTBUBBLE@@PAUTAG_CAMERAINFO@@@Z 00448920 f   thoughtbubble.obj
 0001:00048690       ?DestroyThoughtBubble@@YAXPAUTAG_THOUGHTBUBBLE@@@Z 00448ad0 f   thoughtbubble.obj
 0001:00048710       ?PrepThoughtBubble@@YAXPAUTAG_THOUGHTBUBBLE@@PAUTAG_CAMERAINFO@@QAM@Z 00448b50 f   thoughtbubble.obj
 0001:00048850       ?DrawThoughtBubble@@YAXPAUTAG_THOUGHTBUBBLE@@PAUTAG_CAMERAINFO@@@Z 00448c90 f   thoughtbubble.obj
 0001:000488b0       ?ang@TAG_VEC@@QBE?AU1@XZ   00448cf0 f i VideoFX.obj
 0001:00048900       ?rotateY@TAG_VEC@@QBE?AU1@M@Z 00448d40 f i VideoFX.obj
 0001:00048940       ??Y@YAAAUTAG_VEC@@AAU0@0@Z 00448d80 f i VideoFX.obj
 0001:00048970       ??G@YA?AUTAG_COLOUR@@ABU0@0@Z 00448db0 f i VideoFX.obj
 0001:000489f0       ?leftHalf@TAG_RECTANGLE@@QBE?AU1@XZ 00448e30 f i VideoFX.obj
 0001:00048a20       ?topHalf@TAG_RECTANGLE@@QBE?AU1@XZ 00448e60 f i VideoFX.obj
 0001:00048a50       ??X@YA?AUTAG_RECTANGLE@@AAU0@ABU0@@Z 00448e90 f i VideoFX.obj
 0001:00048b90       ?VFX_bookPermanentRenderTarget@@YAXXZ 00448fd0 f   VideoFX.obj
 0001:00048bf0       ?VFX_effectActive@@YA_NW4EVideoEffect@@@Z 00449030 f   VideoFX.obj
 0001:00048c10       ?VFX_shutdown@@YAXXZ       00449050 f   VideoFX.obj
 0001:00048e90       ?VFX_stereoPreDraw@@YAXXZ  004492d0 f   VideoFX.obj
 0001:00048f90       ?VFX_stereoPostDraw@@YA_NXZ 004493d0 f   VideoFX.obj
 0001:00049020       ?VFX_adjustCameraForStereoscopy@@YAXAAUTAG_VEC@@QAM@Z 00449460 f   VideoFX.obj
 0001:000491a0       ?VFX_motionBlurPreDraw@@YAXXZ 004495e0 f   VideoFX.obj
 0001:000491e0       ?VFX_createShadowRenderTarget@@YAXXZ 00449620 f   VideoFX.obj
 0001:00049240       ?VFX_releaseShadowRenderTarget@@YAXXZ 00449680 f   VideoFX.obj
 0001:00049270       ?VFX_generateShadowMap@@YAXQAUTAG_ACTORINSTANCE@@@Z 004496b0 f   VideoFX.obj
 0001:000499e0       ?VFX_spinoffPreparePreDraw@@YAXXZ 00449e20 f   VideoFX.obj
 0001:00049a70       ?VFX_spinoffStart@@YAXXZ   00449eb0 f   VideoFX.obj
 0001:00049a90       ?VFX_spinoffPostPrepare@@YAXXZ 00449ed0 f   VideoFX.obj
 0001:00049ad0       ?VFX_spinoffPostDraw@@YAXXZ 00449f10 f   VideoFX.obj
 0001:00049e60       ?VFX_timesliceDraw@@YAXXZ  0044a2a0 f   VideoFX.obj
 0001:0004a0d0       ?VFX_focusPrepare@@YA_NXZ  0044a510 f   VideoFX.obj
 0001:0004a0e0       ?VFX_focusUnprepare@@YA_NXZ 0044a520 f   VideoFX.obj
 0001:0004a0f0       ?discardOldest@?$LOOPARRAY@$$BY133M$03@@QAEXI@Z 0044a530 f i VideoFX.obj
 0001:0004a150       ?VFX_deactivateEffect@@YAXW4EVideoEffect@@@Z 0044a590 f   VideoFX.obj
 0001:0004a2e0       ?VFX_activateEffect@@YA_NW4EVideoEffect@@_N@Z 0044a720 f   VideoFX.obj
 0001:0004a3c0       ?VFX_initStereo@@YAXXZ     0044a800 f   VideoFX.obj
 0001:0004a4d0       ?VFX_setStereo@@YAX_N00@Z  0044a910 f   VideoFX.obj
 0001:0004a580       ?VFX_motionBlur@@YAXM@Z    0044a9c0 f   VideoFX.obj
 0001:0004a600       ?VFX_motionBlurPostDraw@@YAXXZ 0044aa40 f   VideoFX.obj
 0001:0004a720       ?VFX_spinoffPrepare@@YAXXZ 0044ab60 f   VideoFX.obj
 0001:0004a790       ?VFX_timeslicePauseUpdateFunc@@YAXH@Z 0044abd0 f   VideoFX.obj
 0001:0004aa60       ?VFX_timeslice@@YAXXZ      0044aea0 f   VideoFX.obj
 0001:0004ab70       ?getNew@?$LOOPARRAY@$$BY133M$03@@QAEPAY133MI@Z 0044afb0 f i VideoFX.obj
 0001:0004ac10       ?VFX_init@@YAXXZ           0044b050 f   VideoFX.obj
 0001:0004ac40       ?VFX_initScene@@YAXXZ      0044b080 f   VideoFX.obj
 0001:0004ac70       ?VFX_spinoffUpdate@@YAXXZ  0044b0b0 f   VideoFX.obj
 0001:0004af40       ?VFX_update@@YAXXZ         0044b380 f   VideoFX.obj
 0001:0004af70       ?PrepVoodooCloud@@YAXPAUTAG_ACTORINSTANCE@@@Z 0044b3b0 f   voodoocloud.obj
 0001:0004afa0       ?UpdateVoodooCloud@@YAXPAUTAG_ACTORINSTANCE@@@Z 0044b3e0 f   voodoocloud.obj
 0001:0004b570       ?DrawVoodooCloud@@YAXPAUTAG_ACTORINSTANCE@@@Z 0044b9b0 f   voodoocloud.obj
 0001:0004b630       ?VoodooCloudExtraCreateCallback@@YAXPAU_TBExtraSystem@@PAEPAD@Z 0044ba70 f   voodoocloud.obj
 0001:0004b700       ?VoodooCloudExtraUpdateCallback@@YAXPAU_TBExtraSystem@@HPAPAEM@Z 0044bb40 f   voodoocloud.obj
 0001:0004b7a0       ?VoodooCloudExtraRenderCallback@@YAXPAU_TBExtraSystem@@HPAPAEPAX@Z 0044bbe0 f   voodoocloud.obj
 0001:0004b8b0       ?CreateVoodooCloud@@YAHPAUTAG_ACTORINSTANCE@@@Z 0044bcf0 f   voodoocloud.obj
 0001:0004bb60       ?InitVoodooCloudExtraSystem@@YAXXZ 0044bfa0 f   voodoocloud.obj
 0001:0004bba0       ?CreateVoodooSpellEffect@@YAPAUTAG_VOODOOSPELLFXINFO@@PAUTAG_ACTORINSTANCE@@PADMM@Z 0044bfe0 f   voodoospelleffect.obj
 0001:0004bc30       ?DrawVoodooSpellEffect@@YAXPAUTAG_VOODOOSPELLFXINFO@@@Z 0044c070 f   voodoospelleffect.obj
 0001:0004bda0       ?UpdateVoodooSpellEffect@@YAPAUTAG_VOODOOSPELLFXINFO@@PAU1@@Z 0044c1e0 f   voodoospelleffect.obj
 0001:0004be50       ?CreateWaterfallInstance@@YAHPAUTAG_ACTORINSTANCE@@III@Z 0044c290 f   waterfall.obj
 0001:0004bf60       ?UpdateWaterfallInstance@@YAXPAUTAG_ACTORINSTANCE@@@Z 0044c3a0 f   waterfall.obj
 0001:0004c2f0       ?CreateWaterfallVerts@@YAXPAUTAG_WATERFALLEXTRAINFO@@QAM11@Z 0044c730 f   waterfall.obj
 0001:0004c5a0       ?WaterfallExtraCreateCallback@@YAXPAU_TBExtraSystem@@PAEPAD@Z 0044c9e0 f   waterfall.obj
 0001:0004c7b0       ?WaterfallExtraUpdateCallback@@YAXPAU_TBExtraSystem@@HPAPAEM@Z 0044cbf0 f   waterfall.obj
 0001:0004cb60       ?WaterfallExtraRenderCallback@@YAXPAU_TBExtraSystem@@HPAPAEPAX@Z 0044cfa0 f   waterfall.obj
 0001:0004cce0       ?InitWaterfallExtraSystem@@YAXXZ 0044d120 f   waterfall.obj
 0001:0004cd20       ?InitialiseWaterRingList@@YAXXZ 0044d160 f   waterrings.obj
 0001:0004cd40       ?AddEntryToWaterRingList@@YAPAUTAG_WATERRING@@XZ 0044d180 f   waterrings.obj
 0001:0004cdb0       ?DrawWaterRing@@YAXXZ      0044d1f0 f   waterrings.obj
 0001:0004d000       ?DeleteWaterRingFromList@@YAHPAUTAG_WATERRING@@@Z 0044d440 f   waterrings.obj
 0001:0004d090       ?FreeWaterRingList@@YAXI@Z 0044d4d0 f   waterrings.obj
 0001:0004d110       ?CreateWaterRingObject@@YAPAUTAG_WATERRINGOBJECTINFO@@PAUTAG_ACTORINSTANCE@@MMIM@Z 0044d550 f   waterrings.obj
 0001:0004d180       ?FixUpWaterRingTextures@@YAXPAUTAG_ACTORINSTANCELIST@@@Z 0044d5c0 f   waterrings.obj
 0001:0004d1d0       ?CreateWaterRipple@@YAHPAUTAG_ACTORINSTANCE@@PAU_TBTexture@@M@Z 0044d610 f   waterrings.obj
 0001:0004d580       ?CreateWaterRing@@YAPAUTAG_WATERRING@@QAMPAU_TBTexture@@MMMI@Z 0044d9c0 f   waterrings.obj
 0001:0004d760       ?UpdateWaterRing@@YAXXZ    0044dba0 f   waterrings.obj
 0001:0004dae0       ?UpdateWaterRingObject@@YAXPAUTAG_ACTORINSTANCE@@@Z 0044df20 f   waterrings.obj
 0001:0004dbc0       ?CreateWaterSplashes@@YAXQAMM@Z 0044e000 f   watersplash.obj
 0001:0004dcc0       ?SplashExtraCreateCallback@@YAXPAU_TBExtraSystem@@PAEPAD@Z 0044e100 f   watersplash.obj
 0001:0004dd40       ?SplashExtraUpdateCallback@@YAXPAU_TBExtraSystem@@HPAPAEM@Z 0044e180 f   watersplash.obj
 0001:0004de10       ?SplashExtraRenderCallback@@YAXPAU_TBExtraSystem@@HPAPAEPAX@Z 0044e250 f   watersplash.obj
 0001:0004df60       ?SquishExtraCreateCallback@@YAXPAU_TBExtraSystem@@PAEPAD@Z 0044e3a0 f   watersplash.obj
 0001:0004dff0       ?SquishExtraUpdateCallback@@YAXPAU_TBExtraSystem@@HPAPAEM@Z 0044e430 f   watersplash.obj
 0001:0004e0e0       ?SquishExtraRenderCallback@@YAXPAU_TBExtraSystem@@HPAPAEPAX@Z 0044e520 f   watersplash.obj
 0001:0004e280       ?InitSplashExtraSystem@@YAXXZ 0044e6c0 f   watersplash.obj
 0001:0004e2c0       ?InitSquishExtraSystem@@YAXXZ 0044e700 f   watersplash.obj
 0001:0004e300       ?ActivateSleepyZedsForCharacter@@YAHPAUTAG_ACTORINSTANCE@@PADPAU_TBTexture@@2M@Z 0044e740 f   zzz.obj
 0001:0004e3e0       ?TurnOffSleepyZedsForCharacter@@YAXPAUTAG_ACTORINSTANCE@@@Z 0044e820 f   zzz.obj
 0001:0004e420       ?UpdateSleepyZedsForCharacter@@YAXPAUTAG_ACTORINSTANCELIST@@@Z 0044e860 f   zzz.obj
 0001:0004e580       ?ZzzExtraCreateCallback@@YAXPAU_TBExtraSystem@@PAEPAD@Z 0044e9c0 f   zzz.obj
 0001:0004e630       ?ZzzExtraUpdateCallback@@YAXPAU_TBExtraSystem@@HPAPAEM@Z 0044ea70 f   zzz.obj
 0001:0004e6e0       ?ZzzExtraRenderCallback@@YAXPAU_TBExtraSystem@@HPAPAEPAX@Z 0044eb20 f   zzz.obj
 0001:0004e7d0       ?CreateQuestionMarkAboveActor@@YAHPAUTAG_ACTORINSTANCE@@PAD1MQAM@Z 0044ec10 f   zzz.obj
 0001:0004e990       ?DestroyQuestionMarkAboveActor@@YAHPAUTAG_ACTORINSTANCE@@@Z 0044edd0 f   zzz.obj
 0001:0004e9c0       ?UpdateQuestionMarkAboveActor@@YAXPAUTAG_ACTORINSTANCELIST@@@Z 0044ee00 f   zzz.obj
 0001:0004eb00       ?DrawQuestionMarkAboveActor@@YAXPAUTAG_ACTORINSTANCELIST@@@Z 0044ef40 f   zzz.obj
 0001:0004ebb0       ?InitZzzExtraSystem@@YAXXZ 0044eff0 f   zzz.obj
 0001:0004ebf0       ?findNearest@@YAXQAM00000@Z 0044f030 f i collision.obj
 0001:0004ecd0       ?ResetCollStats@@YAXXZ     0044f110 f   collision.obj
 0001:0004ece0       ?SphereFaceCollision@@YAXPAUTAG_COLLISIONLISTENTRY@@QAMMQAUTAG_COLL_FACEINFO@@PAH@Z 0044f120 f   collision.obj
 0001:0004f470       ?RayTriangleCollision@@YA_NPAUTAG_COLLISIONLISTENTRY@@QAM11PAUTAG_BOUNDINGBOX@@@Z 0044f8b0 f   collision.obj
 0001:0004f6c0       ?CylinderCylinderCollision@@YAHPAUTAG_COLL_CYLINDER@@0PAM1@Z 0044fb00 f   collision.obj
 0001:0004f7c0       ?SphereSphereCollision@@YAMPAUTAG_COLL_SPHERE@@0@Z 0044fc00 f   collision.obj
 0001:0004f820       ?bmVectorEqual@@YAHQAM0@Z  0044fc60 f i collisioncache.obj
 0001:0004f870       ?CreateCollisionCache@@YAHPAUTAG_COLLISIONCACHE@@H@Z 0044fcb0 f   collisioncache.obj
 0001:0004f8e0       ?ActivateLiveUpdate@@YAXPAUTAG_COLLISIONLISTENTRY@@@Z 0044fd20 f   collisioncache.obj
 0001:0004f920       ?DeactivateLiveUpdate@@YAXPAUTAG_COLLISIONLISTENTRY@@@Z 0044fd60 f   collisioncache.obj
 0001:0004f950       ?CollDataType@@YAHPAUTAG_ACTORINSTANCE@@@Z 0044fd90 f   collisioncache.obj
 0001:0004f9b0       ?MakeCollisionEntryDoubleSided@@YAXPAUTAG_COLLISIONLISTENTRY@@@Z 0044fdf0 f   collisioncache.obj
 0001:0004fa20       ?UpdateCollisionBoundingBox@@YAXPAUTAG_COLLISIONLISTENTRY@@@Z 0044fe60 f   collisioncache.obj
 0001:0004fae0       ?CreateAndAddCollisionListEntry@@YAPAUTAG_COLLISIONLISTENTRY@@PAUTAG_COLLISIONLIST@@PAUTAG_ACTORINSTANCE@@@Z 0044ff20 f   collisioncache.obj
 0001:0004fb50       ?RemoveAndFreeCollisionCylinderListEntry@@YAHPAUTAG_COLLISIONCACHE@@PAUTAG_ACTORINSTANCE@@@Z 0044ff90 f   collisioncache.obj
 0001:0004fba0       ?RemoveAndFreeCollisionSphereListEntry@@YAHPAUTAG_COLLISIONCACHE@@PAUTAG_ACTORINSTANCE@@@Z 0044ffe0 f   collisioncache.obj
 0001:0004fc00       ?FindMinMaxFromPoly@@YAXQAM0000@Z 00450040 f   collisioncache.obj
 0001:0004fd10       ?MakeEntryDormant@@YAXPAUTAG_COLLISIONCACHE@@PAUTAG_COLLISIONLISTENTRY@@_N@Z 00450150 f   collisioncache.obj
 0001:0004fd90       ?ReturnOldestCollisionEntry@@YAPAUTAG_COLLISIONLISTENTRY@@PAUTAG_COLLISIONCACHE@@@Z 004501d0 f   collisioncache.obj
 0001:0004fdd0       ?NumberOfVertsInMesh@@YAHPAU_TBActorInstance@@@Z 00450210 f   collisioncache.obj
 0001:0004fe00       ?NumberOfVertsInActor@@YAHPAU_TBActorInstance@@@Z 00450240 f   collisioncache.obj
 0001:0004fe30       ?TestBoxCollision@@YAHPAUTAG_BOUNDINGBOX@@0@Z 00450270 f   collisioncache.obj
 0001:0004fe90       ?IsPointWithinBox@@YAHPBUTAG_BOUNDINGBOX@@QAY03$$CBMQBMH@Z 004502d0 f   collisioncache.obj
 0001:0004ff40       ?GetBoxBoundsAndMatrix@@YAHPAUTAG_ACTORINSTANCE@@PAUTAG_BOUNDINGBOX@@QAY03M@Z 00450380 f   collisioncache.obj
 0001:0004ffe0       ?RefreshCollisionEntry@@YAXPAUTAG_COLLISIONCACHE@@PAUTAG_ACTORINSTANCE@@@Z 00450420 f   collisioncache.obj
 0001:00050090       ?GetCollisionEntry@@YAPAUTAG_COLLISIONLISTENTRY@@PAUTAG_COLLISIONCACHE@@PAUTAG_ACTORINSTANCE@@@Z 004504d0 f   collisioncache.obj
 0001:000500b0       ?init@TAG_BOUNDINGBOX@@QAEXXZ 004504f0 f   collisioncache.obj
 0001:000500d0       ?minDist@TAG_BOUNDINGBOX@@QBEMABUTAG_VEC@@@Z 00450510 f   collisioncache.obj
 0001:00050180       ?expandToContain@TAG_BOUNDINGBOX@@QAE_NQBM@Z 004505c0 f   collisioncache.obj
 0001:00050210       ?expandToContain@TAG_BOUNDINGBOX@@QAE_NABUTAG_VEC@@@Z 00450650 f   collisioncache.obj
 0001:00050220       ?UpdateCollisionCache@@YAXPAUTAG_COLLISIONCACHE@@@Z 00450660 f   collisioncache.obj
 0001:00050360       ?FreeCollisionCache@@YAXPAUTAG_COLLISIONCACHE@@@Z 004507a0 f   collisioncache.obj
 0001:000504b0       ?SubDivideCollisionEntry@@YAHPAUTAG_COLLISIONCACHE@@PAUTAG_COLLISIONLISTENTRY@@IHHH@Z 004508f0 f   collisioncache.obj
 0001:00050a70       ?AddActorToCollisionCylinderCache@@YAHPAUTAG_COLLISIONCACHE@@PAUTAG_ACTORINSTANCE@@@Z 00450eb0 f   collisioncache.obj
 0001:00050aa0       ?AddActorToCollisionSphereCache@@YAHPAUTAG_COLLISIONCACHE@@PAUTAG_ACTORINSTANCE@@@Z 00450ee0 f   collisioncache.obj
 0001:00050ad0       ?RemoveAndFreeCollisionListEntry@@YAHPAUTAG_COLLISIONCACHE@@PAUTAG_ACTORINSTANCE@@@Z 00450f10 f   collisioncache.obj
 0001:00050ba0       ?FillInMinMaxAndNormal@@YAXPAUTAG_COLLVERTEX@@PAUTAG_COLLPOLY@@H_N@Z 00450fe0 f   collisioncache.obj
 0001:00050cd0       ??0TAG_BOUNDINGBOX@@QAE@XZ 00451110 f   collisioncache.obj
 0001:00050cf0       ?RemoveActorFromCollisionCache@@YAHPAUTAG_COLLISIONCACHE@@PAUTAG_ACTORINSTANCE@@@Z 00451130 f   collisioncache.obj
 0001:00050d20       ?GetCollisionMesh@@YA_NPAU_TBActorInstance@@PAPAUTAG_COLLVERTEX@@PAPAUTAG_COLLPOLY@@QAY03M_N@Z 00451160 f   collisioncache.obj
 0001:00050e60       ?IsPointWithinBox@@YAHPAUTAG_ACTORINSTANCE@@QAM@Z 004512a0 f   collisioncache.obj
 0001:00050f50       ?CalculateBoundingBox@@YAXPAUTAG_BOUNDINGBOX@@0PAUTAG_ACTORINSTANCE@@PAUTAG_COLLVERTEX@@H@Z 00451390 f   collisioncache.obj
 0001:00051930       ?MakeEntryResident@@YAHPAUTAG_COLLISIONCACHE@@PAUTAG_COLLISIONLISTENTRY@@@Z 00451d70 f   collisioncache.obj
 0001:00051b90       ?ProcessCollisionForActor@@YAHPAUTAG_COLLISIONCACHE@@PAUTAG_ACTORINSTANCE@@IPAPAUTAG_COLL_MESHINFO@@@Z 00451fd0 f   collisioncache.obj
 0001:000525e0       ?RayTest@@YA_NPAUTAG_COLLISIONCACHE@@QAM1@Z 00452a20 f   collisioncache.obj
 0001:00052750       ?ProcessHeightOfPoint@@YAHPAUTAG_COLLISIONCACHE@@QAMPAMHW4ESpecialType@@@Z 00452b90 f   collisioncache.obj
 0001:00052900       ?AddActorToCollisionCache@@YAPAUTAG_COLLISIONLISTENTRY@@PAUTAG_COLLISIONCACHE@@PAU_TBSet@@I@Z 00452d40 f   collisioncache.obj
 0001:00052a80       ?AddActorToCollisionCache@@YAPAUTAG_COLLISIONLISTENTRY@@PAUTAG_COLLISIONCACHE@@PAUTAG_ACTORINSTANCE@@I@Z 00452ec0 f   collisioncache.obj
 0001:00052c40       ?ProcessCollisionForActors@@YAXPAUTAG_COLLISIONCACHE@@PAUTAG_ACTORINSTANCELIST@@@Z 00453080 f   collisioncache.obj
 0001:00052c80       ?ApplyGravity@@YAHQAM0MM@Z 004530c0 f   physics.obj
 0001:00052cf0       ?ApplyGravityInDirection@@YAHQAM00M@Z 00453130 f   physics.obj
 0001:00052e50       ?SetWorldGravity@@YAXM@Z   00453290 f   physics.obj
 0001:00052e60       ?ApplyFriction@@YAHPAUTAG_ACTOR_PHYSICS@@@Z 004532a0 f   physics.obj
 0001:00052f20       ?PerformSphereResponse@@YAXPAUTAG_ACTORINSTANCE@@HPAUTAG_COLL_SPHERE@@QAMPAUTAG_COLL_MESHINFO@@2M2@Z 00453360 f   physics.obj
 0001:00053000       ?PerformCollisionFaceResponse@@YAMPAUTAG_ACTORINSTANCE@@HPAUTAG_COLL_FACEINFO@@QAMMPAUTAG_COLL_MESHINFO@@2M2@Z 00453440 f   physics.obj
 0001:000538c0       ?ProcessCylinderCollision@@YAHQAMPAUTAG_ACTOR_BEHAVIOUR@@PAPAUTAG_ACTORINSTANCE@@PAUTAG_COLL_CYLINDER@@HPAU2@0PAUTAG_COLL_MESHINFO@@5PAH@Z 00453d00 f   physics.obj
 0001:00053c50       ?PerformCylinderResponse@@YAXPAUTAG_ACTORINSTANCE@@HPAUTAG_COLL_CYLINDER@@QAMPAUTAG_COLL_MESHINFO@@2M2@Z 00454090 f   physics.obj
 0001:00053d30       ?ProcessSphereCollision@@YAHQAMPAUTAG_ACTOR_BEHAVIOUR@@PAPAUTAG_ACTORINSTANCE@@PAUTAG_COLL_SPHERE@@HPAU2@0PAUTAG_COLL_MESHINFO@@5PAH@Z 00454170 f   physics.obj
 0001:00053f00       ?InitActorBehaviour@@YAXPAUTAG_ACTOR_BEHAVIOUR@@M@Z 00454340 f   physics.obj
 0001:00053fa0       ?SetActorMaxSpeed@@YAXPAUTAG_ACTOR_BEHAVIOUR@@M@Z 004543e0 f   physics.obj
 0001:00053fb0       ?SetActorFriction@@YAXPAUTAG_ACTOR_BEHAVIOUR@@M@Z 004543f0 f   physics.obj
 0001:00053fc0       ?SetActorMinFricAngle@@YAXPAUTAG_ACTOR_BEHAVIOUR@@M@Z 00454400 f   physics.obj
 0001:00053fd0       ?SetActorInertia@@YAXPAUTAG_ACTOR_BEHAVIOUR@@M@Z 00454410 f   physics.obj
 0001:00053fe0       ?ActorRotate@@YAXPAUTAG_ACTORINSTANCE@@QAMM@Z 00454420 f   physics.obj
 0001:00054070       ?SetActorVelocity@@YAXPAUTAG_ACTOR_BEHAVIOUR@@QAM@Z 004544b0 f   physics.obj
 0001:000540d0       ?SetActorSpeed@@YAXPAUTAG_ACTOR_BEHAVIOUR@@QAMM@Z 00454510 f   physics.obj
 0001:00054150       ?SetActorCollSphere@@YAXPAUTAG_ACTOR_BEHAVIOUR@@QAMM@Z 00454590 f   physics.obj
 0001:00054180       ?SetActorCylinder@@YAXHPAUTAG_ACTOR_BEHAVIOUR@@QAMMMH@Z 004545c0 f   physics.obj
 0001:000541d0       ?AddActorVelocity@@YAXPAUTAG_ACTOR_BEHAVIOUR@@QAM@Z 00454610 f   physics.obj
 0001:00054240       ?AddActorSpeed@@YAXPAUTAG_ACTOR_BEHAVIOUR@@QAMM@Z 00454680 f   physics.obj
 0001:000542e0       ?checkSpeedLimit@@YAXPAUTAG_ACTOR_PHYSICS@@M@Z 00454720 f   physics.obj
 0001:00054350       ?ProcessActorBehaviour@@YAPAUTAG_COLL_MESHINFO@@PAUTAG_ACTORINSTANCE@@PAPAUTAG_COLLISIONLISTENTRY@@HPAPAU2@PAUTAG_COLL_CYLINDER@@H2PAUTAG_COLL_SPHERE@@HIPAU1@@Z 00454790 f   physics.obj
 0001:00054f70       ??1ATLASSPHERE@@QAE@XZ     004553b0 f   atlasphere.obj
 0001:00054fa0       ?calculateAI@ATLASSPHERE@@QAEXMM@Z 004553e0 f   atlasphere.obj
 0001:00055190       ?applySphereRotationToActor@ATLASSPHERE@@QAEXXZ 004555d0 f   atlasphere.obj
 0001:000551b0       ?calculateRoll@ATLASSPHERE@@QAEXXZ 004555f0 f   atlasphere.obj
 0001:00055380       ?calculateSphereCollision@ATLASSPHERE@@QAEXXZ 004557c0 f   atlasphere.obj
 0001:00055610       ?originSetNormal@ATLASSPHERE@@QAEXPAUTAG_ACTORINSTANCE@@@Z 00455a50 f   atlasphere.obj
 0001:000556d0       ?originSetAtlas@ATLASSPHERE@@QAEXPAUTAG_ACTORINSTANCE@@@Z 00455b10 f   atlasphere.obj
 0001:00055790       ?draw@ATLASSPHERE@@QAEXXZ  00455bd0 f   atlasphere.obj
 0001:000557d0       ??0ATLASSPHERE@@QAE@PAUTAG_ACTORINSTANCE@@PAD@Z 00455c10 f   atlasphere.obj
 0001:00055970       ?beforeYouCallAnythingElseCallThis@ATLASSPHERE@@QAEXXZ 00455db0 f   atlasphere.obj
 0001:00055a10       ?lerp@TAG_VEC@@QBE?AU1@ABU1@M@Z 00455e50 f i floorpolisher.obj
 0001:00055a60       ?visible@POLISHERINFO@@QAE_N_N0@Z 00455ea0 f   floorpolisher.obj
 0001:00055b80       ?updateBoundingBox@POLISHERINFO@@QAEXXZ 00455fc0 f   floorpolisher.obj
 0001:00055c10       ?updateTrailTail@POLISHERINFO@@AAEXXZ 00456050 f   floorpolisher.obj
 0001:00055e70       ?InitFloorPolishers@@YAXXZ 004562b0 f   floorpolisher.obj
 0001:00055f80       ?ShutdownFloorPolishers@@YAXXZ 004563c0 f   floorpolisher.obj
 0001:00055fa0       ?UpdateFloorPolisherReflections@@YAXQAUTAG_ACTORINSTANCE@@@Z 004563e0 f   floorpolisher.obj
 0001:00056100       ?drawTrailPart@POLISHERINFO@@AAEXEW4FPTrailDrawPass@@@Z 00456540 f   floorpolisher.obj
 0001:000565d0       ?drawTrailZTemplate@POLISHERINFO@@AAEXXZ 00456a10 f   floorpolisher.obj
 0001:00056670       ?drawTrailParts@POLISHERINFO@@AAEXXZ 00456ab0 f   floorpolisher.obj
 0001:00056720       ?ChooseCorrectTazOnFloorPolisherAnimations@@YAXPAUTAG_ACTORINSTANCE@@PAUTAG_PADCONTROLSTATUS@@@Z 00456b60 f   floorpolisher.obj
 0001:00056890       ?FloorPolisherSoundCallback@@YAXPAX@Z 00456cd0 f   floorpolisher.obj
 0001:000568e0       ?init@FPTRAILSTAR@@QAEXQAM@Z 00456d20 f   floorpolisher.obj
 0001:00056960       ?getYoungest@?$LOOPARRAY@U_TBPrimVertex@@$0KC@@@QAEPAU_TBPrimVertex@@H@Z 00456da0 f i floorpolisher.obj
 0001:00056990       ?copyToBuffer@?$LOOPARRAY@U_TBPrimVertex@@$0KC@@@QAEXQAU_TBPrimVertex@@@Z 00456dd0 f i floorpolisher.obj
 0001:000569f0       ?discardOldest@?$LOOPARRAY@UFPTRAILSTAR@@$0DG@@@QAEXI@Z 00456e30 f i floorpolisher.obj
 0001:00056a50       ?discardOldest@?$LOOPARRAY@U_TBPrimVertex@@$0KC@@@QAEXI@Z 00456e90 f i floorpolisher.obj
 0001:00056ab0       ?init@POLISHERINFO@@QAEXXZ 00456ef0 f   floorpolisher.obj
 0001:00056bd0       ?prepareTrailPrims@POLISHERINFO@@AAEXXZ 00457010 f   floorpolisher.obj
 0001:00056d30       ?DrawFloorPolisher@@YAXQAUTAG_ACTORINSTANCE@@@Z 00457170 f   floorpolisher.obj
 0001:00056ee0       ?RespondToFloorPolisherCollision@@YAHPAUTAG_ACTORINSTANCE@@0@Z 00457320 f   floorpolisher.obj
 0001:000571b0       ?CharacterRespondToFloorPolisherControl@@YAXPAUTAG_PADCONTROLSTATUS@@PAUTAG_CAMERAINFO@@PAUTAG_ACTORINSTANCE@@@Z 004575f0 f   floorpolisher.obj
 0001:000576b0       ?getNew@?$LOOPARRAY@U_TBPrimVertex@@$0KC@@@QAEPAU_TBPrimVertex@@I@Z 00457af0 f i floorpolisher.obj
 0001:00057750       ?getItem@?$LOOPARRAY@U_TBPrimVertex@@$0KC@@@QAEPAU_TBPrimVertex@@H@Z 00457b90 f i floorpolisher.obj
 0001:00057790       ??0?$LOOPARRAY@UFPTRAILSTAR@@$0DG@@@QAE@QBD@Z 00457bd0 f i floorpolisher.obj
 0001:000577e0       ?getNew@?$LOOPARRAY@UFPTRAILSTAR@@$0DG@@@QAEPAUFPTRAILSTAR@@I@Z 00457c20 f i floorpolisher.obj
 0001:00057880       ?CreateFloorPolisherInfo@@YAPAUPOLISHERINFO@@XZ 00457cc0 f   floorpolisher.obj
 0001:00057930       ?CreateFloorPolisher@@YAXPAUTAG_ACTORINSTANCE@@@Z 00457d70 f   floorpolisher.obj
 0001:00057960       ?UpdateFloorPolisher@@YAXQAUTAG_ACTORINSTANCE@@@Z 00457da0 f   floorpolisher.obj
 0001:00058150       ?RespondToHovercraftCollision@@YAHPAUTAG_ACTORINSTANCE@@0@Z 00458590 f   hovercraft.obj
 0001:000583b0       ?CharacterRespondToHovercraftControl@@YAXPAUTAG_PADCONTROLSTATUS@@PAUTAG_CAMERAINFO@@PAUTAG_ACTORINSTANCE@@@Z 004587f0 f   hovercraft.obj
 0001:000586d0       ?CreateHovercraft@@YAXPAUTAG_ACTORINSTANCE@@@Z 00458b10 f   hovercraft.obj
 0001:00058700       ?RespondToMineCartCollision@@YAHPAUTAG_ACTORINSTANCE@@0@Z 00458b40 f   minecart.obj
 0001:00058970       ?AnimateMineCart@@YAXPAUTAG_ACTORINSTANCE@@@Z 00458db0 f   minecart.obj
 0001:00058a00       ?CharacterRespondToMineCartInput@@YAXPAUTAG_PADCONTROLSTATUS@@PAUTAG_CAMERAINFO@@PAUTAG_ACTORINSTANCE@@@Z 00458e40 f   minecart.obj
 0001:000594a0       ?CharacterRespondToGhostTownRide@@YAXPAUTAG_PADCONTROLSTATUS@@PAUTAG_CAMERAINFO@@PAUTAG_ACTORINSTANCE@@@Z 004598e0 f   minecart.obj
 0001:00059990       ?CharacterRespondWestHubSevenMineCart@@YAXPAUTAG_PADCONTROLSTATUS@@PAUTAG_CAMERAINFO@@PAUTAG_ACTORINSTANCE@@@Z 00459dd0 f   minecart.obj
 0001:00059b00       ?RespondToMineCartDummyCollision@@YAHPAUTAG_ACTORINSTANCE@@0@Z 00459f40 f   minecart.obj
 0001:00059b70       ?StartMineCartTumble@@YAXPAUTAG_ACTORINSTANCE@@@Z 00459fb0 f   minecart.obj
 0001:00059c30       ?TumbleMineCart@@YAHPAUTAG_ACTORINSTANCE@@@Z 0045a070 f   minecart.obj
 0001:00059cd0       ?StartMineCartFire@@YAXPAUTAG_ACTORINSTANCE@@@Z 0045a110 f   minecart.obj
 0001:00059dd0       ?MineCartOnFire@@YAHPAUTAG_ACTORINSTANCE@@@Z 0045a210 f   minecart.obj
 0001:00059e70       ?StartMineCartDrop@@YAXPAUTAG_ACTORINSTANCE@@@Z 0045a2b0 f   minecart.obj
 0001:00059f40       ?DropMineCart@@YAHPAUTAG_ACTORINSTANCE@@@Z 0045a380 f   minecart.obj
 0001:00059fe0       ?StartMineCartMissingRailAction@@YAXPAUTAG_ACTORINSTANCE@@W4EDefaultPath@@@Z 0045a420 f   minecart.obj
 0001:0005a130       ?DoMissingRailStuff@@YAHPAUTAG_ACTORINSTANCE@@@Z 0045a570 f   minecart.obj
 0001:0005a200       ?ResetMinecartFadeDownCallback@@YAXPAVTAG_FADE@@@Z 0045a640 f   minecart.obj
 0001:0005a480       ?ResetMinecartAfterCompletion@@YAXPAUTAG_ACTORINSTANCE@@@Z 0045a8c0 f   minecart.obj
 0001:0005a530       ?UpdateMinecartSparks@@YAXPAUTAG_ACTORINSTANCE@@@Z 0045a970 f   minecart.obj
 0001:0005a7f0       ?DrawMinecartSparks@@YAXPAUTAG_ACTORINSTANCELIST@@@Z 0045ac30 f   minecart.obj
 0001:0005a970       ?TragicMinecartEventSounds@@YAHPAUTAG_MINECARTINFO@@PAD@Z 0045adb0 f   minecart.obj
 0001:0005a9d0       ?ResetMinecartAfterResetEvent@@YAXPAUTAG_ACTORINSTANCE@@@Z 0045ae10 f   minecart.obj
 0001:0005aaf0       ?CreateMineCart@@YAXPAUTAG_ACTORINSTANCE@@I@Z 0045af30 f   minecart.obj
 0001:0005ae40       ?UpdateMineCart@@YAXPAUTAG_ACTORINSTANCE@@@Z 0045b280 f   minecart.obj
 0001:0005bb20       ?RespondToRocketbikeCollision@@YAHPAUTAG_ACTORINSTANCE@@0@Z 0045bf60 f   rocketbike.obj
 0001:0005be00       ?ChooseCorrectTazOnRocketbikeAnimations@@YAXPAUTAG_ACTORINSTANCE@@PAUTAG_PADCONTROLSTATUS@@@Z 0045c240 f   rocketbike.obj
 0001:0005c150       ?CreateRocketbike@@YAXPAUTAG_ACTORINSTANCE@@@Z 0045c590 f   rocketbike.obj
 0001:0005c1a0       ?CharacterRespondToRocketbikeControl@@YAXPAUTAG_PADCONTROLSTATUS@@PAUTAG_CAMERAINFO@@PAUTAG_ACTORINSTANCE@@@Z 0045c5e0 f   rocketbike.obj
 0001:0005c780       ?RespondToTrolleyCollision@@YAHPAUTAG_ACTORINSTANCE@@0@Z 0045cbc0 f   trolley.obj
 0001:0005ca70       ?ChooseCorrectTazOnTrolleyAnimations@@YAXPAUTAG_ACTORINSTANCE@@PAUTAG_PADCONTROLSTATUS@@@Z 0045ceb0 f   trolley.obj
 0001:0005cf10       ?CreateTrolley@@YAXPAUTAG_ACTORINSTANCE@@@Z 0045d350 f   trolley.obj
 0001:0005cf40       ?CharacterRespondToTrolleyControl@@YAXPAUTAG_PADCONTROLSTATUS@@PAUTAG_CAMERAINFO@@PAUTAG_ACTORINSTANCE@@@Z 0045d380 f   trolley.obj
 0001:0005d380       ?UpdateVehicles@@YAXQAUTAG_ACTORINSTANCELIST@@@Z 0045d7c0 f   vehicles.obj
 0001:0005d3f0       ?DrawVehicles@@YAXQAUTAG_ACTORINSTANCELIST@@@Z 0045d830 f   vehicles.obj
 0001:0005d470       ?CreateVehicle@@YAHPAUTAG_ACTORINSTANCE@@H@Z 0045d8b0 f   vehicles.obj
 0001:0005d590       ??0TAG_SECURITYBOX@@QAE@QAM0IPAVCPMNode@@1@Z 0045d9d0 f i ResetTutorial.obj
 0001:0005d5c0       ?GetTutOneInfo@@YAXXZ      0045da00 f   ResetTutorial.obj
 0001:0005e260       ?GetTutThreeInfo@@YAXXZ    0045e6a0 f   ResetTutorial.obj
 0001:0005e360       ?ResetTutorialOne@@YAXXZ   0045e7a0 f   ResetTutorial.obj
 0001:0005e840       ?ResetTutorialThree@@YAXXZ 0045ec80 f   ResetTutorial.obj
 0001:0005ea30       ?GetTutorialAreaInfo@@YAXXZ 0045ee70 f   ResetTutorial.obj
 0001:0005ea40       ?CreateSnowball@@YAPAUTAG_DEBRIS@@PAUTAG_ACTORINSTANCE@@QAM1M1IPADMM@Z 0045ee80 f   snowball.obj
 0001:0005ec90       ?ShutdownSpecial@@YAXH@Z   0045f0d0 f   special.obj
 0001:0005ee80       ?PrepSpecial@@YAXH@Z       0045f2c0 f   special.obj
 0001:0005eeb0       ?DrawSpecial@@YAXHPAUTAG_CAMERAINFO@@@Z 0045f2f0 f   special.obj
 0001:0005ef50       ?DrawSpecial2@@YAXHPAUTAG_CAMERAINFO@@H@Z 0045f390 f   special.obj
 0001:0005f070       ?CloseTutInfBook@@YAXXZ    0045f4b0 f   special.obj
 0001:0005f090       ?OpenTutInfBook@@YAXXZ     0045f4d0 f   special.obj
 0001:0005f0b0       ?StartFrankenMachine@@YAXPAD@Z 0045f4f0 f   special.obj
 0001:0005f230       ?EndFrankenMachine@@YAXXZ  0045f670 f   special.obj
 0001:0005f340       ?InitialiseSpecial@@YAXH@Z 0045f780 f   special.obj
 0001:0005fa40       ?UpdateFrankenMachine@@YAXXZ 0045fe80 f   special.obj
 0001:0005fb30       ?UpdateSpecial@@YAXH@Z     0045ff70 f   special.obj
 0001:00060060       ??0TAG_ICON@@QAE@PADQBD@Z  004604a0 f i tutorial.obj
 0001:000600c0       ?getRequiredWidth@TAG_ICON@@UAEMXZ 00460500 f i tutorial.obj
 0001:000600c0       ?getRequiredHeight@TAG_ICON@@UAEMXZ 00460500 f i tutorial.obj
 0001:000600d0       ?setTexture@TAG_ICON@@QAE_NPAD@Z 00460510 f i tutorial.obj
 0001:00060130       ?shutdown@TAG_ICON@@UAEXXZ 00460570 f i tutorial.obj
 0001:00060140       ?Tutorial_paperBookCloseCallback@@YAXQAUTAG_PAPERBOOK@@@Z 00460580 f   tutorial.obj
 0001:000601c0       ?ExitTutorialArea@@YAXH@Z  00460600 f   tutorial.obj
 0001:000602d0       ?tutorialFirstPageCallback@@YAXXZ 00460710 f   tutorial.obj
 0001:000602e0       ?tutorialCentralPageCallback@@YAXXZ 00460720 f   tutorial.obj
 0001:00060300       ?tutorialLastPageCallback@@YAXXZ 00460740 f   tutorial.obj
 0001:00060310       ?KillTutorial@@YAXXZ       00460750 f   tutorial.obj
 0001:00060350       ??1TAG_ICON@@UAE@XZ        00460790 f i tutorial.obj
 0001:00060350       ??1TAG_SLIDER@@UAE@XZ      00460790 f i shadow.obj
 0001:00060350       ??1TAG_CHECKBOX@@UAE@XZ    00460790 f i shadow.obj
 0001:00060350       ??1TAG_TEXTBOX@@UAE@XZ     00460790 f i doors.obj
 0001:00060350       ??1TAG_BRICKDISPLAY@@UAE@XZ 00460790 f i WestBoss.obj
 0001:00060350       ??1GOLFBAR@@UAE@XZ         00460790 f i WestBoss.obj
 0001:00060350       ??1SPINNER@@UAE@XZ         00460790 f i shadow.obj
 0001:00060360       ?AddTutorialChapterText@@YAXPAUTAG_PAGE@@HH@Z 004607a0 f   tutorial.obj
 0001:000604a0       ??0TAG_PAPERBOOK@@QAE@QBD@Z 004608e0 f i tutorial.obj
 0001:00060510       ?setRect@TAG_BOOK@@MAEPAUTAG_PAGEITEM@@ABUTAG_RECTANGLE@@@Z 00460950 f i tutorial.obj
 0001:00060520       ?draw@TAG_BOOK@@MAEXXZ     00460960 f i tutorial.obj
 0001:00060530       ??_GTAG_PAPERBOOK@@UAEPAXI@Z 00460970 f i tutorial.obj
 0001:00060530       ??_ETAG_PAPERBOOK@@UAEPAXI@Z 00460970 f i tutorial.obj
 0001:00060550       ??1TAG_PAPERBOOK@@UAE@XZ   00460990 f i tutorial.obj
 0001:000605a0       ?createTutorialBookPages@@YAXXZ 004609e0 f   tutorial.obj
 0001:00061e00       ??A?$LINKEDLIST@UBOOKCHAPTER@@@@QAEAAUBOOKCHAPTER@@H@Z 00462240 f i tutorial.obj
 0001:00061ed0       ?restrictToChapter@TAG_BOOK@@QAEXH@Z 00462310 f i tutorial.obj
 0001:00061f10       ?initTutorial@@YAXXZ       00462350 f   tutorial.obj
 0001:00062050       ?InitTutorialBook@@YAXH@Z  00462490 f   tutorial.obj
 0001:00062100       ?EnterTutorialArea@@YAXH@Z 00462540 f   tutorial.obj
 0001:000621f0       ?doTutorial@@YAHH@Z        00462630 f   tutorial.obj
 0001:000622a0       ?InitActorList@@YAXXZ      004626e0 f   actors.obj
 0001:000622c0       ?AddActorToActorList@@YAXPAU_TBActor@@PADI@Z 00462700 f   actors.obj
 0001:00062380       ?AddActorToActorListByCRC@@YAXPAU_TBActor@@II@Z 004627c0 f   actors.obj
 0001:000623f0       ?SubActorFromActorList@@YAPAU_TBActor@@I@Z 00462830 f   actors.obj
 0001:00062440       ?LoadSet@@YAHPAD0@Z        00462880 f   actors.obj
 0001:000624f0       ?FreeActor@@YAHI@Z         00462930 f   actors.obj
 0001:00062530       ?FreeAllActors@@YAXXZ      00462970 f   actors.obj
 0001:000625a0       ?FreeAllPermanentActors@@YAXXZ 004629e0 f   actors.obj
 0001:00062600       ?FindActorInstanceInInstanceList@@YAPAUTAG_ACTORINSTANCE@@PADIPAUTAG_ACTORINSTANCELIST@@@Z 00462a40 f   actors.obj
 0001:00062660       ?FindActorInActorList@@YAPAU_TBActor@@PAD@Z 00462aa0 f   actors.obj
 0001:000626b0       ?FindActorInActorList@@YAPAU_TBActor@@I@Z 00462af0 f   actors.obj
 0001:000626e0       ?InitActorInstanceList@@YAXPAUTAG_ACTORINSTANCELIST@@@Z 00462b20 f   actors.obj
 0001:00062710       ?SetInstanceListParms@@YAXPAUTAG_ACTORINSTANCELIST@@H@Z 00462b50 f   actors.obj
 0001:00062720       ?InitActorStructures@@YAXPAUTAG_ACTORINSTANCE@@@Z 00462b60 f   actors.obj
 0001:000627c0       ?CreateActorInstance@@YAPAUTAG_ACTORINSTANCE@@PAUTAG_ACTORINSTANCELIST@@PAD1QAM22F@Z 00462c00 f   actors.obj
 0001:00062a30       ?AddInstanceToInstanceList@@YAXPAUTAG_ACTORINSTANCE@@PAUTAG_ACTORINSTANCELIST@@@Z 00462e70 f   actors.obj
 0001:00062a80       ?RemoveInstanceFromInstanceList@@YAXPAUTAG_ACTORINSTANCE@@PAUTAG_ACTORINSTANCELIST@@@Z 00462ec0 f   actors.obj
 0001:00062ac0       ?CreateActorInstanceFromActorPtr@@YAPAUTAG_ACTORINSTANCE@@PAUTAG_ACTORINSTANCELIST@@PAU_TBActor@@IPAD@Z 00462f00 f   actors.obj
 0001:00062c40       ?CreateActorInstanceBehaviour@@YAHPAUTAG_ACTORINSTANCE@@@Z 00463080 f   actors.obj
 0001:00062cc0       ?CreateActorInstanceGenericAI@@YAHPAUTAG_ACTORINSTANCE@@PAUTAG_ACTORINSTANCELIST@@1@Z 00463100 f   actors.obj
 0001:00062d20       ?CreateActorInstanceAnimation@@YAHPAUTAG_ACTORINSTANCE@@@Z 00463160 f   actors.obj
 0001:00062d70       ?CreateActorInstanceStatus@@YAHPAUTAG_ACTORINSTANCE@@@Z 004631b0 f   actors.obj
 0001:00062dc0       ?CreateActorInstanceShadow@@YAHPAUTAG_ACTORINSTANCE@@MMMW4_ShadowType@@@Z 00463200 f   actors.obj
 0001:00062e40       ?CreateActorInstanceCharacterInfo@@YAHPAUTAG_ACTORINSTANCE@@I@Z 00463280 f   actors.obj
 0001:00062e90       ?CreateActorInstancePathInfo@@YAHPAUTAG_ACTORINSTANCE@@@Z 004632d0 f   actors.obj
 0001:00062f40       ?FreeDestructibleInfo@@YAXPAUTAG_DESTRUCTIBLEOBJECTINFO@@@Z 00463380 f   actors.obj
 0001:00063020       ?FreeActorInstanceMemory@@YAXPAUTAG_ACTORINSTANCE@@H@Z 00463460 f   actors.obj
 0001:00063850       ?FreeAllActorInstances@@YAXPAUTAG_ACTORINSTANCELIST@@@Z 00463c90 f   actors.obj
 0001:000638d0       ?DrawActorInstances@@YAXPAUTAG_ACTORINSTANCELIST@@I@Z 00463d10 f   actors.obj
 0001:00063b20       ?DrawActorInstancesDetails@@YAXPAUTAG_ACTORINSTANCELIST@@@Z 00463f60 f   actors.obj
 0001:000641c0       ?CalculateCurrentAlphaActor@@YAXPAUTAG_ACTORINSTANCE@@MMMMM@Z 00464600 f   actors.obj
 0001:00064360       ?CalculateCurrentAlpha@@YAXPAUTAG_ACTORINSTANCELIST@@MMMMM@Z 004647a0 f   actors.obj
 0001:000643b0       ?AnimateActorInstance@@YAXPAUTAG_ACTORINSTANCE@@@Z 004647f0 f   actors.obj
 0001:00064580       ?AnimateActorInstances@@YAXPAUTAG_ACTORINSTANCELIST@@@Z 004649c0 f   actors.obj
 0001:000645b0       ?EnableActorLineRenderMode@@YAXPAU_TBActorInstance@@PAU_TBActRenderMode_Outlined@@@Z 004649f0 f   actors.obj
 0001:00064600       ?EnableActorLineOnlyRenderMode@@YAXPAU_TBActorInstance@@PAU_TBActRenderMode_Outlined@@@Z 00464a40 f   actors.obj
 0001:00064640       ?DisableActorCartoonRenderMode@@YAXPAU_TBActorInstance@@@Z 00464a80 f   actors.obj
 0001:00064670       ?SetActorOrientation@@YAXPAUTAG_ACTORINSTANCE@@QAM@Z 00464ab0 f   actors.obj
 0001:000646d0       ?SetActorPosition@@YAXPAUTAG_ACTORINSTANCE@@QAM@Z 00464b10 f   actors.obj
 0001:00064700       ?SetCollisionCallback@@YAXPAUTAG_ACTORINSTANCE@@P6AH00@Z@Z 00464b40 f   actors.obj
 0001:00064710       ?SetPreCollisionCallback@@YAXPAUTAG_ACTORINSTANCE@@P6AH00PAUTAG_PRECOLLINFO@@@Z@Z 00464b50 f   actors.obj
 0001:00064720       ?SetOutsideBoundingBoxCallback@@YAXPAUTAG_ACTORINSTANCE@@P6AH00@Z@Z 00464b60 f   actors.obj
 0001:00064730       ?DrawActorInstanceZones@@YAXPAUTAG_ACTORINSTANCELIST@@@Z 00464b70 f   actors.obj
 0001:000651b0       ?LoadActor@@YAHPAD0H@Z     004655f0 f   actors.obj
 0001:00065270       ?LoadActor@@YAHPAD0PAU_TBPackageIndex@@@Z 004656b0 f   actors.obj
 0001:00065300       ?FreeActor@@YAHPAD@Z       00465740 f   actors.obj
 0001:00065360       ?FreeActorInstance@@YAHPAUTAG_ACTORINSTANCE@@H@Z 004657a0 f   actors.obj
 0001:000653f0       ?DrawActorInstances2@@YAXPAUTAG_ACTORINSTANCELIST@@@Z 00465830 f   actors.obj
 0001:00065590       ?PrepActorInstances@@YAXPAUTAG_ACTORINSTANCELIST@@@Z 004659d0 f   actors.obj
 0001:000657d0       ?EnableActorCartoonRenderMode@@YAXPAU_TBActorInstance@@PAU_TBActRenderMode_CartoonLit@@PAU_TBActRenderMode_Outlined@@@Z 00465c10 f   actors.obj
 0001:000658d0       ?ChangeActorInstance@@YAHPAUTAG_ACTORINSTANCE@@PAU_TBActor@@H1H@Z 00465d10 f   actors.obj
 0001:00065b90       ?InitActorAnimation@@YAXPAUTAG_ACTOR_ANIMATION@@@Z 00465fd0 f   animation.obj
 0001:00065bd0       ?SetToStartFrame@@YAXPAUTAG_ACTORINSTANCE@@PAD@Z 00466010 f   animation.obj
 0001:00065c00       ?PlayAnimationBySegmentPointerAndSetCallback@@YAHPAU_TBActorInstance@@PAU_TBActorAnimSegment@@MDDMP6AHW4EBQueueCallbackReason@@0PAU_TBActorNodeInstance@@1PAX@Z4@Z 00466040 f   animation.obj
 0001:00065cf0       ?CurrentAnimation@@YAPAU_TBActorAnimSegment@@PAU_TBActorInstance@@@Z 00466130 f   animation.obj
 0001:00065cf0       ?CurrentAnimation@@YAPAU_TBActorAnimSegment@@PAUTAG_ACTORINSTANCE@@@Z 00466130 f   animation.obj
 0001:00065d20       ?CheckIfPlayingAnimationPointedTo@@YAHQAU_TBActorInstance@@QBU_TBActorAnimSegment@@@Z 00466160 f   animation.obj
 0001:00065d70       ?UpdateActorAnimation@@YAXPAUTAG_ACTORINSTANCE@@@Z 004661b0 f   animation.obj
 0001:00065ec0       ?ClearCurrentAnimationPriority@@YAXPAUTAG_ACTORINSTANCE@@@Z 00466300 f   animation.obj
 0001:00065ef0       ?FlushAnimationQueue@@YAXPAUTAG_ACTORINSTANCE@@H@Z 00466330 f   animation.obj
 0001:00065f20       ?FlushAnimationQueue@@YAXPAU_TBActorInstance@@H@Z 00466360 f   animation.obj
 0001:00065f40       ?PlayFixedBlendOfTwoAnimations@@YAHPAU_TBActorInstance@@PAD1PAUTAG_ANIMBLENDINFO@@MHM@Z 00466380 f   animation.obj
 0001:00066170       ?SetCallbackOnLastAnimInQueue@@YAHPAU_TBActorInstance@@P6AHW4EBQueueCallbackReason@@0PAU_TBActorNodeInstance@@PAU_TBActorAnimSegment@@PAX@Z4@Z 004665b0 f   animation.obj
 0001:000661e0       ?SetCallbackOnNamedAnimation@@YAHPAU_TBActorInstance@@PADP6AHW4EBQueueCallbackReason@@0PAU_TBActorNodeInstance@@PAU_TBActorAnimSegment@@PAX@Z5@Z 00466620 f   animation.obj
 0001:00066260       ?SetToEndFrame@@YAXPAUTAG_ACTORINSTANCE@@PAD@Z 004666a0 f   animation.obj
 0001:000662d0       ?PlayAnimationByNameAndSetCallback@@YAHPAU_TBActorInstance@@PADMDDMP6AHW4EBQueueCallbackReason@@0PAU_TBActorNodeInstance@@PAU_TBActorAnimSegment@@PAX@Z5@Z 00466710 f   animation.obj
 0001:00066340       ?PlayAnimationBySegmentPointer@@YAHPAU_TBActorInstance@@PAU_TBActorAnimSegment@@MDDMW4EAnimationPriority@@@Z 00466780 f   animation.obj
 0001:00066440       ?RandomlyPlayAnimationBySegmentPointer@@YAHPAU_TBActorInstance@@PAU_TBActorAnimSegment@@MDDMW4EAnimationPriority@@@Z 00466880 f   animation.obj
 0001:000665a0       ?GetPriorityOfCurrentAnimation@@YAHPAUTAG_ACTORINSTANCE@@@Z 004669e0 f   animation.obj
 0001:000665d0       ?PlayAnimationByName@@YAHPAU_TBActorInstance@@PADMDDMW4EAnimationPriority@@@Z 00466a10 f   animation.obj
 0001:00066630       ?RandomlyPlayAnimationByName@@YAHPAU_TBActorInstance@@PADMDDMW4EAnimationPriority@@@Z 00466a70 f   animation.obj
 0001:00066690       ?PlayAnimationBySegmentPointer@@YAHPAUTAG_ACTORINSTANCE@@PAU_TBActorAnimSegment@@MDDMW4EAnimationPriority@@@Z 00466ad0 f   animation.obj
 0001:000667e0       ?PlayAnimationBySegmentPointerPart@@YAHPAUTAG_ACTORINSTANCE@@PAU_TBActorAnimSegment@@MDDMW4EAnimationPriority@@PAU_TBActorNodeInstance@@@Z 00466c20 f   animation.obj
 0001:000668e0       ?PlayAnimationByName@@YAHPAUTAG_ACTORINSTANCE@@PADMDDMW4EAnimationPriority@@@Z 00466d20 f   animation.obj
 0001:00066940       ?PlayAnimationByCRCOfName@@YAHPAUTAG_ACTORINSTANCE@@IMDDMW4EAnimationPriority@@@Z 00466d80 f   animation.obj
 0001:000669a0       ?PlayAnimationByNamePart@@YAHPAUTAG_ACTORINSTANCE@@PADMDDMW4EAnimationPriority@@PAU_TBActorNodeInstance@@@Z 00466de0 f   animation.obj
 0001:00066a00       ?InitAttachedInfo@@YAXPAUTAG_ACTORINSTANCE@@@Z 00466e40 f   attach.obj
 0001:00066a30       ?AttachObjectToCharacter@@YAHPAUTAG_ACTORINSTANCE@@PAD1QAM22H@Z 00466e70 f   attach.obj
 0001:00066be0       ?SetAttachedObjectAlpha@@YAHPAUTAG_ACTORINSTANCE@@HM@Z 00467020 f   attach.obj
 0001:00066c40       ?RemoveObjectFromCharacter@@YAXPAUTAG_ACTORINSTANCE@@H@Z 00467080 f   attach.obj
 0001:00066c80       ?PrepAttachedObjects@@YAXPAUTAG_ACTORINSTANCE@@@Z 004670c0 f   attach.obj
 0001:000670e0       ?DrawAttachedObjects@@YAXPAUTAG_ACTORINSTANCE@@@Z 00467520 f   attach.obj
 0001:00067190       ?DrawAttachedObjects2@@YAXPAUTAG_ACTORINSTANCE@@@Z 004675d0 f   attach.obj
 0001:00067250       ?UpdateAttachedObjects@@YAXPAUTAG_ACTORINSTANCE@@@Z 00467690 f   attach.obj
 0001:00067290       ?ReturnAttachedObjectInstance@@YAPAU_TBActorInstance@@PAUTAG_ACTORINSTANCE@@H@Z 004676d0 f   attach.obj
 0001:000672b0       ?GetAttachedObjectsWorldPosition@@YAXPAUTAG_ACTORINSTANCE@@HQAM@Z 004676f0 f   attach.obj
 0001:000672f0       ?GetAttachedObjectsHandle@@YAHPAUTAG_ACTORINSTANCE@@PAD@Z 00467730 f   attach.obj
 0001:00067340       ?AnimateAttachedObjects@@YAXPAUTAG_ACTORINSTANCE@@PAU_TBActorAnimSegment@@HMDPAX@Z 00467780 f   attach.obj
 0001:00067410       ?FlushAttachedObjects@@YAXPAUTAG_ACTORINSTANCE@@@Z 00467850 f   attach.obj
 0001:00067460       ?DestroyAttachedInfo@@YAXPAUTAG_ACTORINSTANCE@@@Z 004678a0 f   attach.obj
 0001:000674c0       ?InitialiseCharacterInfo@@YAXPAUTAG_ACTORINSTANCE@@I@Z 00467900 f   characters.obj
 0001:00067760       ?PrepCharacterInfo@@YAXPAUTAG_ACTORINSTANCE@@@Z 00467ba0 f   characters.obj
 0001:000677e0       ?PrepInstancesCharacterInfo@@YAXPAUTAG_ACTORINSTANCELIST@@@Z 00467c20 f   characters.obj
 0001:00067810       ?DrawCharacterInfo@@YAXPAUTAG_ACTORINSTANCE@@@Z 00467c50 f   characters.obj
 0001:00067890       ?DrawInstancesCharacterInfo@@YAXPAUTAG_ACTORINSTANCELIST@@@Z 00467cd0 f   characters.obj
 0001:000678e0       ?DrawInstancesCharacterInfo2@@YAXPAUTAG_ACTORINSTANCELIST@@@Z 00467d20 f   characters.obj
 0001:00067940       ?UpdateCharacterInfo@@YAXPAUTAG_ACTORINSTANCE@@@Z 00467d80 f   characters.obj
 0001:00067b60       ?UpdateInstancesCharacterInfo@@YAXPAUTAG_ACTORINSTANCELIST@@@Z 00467fa0 f   characters.obj
 0001:00067b90       ?CharacterRespondToSlideMovementInput@@YAXPAUTAG_PADCONTROLSTATUS@@PAUTAG_CAMERAINFO@@PAUTAG_ACTORINSTANCE@@@Z 00467fd0 f   characters.obj
 0001:00067dd0       ?CharacterRespondToSwingMovementInput@@YAXPAUTAG_PADCONTROLSTATUS@@PAUTAG_CAMERAINFO@@PAUTAG_ACTORINSTANCE@@@Z 00468210 f   characters.obj
 0001:00067f30       ?CharacterRespondToGloverBallMovementInput@@YAXPAUTAG_PADCONTROLSTATUS@@PAUTAG_CAMERAINFO@@PAUTAG_ACTORINSTANCE@@@Z 00468370 f   characters.obj
 0001:00068090       ?CharacterRespondToPortalMovementInput@@YAXPAUTAG_PADCONTROLSTATUS@@PAUTAG_CAMERAINFO@@PAUTAG_ACTORINSTANCE@@@Z 004684d0 f   characters.obj
 0001:00068140       ?CharacterRespondToWaterSlideMovementInput@@YAXPAUTAG_PADCONTROLSTATUS@@PAUTAG_CAMERAINFO@@PAUTAG_ACTORINSTANCE@@@Z 00468580 f   characters.obj
 0001:00068440       ?CharacterRotateToAngle@@YAXPAUTAG_ACTORINSTANCE@@MMMM@Z 00468880 f   characters.obj
 0001:000685c0       ?ChooseMovementAnimationForTaz@@YAPAU_TBActorAnimSegment@@PAUTAG_PADCONTROLSTATUS@@PAUTAG_ACTORINSTANCE@@@Z 00468a00 f   characters.obj
 0001:00068650       ?ChooseMovementAnimationForTazInSphere@@YAPAU_TBActorAnimSegment@@PAUTAG_PADCONTROLSTATUS@@PAUTAG_ACTORINSTANCE@@@Z 00468a90 f   characters.obj
 0001:00068690       ?ChooseIdleAnimationForTaz@@YAPAU_TBActorAnimSegment@@PAUTAG_PADCONTROLSTATUS@@PAUTAG_ACTORINSTANCE@@PAUTAG_CAMERAINFO@@@Z 00468ad0 f   characters.obj
 0001:00068930       ?ChooseIdleAnimationForCredits@@YAPAU_TBActorAnimSegment@@PAUTAG_ACTORINSTANCE@@@Z 00468d70 f   characters.obj
 0001:00068b60       ?ResetCharacterAfterJump@@YAXPAUTAG_ACTORINSTANCE@@@Z 00468fa0 f   characters.obj
 0001:00068bc0       ?TazBite@@YAXPAUTAG_ACTORINSTANCE@@@Z 00469000 f   characters.obj
 0001:00068cb0       ?TazAttack@@YA_NPAUTAG_ACTORINSTANCE@@PADQAM@Z 004690f0 f   characters.obj
 0001:00068e00       ?TazSpit@@YAPAUTAG_DEBRIS@@PAUTAG_ACTORINSTANCE@@HQAM1MM@Z 00469240 f   characters.obj
 0001:00069510       ?TazScare@@YAXPAUTAG_ACTORINSTANCE@@@Z 00469950 f   characters.obj
 0001:000695a0       ?Update@TAG_BLINKEYES@@QAEXXZ 004699e0 f   characters.obj
 0001:00069790       ??0TAG_BLINKEYES@@QAE@XZ   00469bd0 f   characters.obj
 0001:00069800       ?Draw@TAG_BLINKEYES@@QAEXPAUTAG_CAMERAINFO@@@Z 00469c40 f   characters.obj
 0001:00069930       ?DrawBlinkEyes@@YAXPAUTAG_CAMERAINFO@@@Z 00469d70 f   characters.obj
 0001:00069a40       ?DestroyCharacterInfo@@YAXPAUTAG_ACTORINSTANCE@@@Z 00469e80 f   characters.obj
 0001:00069c50       ?CharacterRespondToSpinMovementInput@@YAXPAUTAG_PADCONTROLSTATUS@@PAUTAG_CAMERAINFO@@PAUTAG_ACTORINSTANCE@@_N@Z 0046a090 f   characters.obj
 0001:00069f60       ?CharacterRespondToSteeringControl@@YAXPAUTAG_PADCONTROLSTATUS@@PAUTAG_CAMERAINFO@@PAUTAG_ACTORINSTANCE@@@Z 0046a3a0 f   characters.obj
 0001:00069fd0       ?CharacterRespondToMovementInput@@YAXPAUTAG_PADCONTROLSTATUS@@PAUTAG_CAMERAINFO@@PAUTAG_ACTORINSTANCE@@@Z 0046a410 f   characters.obj
 0001:0006a030       ?CharacterRespondToMouseMovementInput@@YAXPAUTAG_PADCONTROLSTATUS@@PAUTAG_CAMERAINFO@@PAUTAG_ACTORINSTANCE@@@Z 0046a470 f   characters.obj
 0001:0006a070       ?CharacterRespondToMesmerisedMovementInput@@YAXPAUTAG_PADCONTROLSTATUS@@PAUTAG_CAMERAINFO@@PAUTAG_ACTORINSTANCE@@@Z 0046a4b0 f   characters.obj
 0001:0006a0c0       ?CharacterRespondToDebugMovementInput@@YAXPAUTAG_PADCONTROLSTATUS@@PAUTAG_CAMERAINFO@@PAUTAG_ACTORINSTANCE@@@Z 0046a500 f   characters.obj
 0001:0006a180       ?CharacterRespondToMovementInputOnIce@@YAXPAUTAG_PADCONTROLSTATUS@@PAUTAG_CAMERAINFO@@PAUTAG_ACTORINSTANCE@@@Z 0046a5c0 f   characters.obj
 0001:0006a2f0       ?CharacterRespondToMovementInputInSphere@@YAXPAUTAG_PADCONTROLSTATUS@@PAUTAG_CAMERAINFO@@PAUTAG_ACTORINSTANCE@@@Z 0046a730 f   characters.obj
 0001:0006a480       ?CharacterRespondToMovementWhileJumping@@YAXPAUTAG_PADCONTROLSTATUS@@PAUTAG_CAMERAINFO@@PAUTAG_ACTORINSTANCE@@_N@Z 0046a8c0 f   characters.obj
 0001:0006a620       ?UpdateCheats@@YAXXZ       0046aa60 f   Cheats.obj
 0001:0006a690       ?DeactivateCheat@@YA_NW4ECheat@@@Z 0046aad0 f   Cheats.obj
 0001:0006a870       ?DeactivateAllCheats@@YAX_N@Z 0046acb0 f   Cheats.obj
 0001:0006a8b0       ?guiCheatImplemented@@YA_NW4ECheat@@@Z 0046acf0 f   Cheats.obj
 0001:0006a8e0       ?ShutdownCheats@@YAXXZ     0046ad20 f   Cheats.obj
 0001:0006a900       ?LookAtWatch@@YAXXZ        0046ad40 f   Cheats.obj
 0001:0006aa90       ?CheckForWatchLook@@YAXXZ  0046aed0 f   Cheats.obj
 0001:0006abb0       ?timeFreezePauseUpdateFunc@@YAXH@Z 0046aff0 f   Cheats.obj
 0001:0006abc0       ?updateTazCam@@YAXXZ       0046b000 f   Cheats.obj
 0001:0006ad50       ?InitialiseCheats@@YAXXZ   0046b190 f   Cheats.obj
 0001:0006aed0       ?ActivateCheat@@YAXW4ECheat@@@Z 0046b310 f   Cheats.obj
 0001:0006b440       ?ToggleCheat@@YAXW4ECheat@@_N@Z 0046b880 f   Cheats.obj
 0001:0006b4b0       ?checkCheats@@YAXPAUTAG_PLAYERSTATS@@@Z 0046b8f0 f   Cheats.obj
 0001:0006b780       ?ActivateSecretItem@@YAXXZ 0046bbc0 f   collectibles.obj
 0001:0006b790       ?DeactivateSecretItem@@YAXXZ 0046bbd0 f   collectibles.obj
 0001:0006b7a0       ?CreateCollectibleActor@@YAHPADQAMMHDHH@Z 0046bbe0 f   collectibles.obj
 0001:0006ba00       ?CollectibleExtraCreateCallback@@YAXPAU_TBExtraSystem@@PAEPAD@Z 0046be40 f   collectibles.obj
 0001:0006bdb0       ?CollectibleExtraDeleteCallback@@YAHPAU_TBExtraSystem@@PAE@Z 0046c1f0 f   collectibles.obj
 0001:0006be10       ?CollectibleExtraRenderCallback@@YAXPAU_TBExtraSystem@@HPAPAEPAX@Z 0046c250 f   collectibles.obj
 0001:0006c460       ?myStateChangeBubble@@YAXPAUTAG_ACTORINSTANCE@@@Z 0046c8a0 f   collectibles.obj
 0001:0006c570       ?EatBadFoodCallback@@YAXPAUTAG_ACTORINSTANCE@@@Z 0046c9b0 f   collectibles.obj
 0001:0006c680       ?ProcessItemCollected@@YAXPAUTAG_ACTORINSTANCE@@PAUTAG_COLLECTIBLE@@@Z 0046cac0 f   collectibles.obj
 0001:0006d130       ?UpdateCollectibleFoodScaleAndOrientation@@YAXPAUTAG_COLLECTIBLE@@M@Z 0046d570 f   collectibles.obj
 0001:0006d1b0       ?CreatePowerUpBubbles@@YAXPAUTAG_COLLECTIBLE@@@Z 0046d5f0 f   collectibles.obj
 0001:0006d2d0       ?CreateCollectibleTwinkles@@YAXPAUTAG_COLLECTIBLE@@I@Z 0046d710 f   collectibles.obj
 0001:0006d520       ?UpdateTwinkles@@YAHPAUTAG_BUBBLESEXTRA@@@Z 0046d960 f   collectibles.obj
 0001:0006d5e0       ?CreateCollectibleShower@@YAXPAUTAG_COLLECTIBLE@@M@Z 0046da20 f   collectibles.obj
 0001:0006d770       ?UpdateCollectiblesShower@@YAHPAUTAG_BUBBLESEXTRA@@@Z 0046dbb0 f   collectibles.obj
 0001:0006d840       ?ClearCollectibles@@YAXXZ  0046dc80 f   collectibles.obj
 0001:0006d850       ?RemoveScreenScoreMember@@YAXPAUTAG_SCREENSCOREMEMBER@@@Z 0046dc90 f   collectibles.obj
 0001:0006d8a0       ?UpdateScreenScoreList@@YAXXZ 0046dce0 f   collectibles.obj
 0001:0006d9e0       ?DrawScreenScoreList@@YAXXZ 0046de20 f   collectibles.obj
 0001:0006dc00       ?FreeScreenScoreList@@YAXXZ 0046e040 f   collectibles.obj
 0001:0006dc40       ?ScreenScoreRotateToTargetCallback@@YAHW4EBFontCallbackReason@@PAU_TBFontCallbackInfo@@@Z 0046e080 f   collectibles.obj
 0001:0006dd70       ?CreateScreenScoreMember@@YAXQAMPADW4EScreenScoreType@@@Z 0046e1b0 f   collectibles.obj
 0001:0006de70       ?UpdateCollectible@@YAHPAUTAG_COLLECTIBLE@@@Z 0046e2b0 f   collectibles.obj
 0001:0006e640       ?CollectibleExtraUpdateCallback@@YAXPAU_TBExtraSystem@@HPAPAEM@Z 0046ea80 f   collectibles.obj
 0001:0006e9c0       ?InitCollectibleSystem@@YAXXZ 0046ee00 f   collectibles.obj
 0001:0006ea20       ??H@YA?AUTAG_COLOUR@@ABU0@0@Z 0046ee60 f i Colour.obj
 0001:0006eab0       ??0TAG_COLOUR@@QAE@ABU0@0M_N@Z 0046eef0 f   Colour.obj
 0001:0006ebd0       ?RequestMood@TAG_MUSICSYSTEM@@QAEXHW4EStreamMood@@M@Z 0046f010 f i control.obj
 0001:0006ec10       ?State@TAG_CUTSCENE@@QAE?AW4ECutsceneState@@XZ 0046f050 f i control.obj
 0001:0006ecb0       ?Control_init@@YAXXZ       0046f0f0 f   control.obj
 0001:0006ecd0       ?Control_shutdown@@YAXXZ   0046f110 f   control.obj
 0001:0006ecf0       ?ClearSoundHandle@@YAXPAX@Z 0046f130 f   control.obj
 0001:0006ed00       ?CheckForJump@@YA_NQAUTAG_PLAYER@@@Z 0046f140 f   control.obj
 0001:0006ef50       ?CheckForSpin@@YA_NQAUTAG_PLAYER@@@Z 0046f390 f   control.obj
 0001:0006f020       ?HandleLoseCostumeSpin@@YAXQAUTAG_PLAYER@@_N@Z 0046f460 f   control.obj
 0001:0006f0a0       ?SpinDown@@YAXQAUTAG_PLAYER@@@Z 0046f4e0 f   control.obj
 0001:0006f2a0       ?RespondToStateInit@@YA_NPAUTAG_ACTORINSTANCE@@@Z 0046f6e0 f   control.obj
 0001:0006f2d0       ?RespondToStateExit@@YAHPAUTAG_ACTORINSTANCE@@@Z 0046f710 f   control.obj
 0001:0006f490       ?RespondToStateExitPost@@YAXPAUTAG_ACTORINSTANCE@@PAUTAG_ACTOR_STATUS@@@Z 0046f8d0 f   control.obj
 0001:0006f4c0       ?UpdateSlidePitch@@YAXPAUTAG_ACTORINSTANCE@@M@Z 0046f900 f   control.obj
 0001:0006f560       ?UpdateController@@YAXPAUTAG_PADCONTROLSTATUS@@@Z 0046f9a0 f   control.obj
 0001:0006f820       ?CreateInputChannels@@YAXPAUTAG_PADCONTROLSTATUS@@H@Z 0046fc60 f   control.obj
 0001:00070410       ?DeleteInputChannels@@YAXPAUTAG_PADCONTROLSTATUS@@@Z 00470850 f   control.obj
 0001:00070430       ?ClearInputBindings@@YAXPAUTAG_PADCONTROLSTATUS@@@Z 00470870 f   control.obj
 0001:000707e0       ?BindInputChannelsToPort@@YAHQAUTAG_PADCONTROLSTATUS@@E@Z 00470c20 f   control.obj
 0001:00070c70       ?BindInputChannels@@YAHPAUTAG_PADCONTROLSTATUS@@H@Z 004710b0 f   control.obj
 0001:00070cb0       ?bindControllersToDefaultPorts@@YAXXZ 004710f0 f   control.obj
 0001:00070db0       ?checkForStartAndBind@@YA_NAAUTAG_PADCONTROLSTATUS@@QAU1@@Z 004711f0 f   control.obj
 0001:00070e80       ?HandleSquashedState@@YAXQAUTAG_PLAYER@@@Z 004712c0 f   control.obj
 0001:00070f10       ?HandleJumpState@@YAXQAUTAG_PLAYER@@_N1@Z 00471350 f   control.obj
 0001:000715c0       ?HandleSpinUpState@@YAXQAUTAG_PLAYER@@_N@Z 00471a00 f   control.obj
 0001:00071790       ?HandleSpinState@@YAXQAUTAG_PLAYER@@_N@Z 00471bd0 f   control.obj
 0001:00071af0       ?HandleSpinDownState@@YAXQAUTAG_PLAYER@@@Z 00471f30 f   control.obj
 0001:00071e20       ?UpdateCharacterState@@YA_NPAUTAG_PLAYER@@_N@Z 00472260 f   control.obj
 0001:000784a0       ?checkForMissingControllers2@@YAX_N@Z 004788e0 f   control.obj
 0001:00078960       ?ProcessInput@@YAXPAUTAG_PLAYER@@@Z 00478da0 f   control.obj
 0001:00078d30       ?cdKillTimer@@YAXH@Z       00479170 f   countdown.obj
 0001:00078d50       ?DebrisExtraCreateCallback@@YAXPAU_TBExtraSystem@@PAEPAD@Z 00479190 f   debris.obj
 0001:00078f90       ?SmokeExtraCreateCallback@@YAXPAU_TBExtraSystem@@PAEPAD@Z 004793d0 f   debris.obj
 0001:00079070       ?BubblesExtraCreateCallback@@YAXPAU_TBExtraSystem@@PAEPAD@Z 004794b0 f   debris.obj
 0001:00079130       ?DebrisExtraDeleteCallback@@YAHPAU_TBExtraSystem@@PAE@Z 00479570 f   debris.obj
 0001:00079220       ?BubblesExtraDeleteCallback@@YAHPAU_TBExtraSystem@@PAE@Z 00479660 f   debris.obj
 0001:00079220       ?TarBubbleExtraDeleteCallback@@YAHPAU_TBExtraSystem@@PAE@Z 00479660 f   tarbubble.obj
 0001:00079220       ?FireworksExtraDeleteCallback@@YAHPAU_TBExtraSystem@@PAE@Z 00479660 f   fireworks.obj
 0001:00079220       ?bInitSetPlatformSpecific@@YAHXZ 00479660 f   bActor:pcxbSet.obj
 0001:00079220       ?StaveExtraDeleteCallback@@YAHPAU_TBExtraSystem@@PAE@Z 00479660 f   musicandsavagebeasts.obj
 0001:00079220       ?FireExtraDeleteCallback@@YAHPAU_TBExtraSystem@@PAE@Z 00479660 f   fire.obj
 0001:00079220       ?CrazySparksExtraDeleteCallback@@YAHPAU_TBExtraSystem@@PAE@Z 00479660 f   sparks.obj
 0001:00079220       ?bInitLightsPlatformSpecific@@YAHXZ 00479660 f   bActor:pcxbLights.obj
 0001:00079220       ?CheeseExtraDeleteCallback@@YAHPAU_TBExtraSystem@@PAE@Z 00479660 f   cheesegun.obj
 0001:00079220       ?ScenicFireworksExtraDeleteCallback@@YAHPAU_TBExtraSystem@@PAE@Z 00479660 f   scenicobjects.obj
 0001:00079220       ?VoodooCloudExtraDeleteCallback@@YAHPAU_TBExtraSystem@@PAE@Z 00479660 f   voodoocloud.obj
 0001:00079220       ?HaarExtraDeleteCallback@@YAHPAU_TBExtraSystem@@PAE@Z 00479660 f   haar.obj
 0001:00079220       ?LavaSpitExtraDeleteCallback@@YAHPAU_TBExtraSystem@@PAE@Z 00479660 f   lava.obj
 0001:00079220       ?PrecipitationExtraDeleteCallback@@YAHPAU_TBExtraSystem@@PAE@Z 00479660 f   precipitation.obj
 0001:00079220       ?PlinthGlowExtraDeleteCallback@@YAHPAU_TBExtraSystem@@PAE@Z 00479660 f   glowaroundplinth.obj
 0001:00079220       ?AirconExtraDeleteCallback@@YAHPAU_TBExtraSystem@@PAE@Z 00479660 f   aircon.obj
 0001:00079220       ?FountainExtraDeleteCallback@@YAHPAU_TBExtraSystem@@PAE@Z 00479660 f   fountainextrasystem.obj
 0001:00079220       ?SplashExtraDeleteCallback@@YAHPAU_TBExtraSystem@@PAE@Z 00479660 f   watersplash.obj
 0001:00079220       ?SquishExtraDeleteCallback@@YAHPAU_TBExtraSystem@@PAE@Z 00479660 f   watersplash.obj
 0001:00079220       ?ZzzExtraDeleteCallback@@YAHPAU_TBExtraSystem@@PAE@Z 00479660 f   zzz.obj
 0001:00079220       ?ChilliPepperExtraDeleteCallback@@YAHPAU_TBExtraSystem@@PAE@Z 00479660 f   chillipepper.obj
 0001:00079220       ?WaterfallExtraDeleteCallback@@YAHPAU_TBExtraSystem@@PAE@Z 00479660 f   waterfall.obj
 0001:00079220       ?BuzzardReturnTrueCallback@@YAHPAUTAG_ACTORINSTANCE@@PAUTAG_BUZZARDINFO@@@Z 00479660 f   buzzard.obj
 0001:00079220       ?MangaMagnetExtraDeleteCallback@@YAHPAU_TBExtraSystem@@PAE@Z 00479660 f   mtweetymagnet.obj
 0001:00079220       ?SaveFinished@@YAH_N@Z     00479660 f   MemCard.obj
 0001:00079220       ?bInitActorPlatformSpecific@@YAHXZ 00479660 f   bActor:pcxbActor.obj
 0001:00079220       ?bTextureInit@@YAHXZ       00479660 f   bDisplay:xbTexture.obj
 0001:00079220       ?PhoneBoxExtraDeleteCallback@@YAHPAU_TBExtraSystem@@PAE@Z 00479660 f   phoneboxeffect.obj
 0001:00079220       ?MechaTweetyReturnTrueCallback@@YAHPAUTAG_MECHATWEETYINFO@@@Z 00479660 f   mechatweety.obj
 0001:00079220       ?SmokeExtraDeleteCallback@@YAHPAU_TBExtraSystem@@PAE@Z 00479660 f   debris.obj
 0001:00079230       ?DebrisExtraUpdateCallback@@YAXPAU_TBExtraSystem@@HPAPAEM@Z 00479670 f   debris.obj
 0001:00079b90       ?SmokeExtraUpdateCallback@@YAXPAU_TBExtraSystem@@HPAPAEM@Z 00479fd0 f   debris.obj
 0001:00079c70       ?BubblesExtraUpdateCallback@@YAXPAU_TBExtraSystem@@HPAPAEM@Z 0047a0b0 f   debris.obj
 0001:00079d00       ?DebrisExtraRenderCallback@@YAXPAU_TBExtraSystem@@HPAPAEPAX@Z 0047a140 f   debris.obj
 0001:00079e10       ?SmokeExtraRenderCallback@@YAXPAU_TBExtraSystem@@HPAPAEPAX@Z 0047a250 f   debris.obj
 0001:0007a050       ?BubblesExtraSystemRenderCallback@@YAXPAU_TBExtraSystem@@HPAPAEPAX@Z 0047a490 f   debris.obj
 0001:0007a3f0       ?AddActorBehaviourToDebris@@YAHPAUTAG_DEBRIS@@PAUTAG_ACTORINSTANCE@@@Z 0047a830 f   debris.obj
 0001:0007a4f0       ?InitDebrisSystem@@YAXXZ   0047a930 f   debris.obj
 0001:0007a600       ?AddActorInstanceStructureToDebris@@YAPAUTAG_ACTORINSTANCE@@PAUTAG_DEBRIS@@PAD@Z 0047aa40 f   debris.obj
 0001:0007a720       ?CreateDebrisActor@@YAPAUTAG_DEBRIS@@PADQAM11MMMMHIHHM@Z 0047ab60 f   debris.obj
 0001:0007a7b0       ?CreateDebrisActor@@YAPAUTAG_DEBRIS@@IQAM00MMMMHIHHM@Z 0047abf0 f   debris.obj
 0001:0007a840       ?CreateDebrisActor@@YAPAUTAG_DEBRIS@@PAU_TBTexture@@QAM11MMMMHIHHM@Z 0047ac80 f   debris.obj
 0001:0007a8c0       ?fmemcpy@@YAXPAX0I@Z       0047ad00 f   debug.obj
 0001:0007a980       ?RecordingDemo@@YAXXZ      0047adc0 f   demo.obj
 0001:0007ab30       ?CheckForDemoInterrupt@@YAXXZ 0047af70 f   demo.obj
 0001:0007ac30       ?AttractInterruptButton@@YA_NXZ 0047b070 f   demo.obj
 0001:0007ac70       ?DrawLegalSplashScreen@@YAXXZ 0047b0b0 f   demo.obj
 0001:0007ae00       ?PlayingDemo@@YAXXZ        0047b240 f   demo.obj
 0001:0007aeb0       ?SetFog@@YAXMMUTAG_COLOUR@@@Z 0047b2f0 f   display.obj
 0001:0007af20       ?DrawRectangle@@YAXABUTAG_RECTANGLE@@ABUTAG_COLOUR@@@Z 0047b360 f   display.obj
 0001:0007aff0       ?applyFOV@@YAXXZ           0047b430 f   display.obj
 0001:0007b030       ?overrideStereoscopy@@YAX_N@Z 0047b470 f   display.obj
 0001:0007b0b0       ?setFOV@@YAXMQAUSCREEN@@@Z 0047b4f0 f   display.obj
 0001:0007b210       ?setNumScreens@@YAXHW4ESplitScreenMode@@@Z 0047b650 f   display.obj
 0001:0007b430       ?toggleSplitScreenMode@@YA?AW4ESplitScreenMode@@XZ 0047b870 f   display.obj
 0001:0007b470       ?setWidescreen@@YAX_N@Z    0047b8b0 f   display.obj
 0001:0007b500       ?setFilmBorders@@YAX_N0@Z  0047b940 f   display.obj
 0001:0007b520       ?drawFilmBorders@@YAXXZ    0047b960 f   display.obj
 0001:0007b6e0       ?ScaleScreenVectorFromPS2@@YAXQAM@Z 0047bb20 f   display.obj
 0001:0007b730       ?initDisplay@@YAXXZ        0047bb70 f   display.obj
 0001:0007b850       ?SetupDisplay@@YAHPAUTAG_DISPLAYSETTINGS@@@Z 0047bc90 f   display.obj
 0001:0007b9c0       ?FadeFieldOfView@@YAXXZ    0047be00 f   display.obj
 0001:0007ba40       ?SetFadeFieldOfView@@YAXMM@Z 0047be80 f   display.obj
 0001:0007baa0       ?overrideWidescreen@@YAX_N0@Z 0047bee0 f   display.obj
 0001:0007bb40       ?pushRenderTarget@@YAHQAU_TBRenderTarget@@HHHHMI@Z 0047bf80 f   display.obj
 0001:0007bbc0       ?popRenderTarget@@YAHHHHHMI@Z 0047c000 f   display.obj
 0001:0007bc10       ?SwitchBetweenScreenModes@@YAXPAUTAG_DISPLAYSETTINGS@@@Z 0047c050 f   display.obj
 0001:0007bc40       ?rightHalf@TAG_RECTANGLE@@QBE?AU1@XZ 0047c080 f i endoflevelstats.obj
 0001:0007bc70       ?FreeStatsDisplays@@YAXXZ  0047c0b0 f   endoflevelstats.obj
 0001:0007bcd0       ?CreateInformPageAtEndOfLevel@@YAXPAUTAG_PLAYERSTATS@@@Z 0047c110 f   endoflevelstats.obj
 0001:0007be50       ??0TAG_PAGE@@QAE@XZ        0047c290 f i endoflevelstats.obj
 0001:0007bed0       ??0TAG_TABLE@@QAE@QBDQ6AXQAUTAG_PAGE@@H@Z22@Z 0047c310 f i endoflevelstats.obj
 0001:0007bf50       ??0TAG_TABLE@@QAE@E@Z      0047c390 f i endoflevelstats.obj
 0001:0007bfd0       ?shutdown@TAG_TABLE@@UAEXXZ 0047c410 f i endoflevelstats.obj
 0001:0007bff0       ??_ETAG_TABLE@@UAEPAXI@Z   0047c430 f i endoflevelstats.obj
 0001:0007bff0       ??_GTAG_TABLE@@UAEPAXI@Z   0047c430 f i endoflevelstats.obj
 0001:0007c010       ??1TAG_TABLE@@UAE@XZ       0047c450 f i endoflevelstats.obj
 0001:0007c070       ?CreateEnterLevelStats@@YAXH@Z 0047c4b0 f   endoflevelstats.obj
 0001:0007d040       ?CreateStatsAtEndOfLevel@@YAHPAUTAG_PLAYERSTATS@@HH@Z 0047d480 f   endoflevelstats.obj
 0001:0007dbf0       ?CreateNameEntryPageAtEndOfLevel@@YAXPAUTAG_PLAYERSTATS@@@Z 0047e030 f   endoflevelstats.obj
 0001:0007e5e0       ?CreateHighScoreTablePage@@YAXPAUTAG_PLAYERSTATS@@W4EScene@@@Z 0047ea20 f   endoflevelstats.obj
 0001:0007eaa0       ?UpdateNameEntryPage@@YAXPAUTAG_PLAYERSTATS@@@Z 0047eee0 f   endoflevelstats.obj
 0001:0007f380       ?UpdateStatsAtEndOfLevel@@YAXPAUTAG_PLAYERSTATS@@@Z 0047f7c0 f   endoflevelstats.obj
 0001:0007fa40       ?CreateEventManagers@@YAHXZ 0047fe80 f   events.obj
 0001:0007fc20       ?CreateEventHandlers@@YAHXZ 00480060 f   events.obj
 0001:0007fe00       ?DeleteEventHandlers@@YAXXZ 00480240 f   events.obj
 0001:0007ff20       ?DeleteEventManagers@@YAXXZ 00480360 f   events.obj
 0001:00080050       ?CreateTriggerInfo@@YAPAUTAG_TRIGGERINFO@@H@Z 00480490 f   events.obj
 0001:000800d0       ?AddTrigger@@YAHPAUTAG_TRIGGERINFO@@PAD1@Z 00480510 f   events.obj
 0001:00080150       ?SendTrigger@@YA_NPAUTAG_TRIGGERINFO@@QAM@Z 00480590 f   events.obj
 0001:000801d0       ?DeleteTriggerInfo@@YAXPAUTAG_TRIGGERINFO@@@Z 00480610 f   events.obj
 0001:00080240       ?AllowedToEnterLevel@@YA_NH@Z 00480680 f   events.obj
 0001:000803f0       ?FindLevel@@YAHPAD@Z       00480830 f   events.obj
 0001:00080430       ?DecodeMessage@@YAPADPADPAPAU_TBActorInstance@@PAPAU_TBActorNodeInstance@@@Z 00480870 f   events.obj
 0001:000804c0       ?RespondToPlatformMessages@@YAXXZ 00480900 f   events.obj
 0001:000807e0       ?RespondToAnimationMessages@@YAXXZ 00480c20 f   events.obj
 0001:00080cc0       ?ghostTrappedCallback@@YAXPAUTAG_ACTORINSTANCE@@@Z 00481100 f   events.obj
 0001:00080cf0       ?RespondToSpecialMessages@@YAXXZ 00481130 f   events.obj
 0001:00081c80       ?RespondToMinecartMessages@@YAXXZ 004820c0 f   events.obj
 0001:000821a0       ?RespondToRumbleMessages@@YAXXZ 004825e0 f   events.obj
 0001:000823c0       ?RespondToPromptMessages@@YAXXZ 00482800 f   events.obj
 0001:00082650       ?CreateTrigger@@YAHPAUTAG_TRIGGERINFO@@PAD1_N@Z 00482a90 f   events.obj
 0001:00082710       ?RespondToFootstepMessages@@YAXXZ 00482b50 f   events.obj
 0001:000828e0       ?RespondToZooBossMessages@@YAXXZ 00482d20 f   events.obj
 0001:00082a70       ?RespondToWestBossMessages@@YAXXZ 00482eb0 f   events.obj
 0001:000832b0       ?RespondToSceneChangeMessages@@YAXXZ 004836f0 f   events.obj
 0001:000836c0       ?RespondToCameraMessages@@YAXXZ 00483b00 f   events.obj
 0001:00083780       ?ProcessTriggerForSpecialTypes@@YAXPAD0@Z 00483bc0 f   events.obj
 0001:00084ed0       ?CopyTriggerInfo@@YAPAUTAG_TRIGGERINFO@@PAU1@@Z 00485310 f   events.obj
 0001:00084f30       ?RespondToTriggerMessages@@YAXXZ 00485370 f   events.obj
 0001:000850e0       ?CloseFileSystem@@YAXXZ    00485520 f   files.obj
 0001:00085140       ?InitialisePackfileIndex@@YAXXZ 00485580 f   files.obj
 0001:00085160       ?AddPackfileToIndex@@YAPAUTAG_PACKAGEENTRY@@PAU_TBPackageIndex@@PAD@Z 004855a0 f   files.obj
 0001:00085210       ?RemovePackfileFromIndex@@YAXPAD@Z 00485650 f   files.obj
 0001:00085290       ?AppendCountryCode@@YAPADPAD0@Z 004856d0 f   files.obj
 0001:00085330       ?FreeWholePackageGroup@@YAXD@Z 00485770 f   files.obj
 0001:00085390       ?FindPackage@@YAPAU_TBPackageIndex@@PAD@Z 004857d0 f   files.obj
 0001:000853f0       ?GetPackageState@@YAHPAD@Z 00485830 f   files.obj
 0001:000854a0       ?openLoadingBooks@@YAXXZ   004858e0 f   files.obj
 0001:00085750       ?closeLoadingBooks@@YAXXZ  00485b90 f   files.obj
 0001:00085770       ?PackageSize@@YAHPAU_TBPackageIndex@@PAD@Z 00485bb0 f   files.obj
 0001:000857f0       ?InitialiseLoadingBar@@YAXH@Z 00485c30 f   files.obj
 0001:00085810       ?AddToLoadingBar@@YAXH@Z   00485c50 f   files.obj
 0001:00085830       ?BytesOnLoadingBar@@YAHXZ  00485c70 f   files.obj
 0001:00085840       ?DrawLoadingBar@@YAXXZ     00485c80 f   files.obj
 0001:00085b70       ?badDisk@@YAXXZ            00485fb0 f   files.obj
 0001:00085d50       ?LoadPackageBkg@@YAPAU_TBPackageIndex@@PAU1@PAD1PAH@Z 00486190 f   files.obj
 0001:00085df0       ?InitLoadBook@@YAXXZ       00486230 f   files.obj
 0001:00086090       ?LoadWholePackage@@YAPAU_TBPackageIndex@@PADD@Z 004864d0 f   files.obj
 0001:00086110       ?LoadWholePackageBkg@@YA_NPAD0D@Z 00486550 f   files.obj
 0001:000861c0       ?PackageLoaded@@YAXPAD0PAX1@Z 00486600 f   files.obj
 0001:00086260       ?FreeWholePackage@@YAXPAD@Z 004866a0 f   files.obj
 0001:000862a0       ?GetCurrentBkgLoadingStatus@@YAHXZ 004866e0 f   files.obj
 0001:00086360       ?DrawLoadLoop@@YAXH@Z      004867a0 f   files.obj
 0001:00086520       ?InitFileSystem@@YAXXZ     00486960 f   files.obj
 0001:00086590       ?LoadFont@@YAPAU_TBFont@@PAD0@Z 004869d0 f   font.obj
 0001:000865e0       ?FreeFont@@YAXPAU_TBFont@@@Z 00486a20 f   font.obj
 0001:000865f0       ?LoadStringTable@@YAPAU_TBStringTable@@PAD0@Z 00486a30 f   font.obj
 0001:00086660       ?FreeStringTable@@YAXPAU_TBStringTable@@@Z 00486aa0 f   font.obj
 0001:00086670       ?ChooseCurrentLanguage@@YAXXZ 00486ab0 f   font.obj
 0001:000866e0       ?IsLevelComplete@@YA_NH@Z  00486b20 f   GlobalSettings.obj
 0001:00086730       ?InitialiseSaveData@TAG_GLOBALSETTINGS@@QAEXXZ 00486b70 f   GlobalSettings.obj
 0001:00086800       ?ReadFromGameSave@TAG_GLOBALSETTINGS@@QAEHXZ 00486c40 f   GlobalSettings.obj
 0001:00086890       ?WriteToGameSave@TAG_GLOBALSETTINGS@@QAEHXZ 00486cd0 f   GlobalSettings.obj
 0001:000868f0       ??0TAG_GLOBALSETTINGS@@QAE@XZ 00486d30 f   GlobalSettings.obj
 0001:00086920       ?toggleWidescreen@@YAXXZ   00486d60 f i gui.obj
 0001:00086940       ?CreateMenuBar@@YAXXZ      00486d80 f   gui.obj
 0001:00087680       ?CreateSceneMenu@@YAXXZ    00487ac0 f   gui.obj
 0001:00087950       ?DisplayGuiInfo@@YAXXZ     00487d90 f   gui.obj
 0001:00087ba0       ?guiChangeScene@@YAXH@Z    00487fe0 f   gui.obj
 0001:00087c50       ?guiCreateEnemy@@YAPAUTAG_ACTORINSTANCE@@PAD00QAM11IH_N2I@Z 00488090 f   gui.obj
 0001:000882c0       ?guiSetCheatTick@@YAXW4ECheat@@@Z 00488700 f   gui.obj
 0001:00088300       ?guiClearCheatTick@@YAXW4ECheat@@@Z 00488740 f   gui.obj
 0001:00088330       ?UpdateGuiItems@@YAXXZ     00488770 f   gui.obj
 0001:00088880       ?SetupConsole@@YAXXZ       00488cc0 f   gui.obj
 0001:00088930       ?FinishLevel@@YAXH_N@Z     00488d70 f   gui.obj
 0001:000889c0       ?ForceWin@@YAXH@Z          00488e00 f   gui.obj
 0001:00088a80       ?ForceLoss@@YAXH@Z         00488ec0 f   gui.obj
 0001:00088b30       ?GuiCallback@@YAHPAU_TBGuiEventInfo@@@Z 00488f70 f   gui.obj
 0001:0008a230       ?InitCharactersHealth@@YAXPAUTAG_CHARACTERINFO@@M@Z 0048a670 f   health.obj
 0001:0008a240       ?IncreaseCharactersBurp@@YAXPAUTAG_CHARACTERINFO@@H@Z 0048a680 f   health.obj
 0001:0008a270       ?KillAllPowerUps@@YAXPAUTAG_ACTORINSTANCE@@@Z 0048a6b0 f   health.obj
 0001:0008a300       ?RespawnAllPowerUps@@YAXXZ 0048a740 f   health.obj
 0001:0008a340       ?ProcessCharacterDeath@@YAXPAUTAG_ACTORINSTANCE@@@Z 0048a780 f   health.obj
 0001:0008a3f0       ?ResetCharacterPropertiesAfterDeath@@YAXPAUTAG_ACTORINSTANCE@@@Z 0048a830 f   health.obj
 0001:0008a430       ?ResetCharacterAfterDeath@@YAXPAUTAG_ACTORINSTANCE@@@Z 0048a870 f   health.obj
 0001:0008a530       ?InitialiseHighScores@@YAXXZ 0048a970 f   highscores.obj
 0001:0008a5b0       ?CalculateRankAtEndOfLevel@@YAMPAUTAG_PLAYERSTATS@@@Z 0048a9f0 f   highscores.obj
 0001:0008a660       ?CalculateRankFromFloat@@YA?AW4EStringIndex@@M@Z 0048aaa0 f   highscores.obj
 0001:0008a6d0       ?ConvertSceneRefToLevelScoreRef@@YA?AW4ELevelScores@@W4EScene@@@Z 0048ab10 f   highscores.obj
 0001:0008a790       ?CheckRankAgainstCurrentTopTen@@YAHPAUTAG_PLAYERSTATS@@W4EScene@@@Z 0048abd0 f   highscores.obj
 0001:0008a7c0       ?AddNewRecordToStats@@YAXPAUTAG_PLAYERSTATS@@W4EScene@@@Z 0048ac00 f   highscores.obj
 0001:0008ab50       ?Skip@TAG_CUTSCENE@@QAEXXZ 0048af90 f i main.obj
 0001:0008ab90       ?Flip@@YAXHHHHH@Z          0048afd0 f   main.obj
 0001:0008aba0       ?InitGameState@@YAXPAUTAG_GAMESTATUS@@@Z 0048afe0 f   main.obj
 0001:0008ac20       ?GetCurrentGameState@@YAHPAUTAG_GAMESTATUS@@@Z 0048b060 f   main.obj
 0001:0008ac30       ?PrintGameText@@YAXPAUTAG_PLAYER@@@Z 0048b070 f   main.obj
 0001:0008b180       ?ApplyGameSpeedAdjustments@@YAXXZ 0048b5c0 f   main.obj
 0001:0008b250       ?FireworksExtraSystemInitCallback@@YAXPAU_TBExtraSystem@@H@Z 0048b690 f   fireworks.obj
 0001:0008b250       ?PrepFrontEnd@@YAXXZ       0048b690 f   frontendmain.obj
 0001:0008b250       ?bFixupAsyncMesh@@YAXPAU_TBAsyncMesh@@PAE@Z 0048b690 f   bActor:pcxbActor.obj
 0001:0008b250       ?CheckMemCardOnBoot@@YAX_NH@Z 0048b690 f   MemCard.obj
 0001:0008b250       ?IncreaseCharactersHealth@@YAXPAUTAG_CHARACTERINFO@@M@Z 0048b690 f   health.obj
 0001:0008b250       ?bDeleteAsyncMesh@@YAXPAU_TBActorNode@@@Z 0048b690 f   bActor:pcxbActor.obj
 0001:0008b250       ?VoodooCloudExtraSystemInitCallback@@YAXPAU_TBExtraSystem@@H@Z 0048b690 f   voodoocloud.obj
 0001:0008b250       ?AirconExtraSystemInitCallback@@YAXPAU_TBExtraSystem@@H@Z 0048b690 f   aircon.obj
 0001:0008b250       ?PhoneBoxPhoneBoxExtraSystemInitCallback@@YAXPAU_TBExtraSystem@@H@Z 0048b690 f   phoneboxeffect.obj
 0001:0008b250       ?SplashExtraSystemInitCallback@@YAXPAU_TBExtraSystem@@H@Z 0048b690 f   watersplash.obj
 0001:0008b250       ?LavaSpitExtraSystemInitCallback@@YAXPAU_TBExtraSystem@@H@Z 0048b690 f   lava.obj
 0001:0008b250       ?preInit@TAG_WESTBOSSGAME@@QAEXXZ 0048b690 f   WestBoss.obj
 0001:0008b250       ?shutdown@PAGEITEMEFFECT@@UAEXXZ 0048b690 f   multiplayer.obj
 0001:0008b250       ?hasClosed@TAG_BOOK@@MAEXXZ 0048b690 f   tutorial.obj
 0001:0008b250       ?ZzzExtraSystemInitCallback@@YAXPAU_TBExtraSystem@@H@Z 0048b690 f   zzz.obj
 0001:0008b250       ?ScenicFireworksExtraSystemInitCallback@@YAXPAU_TBExtraSystem@@H@Z 0048b690 f   scenicobjects.obj
 0001:0008b250       ?DrawSubtitles@@YAXXZ      0048b690 f   subtitle.obj
 0001:0008b250       ??1TAG_SUPERBURP@@QAE@XZ   0048b690 f   superburp.obj
 0001:0008b250       ?ShutdownBarrierSystem@@YAXXZ 0048b690 f   collectibles.obj
 0001:0008b250       ?draw@TAG_MONITOREFFECT@@UAEXXZ 0048b690 f   MonitorFX.obj
 0001:0008b250       ?UpdateCharactersHealthDisplayGeometry@@YAXPAUTAG_ACTORINSTANCE@@@Z 0048b690 f   health.obj
 0001:0008b250       ?bkHeapShow@@YAXIH@Z       0048b690 f   bKernel:xbHeap.obj
 0001:0008b250       ?drawThwap@@YAXXZ          0048b690 f   thwap.obj
 0001:0008b250       ?startDraw@TAG_PAPERBOOK@@MAEXXZ 0048b690 f   tutorial.obj
 0001:0008b250       ?CheeseExtraSystemInitCallback@@YAXPAU_TBExtraSystem@@H@Z 0048b690 f   cheesegun.obj
 0001:0008b250       ?bShutdownGuiHAL@@YAXXZ    0048b690 f   bGui:xbGui.obj
 0001:0008b250       ?init@TAG_BOSSGAME@@UAEXXZ 0048b690 f   Boss.obj
 0001:0008b250       ??1TAG_WESTBOSSEXPLOSION@@QAE@XZ 0048b690 f   WestBossExp.obj
 0001:0008b250       ?AlignFeet@@YAXPAUTAG_ACTORINSTANCE@@@Z 0048b690 f   footalign.obj
 0001:0008b250       ?bShutdownDebug@@YAXXZ     0048b690 f   bKernel:xbDebug.obj
 0001:0008b250       ?bShutdownSetPlatformSpecific@@YAXXZ 0048b690 f   bActor:pcxbSet.obj
 0001:0008b250       ?pauseOptionsMenuActionFunc@@YAXAAUMENUACTION_INFO@@@Z 0048b690 f   pause.obj
 0001:0008b250       ?SmokeExtraSystemInitCallback@@YAXPAU_TBExtraSystem@@H@Z 0048b690 f   debris.obj
 0001:0008b250       ?bShutdownTimer@@YAXXZ     0048b690 f   bKernel:xbTimer.obj
 0001:0008b250       ?bShutdownActorPlatformSpecific@@YAXXZ 0048b690 f   bActor:pcxbActor.obj
 0001:0008b250       ?mainDraw@TAG_PAGEITEM@@MAEXXZ 0048b690 f   TextFX.obj
 0001:0008b250       ?TarBubbleExtraSystemInitCallback@@YAXPAU_TBExtraSystem@@H@Z 0048b690 f   tarbubble.obj
 0001:0008b250       ?CrazySparksPhoneBoxExtraSystemInitCallback@@YAXPAU_TBExtraSystem@@H@Z 0048b690 f   sparks.obj
 0001:0008b250       ?mpPageClose@@YAXQAUTAG_PAGE@@H@Z 0048b690 f   multiplayer.obj
 0001:0008b250       ?CollectibleExtraSystemInitCallback@@YAXPAU_TBExtraSystem@@H@Z 0048b690 f   collectibles.obj
 0001:0008b250       ?DebrisExtraSystemInitCallback@@YAXPAU_TBExtraSystem@@H@Z 0048b690 f   debris.obj
 0001:0008b250       ?VFX_focusFar@@YAXM_N@Z    0048b690 f   VideoFX.obj
 0001:0008b250       ?DrawCharactersHealth@@YAXPAUTAG_ACTORINSTANCE@@@Z 0048b690 f   health.obj
 0001:0008b250       ?FireExtraSystemInitCallback@@YAXPAU_TBExtraSystem@@H@Z 0048b690 f   fire.obj
 0001:0008b250       ?update@TAG_MONITOREFFECT@@UAEXXZ 0048b690 f   MonitorFX.obj
 0001:0008b250       ?UpdatePromptBook@@YAXXZ   0048b690 f   prompt.obj
 0001:0008b250       ?ResetCharactersHealth@@YAXPAUTAG_CHARACTERINFO@@@Z 0048b690 f   health.obj
 0001:0008b250       ?SquishExtraSystemInitCallback@@YAXPAU_TBExtraSystem@@H@Z 0048b690 f   watersplash.obj
 0001:0008b250       ?BubblesExtraSystemInitCallback@@YAXPAU_TBExtraSystem@@H@Z 0048b690 f   debris.obj
 0001:0008b250       ?PlinthGlowExtraSystemInitCallback@@YAXPAU_TBExtraSystem@@H@Z 0048b690 f   glowaroundplinth.obj
 0001:0008b250       ?ExplosionExtraSystemInitCallback@@YAXPAU_TBExtraSystem@@H@Z 0048b690 f   explode.obj
 0001:0008b250       ?bInitMaths@@YAXXZ         0048b690 f   bMaths:xbbMaths.obj
 0001:0008b250       ?UpdateCartoonLight@@YAXPAUTAG_CAMERAINFO@@@Z 0048b690 f   lights.obj
 0001:0008b250       ?DefaultPausePredrawFunc@@YAXH@Z 0048b690 f   main.obj
 0001:0008b250       ?VFX_focusNear@@YAXM_N@Z   0048b690 f   VideoFX.obj
 0001:0008b250       ?VFX_focusPostDraw@@YAXXZ  0048b690 f   VideoFX.obj
 0001:0008b250       ?PrepCharactersHealth@@YAXPAUTAG_ACTORINSTANCE@@@Z 0048b690 f   health.obj
 0001:0008b250       ?MemCard_updateFunc_CANCELED@@YAXQAUTAG_PAGE@@H@Z 0048b690 f   MemCard.obj
 0001:0008b250       ?ReduceCharactersHealth@@YAXPAUTAG_ACTORINSTANCE@@M@Z 0048b690 f   health.obj
 0001:0008b250       ?WaterfallExtraSystemInitCallback@@YAXPAU_TBExtraSystem@@H@Z 0048b690 f   waterfall.obj
 0001:0008b250       ?VFX_focusSetBlurFactor@@YAXH@Z 0048b690 f   VideoFX.obj
 0001:0008b250       ?TakeScreenShot@@YAXXZ     0048b690 f   main.obj
 0001:0008b250       ?MemCard_XboxUpdateFunc_HARDDISK_SAVE@@YAXQAUTAG_PAGE@@H@Z 0048b690 f   MemCard.obj
 0001:0008b250       ?ChilliPepperExtraSystemInitCallback@@YAXPAU_TBExtraSystem@@H@Z 0048b690 f   chillipepper.obj
 0001:0008b250       ?Draw@TAG_SUPERBURP@@QAEXXZ 0048b690 f   superburp.obj
 0001:0008b250       ?bShutdownGameSave@@YAXXZ  0048b690 f   bInput:xbSave.obj
 0001:0008b250       ?DrawFrontEnd@@YAXXZ       0048b690 f   frontendmain.obj
 0001:0008b250       ?VFX_focusPreDraw@@YAXXZ   0048b690 f   VideoFX.obj
 0001:0008b250       ?InitBarrierSystem@@YAXXZ  0048b690 f   collectibles.obj
 0001:0008b250       ?VFX_focusReset@@YAXXZ     0048b690 f   VideoFX.obj
 0001:0008b250       ?MangaMagnetExtraSystemInitCallback@@YAXPAU_TBExtraSystem@@H@Z 0048b690 f   mtweetymagnet.obj
 0001:0008b250       ?VFX_focusBlur@@YAXXZ      0048b690 f   VideoFX.obj
 0001:0008b250       ?StaveExtraSystemInitCallback@@YAXPAU_TBExtraSystem@@H@Z 0048b690 f   musicandsavagebeasts.obj
 0001:0008b250       ?endDraw@TAG_PAPERBOOK@@MAEXXZ 0048b690 f   tutorial.obj
 0001:0008b250       ?bShutdownLightsPlatformSpecific@@YAXXZ 0048b690 f   bActor:pcxbLights.obj
 0001:0008b250       ?draw@TAG_BOSSGAME@@UAEXXZ 0048b690 f   special.obj
 0001:0008b250       ?bShutdownMaths@@YAXXZ     0048b690 f   bMaths:xbbMaths.obj
 0001:0008b250       ?Shockwave_draw@@YAXXZ     0048b690 f   shockwave.obj
 0001:0008b250       ?postShutdown@TAG_WESTBOSSGAME@@QAEXXZ 0048b690 f   WestBoss.obj
 0001:0008b250       ?DrawDebugInfo@@YAXPAUTAG_ACTORINSTANCELIST@@@Z 0048b690 f   genericai.obj
 0001:0008b250       ?PrecipitationExtraSystemInitCallback@@YAXPAU_TBExtraSystem@@H@Z 0048b690 f   precipitation.obj
 0001:0008b250       ?bdSetScreenOffset@@YAXHH@Z 0048b690 f   bDisplay:xbDisplay.obj
 0001:0008b250       ?bUnlockSurface@@YAXPAUD3DSurface@@@Z 0048b690 f   bDisplay:xbDisplay.obj
 0001:0008b250       ?FountainExtraSystemInitCallback@@YAXPAU_TBExtraSystem@@H@Z 0048b690 f   fountainextrasystem.obj
 0001:0008b250       ?VFX_releasePermanentRenderTarget@@YAXXZ 0048b690 f   VideoFX.obj
 0001:0008b250       ?HaarExtraSystemInitCallback@@YAXPAU_TBExtraSystem@@H@Z 0048b690 f   haar.obj
 0001:0008b260       ?doCorporateStuff@@YAXXZ   0048b6a0 f   main.obj
 0001:0008b4c0       ??0TAG_DISPLAYSETTINGS@@QAE@XZ 0048b900 f i main.obj
 0001:0008b500       ?MainLoop@@YAXHP6AXH@ZH0H@Z 0048b940 f   main.obj
 0001:0008bc40       ?SetGameState@@YAXPAUTAG_GAMESTATUS@@W4EGameState@@W4ESubGameState@@HH@Z 0048c080 f   main.obj
 0001:0008bd30       ?ChangeScene@@YAHPAUTAG_GAMESTATUS@@H@Z 0048c170 f   main.obj
 0001:0008bfc0       ?ProcessLevelOutro@@YAXXZ  0048c400 f   main.obj
 0001:0008c630       ?GameStateIntro@@YAXXZ     0048ca70 f   main.obj
 0001:0008cd80       ?MainSplash@@YAXXZ         0048d1c0 f   main.obj
 0001:0008cfa0       ?Main@@YAXPAX@Z            0048d3e0 f   main.obj
 0001:0008db40       _main                      0048df80 f   main.obj
 0001:0008db60       ?Init@TAG_MAP@@AAEHXZ      0048dfa0 f   map.obj
 0001:0008ddd0       ??1TAG_MAP@@QAE@XZ         0048e210 f   map.obj
 0001:0008dde0       ?GetMapPositionOfCurrentPoster@TAG_MAP@@QAEXQAM@Z 0048e220 f   map.obj
 0001:0008de40       ?FindClosestPoint@TAG_MAP@@AAEPAUTAG_MAPPOINT@@QAM@Z 0048e280 f   map.obj
 0001:0008dec0       ?AddPoint@TAG_MAP@@QAEXQAMFFEE@Z 0048e300 f   map.obj
 0001:0008df80       ?PosterCompleted@TAG_MAP@@QAEXH@Z 0048e3c0 f   map.obj
 0001:0008dfc0       ?DrawPolaroid@@YAXXZ       0048e400 f   map.obj
 0001:0008e4c0       ?UpdateInGameCameraCase@@YAXXZ 0048e900 f   map.obj
 0001:0008e720       ?StartIngameCameraCase@@YAXH@Z 0048eb60 f   map.obj
 0001:0008e8a0       ?Draw@TAG_MAP@@QAEXQAM@Z   0048ece0 f   map.obj
 0001:0008ee40       ?Update@TAG_MAP@@QAEXXZ    0048f280 f   map.obj
 0001:0008f050       ??0TAG_SPINPAD@@QAE@QAM0H@Z 0048f490 f i mapfile.obj
 0001:0008f070       ?IsActorInstanceValid@@YA_NPAUTAG_ACTORINSTANCE@@@Z 0048f4b0 f   mapfile.obj
 0001:0008f100       ?FindActorInstanceInMap@@YAPAUTAG_ACTORINSTANCE@@PADIPAUTAG_MAPINFO@@@Z 0048f540 f   mapfile.obj
 0001:0008f230       ?FreeActorInstances@@YAXQBDQAUTAG_ACTORINSTANCELIST@@@Z 0048f670 f   mapfile.obj
 0001:0008f310       ?PrepareMap@@YAHPAUTAG_MAPINFO@@@Z 0048f750 f   mapfile.obj
 0001:0008f4e0       ?DrawMapSet@@YAXPAUTAG_MAPINFO@@PAUTAG_CAMERAINFO@@@Z 0048f920 f   mapfile.obj
 0001:0008f5a0       ?DrawMapSetAlpha@@YAXPAUTAG_MAPINFO@@PAUTAG_CAMERAINFO@@@Z 0048f9e0 f   mapfile.obj
 0001:0008f690       ?DrawMap@@YAHPAUTAG_MAPINFO@@@Z 0048fad0 f   mapfile.obj
 0001:0008f8f0       ?DrawMap2@@YAHPAUTAG_MAPINFO@@@Z 0048fd30 f   mapfile.obj
 0001:0008f9f0       ?UpdateInstanceList@@YAXPAUTAG_ACTORINSTANCELIST@@@Z 0048fe30 f   mapfile.obj
 0001:0008fd00       ?UpdateMap@@YAHPAUTAG_MAPINFO@@@Z 00490140 f   mapfile.obj
 0001:0008feb0       ?ReceiveAttrib@@YAHPAVCPMAttrib@@PAX@Z 004902f0 f   mapfile.obj
 0001:0008fee0       ?ReceiveAttribAndCreateTrigger@@YAHPAVCPMAttrib@@PAX@Z 00490320 f   mapfile.obj
 0001:0008ffb0       ?GetTrigger@@YAPAUTAG_TRIGGERINFO@@PADPAVCPMNode@@@Z 004903f0 f   mapfile.obj
 0001:00090010       ?ReceiveWaterAttribAndStoreObject@@YAHPAVCPMAttrib@@PAX@Z 00490450 f   mapfile.obj
 0001:00090080       ?GetWaterResetObjectsFromMap@@YAPAUTAG_WATERRESETINFO@@PADPAVCPMNode@@@Z 004904c0 f   mapfile.obj
 0001:000900f0       ?ReceiveElectricityPathAttribAndStoreObject@@YAHPAVCPMAttrib@@PAX@Z 00490530 f   mapfile.obj
 0001:00090140       ?GetElectricityPathNodesFromMap@@YAPAUTAG_ELECTRICITYPATHINFO@@PADPAVCPMNode@@@Z 00490580 f   mapfile.obj
 0001:000901b0       ?ReceiveSparkAttribAndStoreTexture@@YAHPAVCPMAttrib@@PAX@Z 004905f0 f   mapfile.obj
 0001:00090220       ?GetSparkTexturesFromMap@@YAPAUTAG_SPARKINFO@@PADPAVCPMNode@@@Z 00490660 f   mapfile.obj
 0001:000902f0       ?ReceiveDebrisAttribAndStore@@YAHPAVCPMAttrib@@PAX@Z 00490730 f   mapfile.obj
 0001:000903d0       ?collateWorldNodes@@YAHPAVCPMNode@@PAX@Z 00490810 f   mapfile.obj
 0001:00090db0       ?SendPosterCompleteMessages@@YAXXZ 004911f0 f   mapfile.obj
 0001:00090e50       ?ChangeAttributes@@YAXPAUTAG_MAPOBJECTATTRIBS@@PAVCPMNode@@@Z 00491290 f   mapfile.obj
 0001:00094a60       ?GetDebrisObjectsFromMap@@YAPAUTAG_DESTRUCTIBLEDEBRISINFO@@PADPAVCPMNode@@@Z 00494ea0 f   mapfile.obj
 0001:00094ae0       ?FillInAttributes@@YAXPAUTAG_MAPOBJECTATTRIBS@@PAVCPMNode@@@Z 00494f20 f   mapfile.obj
 0001:00094e50       ??0TAG_CUTSCENE@@QAE@PADH@Z 00495290 f i mapfile.obj
 0001:00094e80       ?collateObjectInstances@@YAHPAVCPMNode@@PAX@Z 004952c0 f   mapfile.obj
 0001:000985c0       ?collateObjectsNodes@@YAHPAVCPMNode@@PAX@Z 00498a00 f   mapfile.obj
 0001:00098730       ?LoadLOMFile@@YAHPAD@Z     00498b70 f   mapfile.obj
 0001:00098a50       ?FreeAllCactie@@YAXXZ      00498e90 f i mapfile.obj
 0001:00098b20       ?InitialiseMap@@YAHPAUTAG_MAPINFO@@@Z 00498f60 f   mapfile.obj
 0001:00098dc0       ?FreeMap@@YAHPAUTAG_MAPINFO@@@Z 00499200 f   mapfile.obj
 0001:00098f50       ?Aabs@@YAMM@Z              00499390 f   maths.obj
 0001:00098f80       ?GetAngleAroundYFromQuat@@YAMQAM@Z 004993c0 f   maths.obj
 0001:00098fe0       ?FindShortestAngle@@YAMMM@Z 00499420 f   maths.obj
 0001:00099060       ?FindShortestAngleSigned@@YAMMM@Z 004994a0 f   maths.obj
 0001:000990b0       ?GetAngleAroundYFromVector@@YAMQAM@Z 004994f0 f   maths.obj
 0001:00099110       ?ClipVector@@YAXQAM00M@Z   00499550 f   maths.obj
 0001:00099180       ?CreateQuatFromPoints@@YAXQAM00M@Z 004995c0 f   maths.obj
 0001:00099220       ?CalcCurve@@YAXQAM000HQAY03M@Z 00499660 f   maths.obj
 0001:000994b0       ?FindPointOnCurve@@YAXQAM0000M@Z 004998f0 f   maths.obj
 0001:000996b0       ?VectorQuatMultiply@@YAXQAM0@Z 00499af0 f   maths.obj
 0001:00099720       ?SafeScaleToLength@@YAXQAM0M@Z 00499b60 f   maths.obj
 0001:000997a0       ?QuatSlerpAtFixedSpeed@@YAHQAMQBM1M@Z 00499be0 f   maths.obj
 0001:00099830       ??1TAG_MEMCARDBOOK@@UAE@XZ 00499c70 f i MemCard.obj
 0001:00099890       ?MemCard_save@@YAXQAXPAGHQ6AH_N@Z@Z 00499cd0 f   MemCard.obj
 0001:00099910       ?MemCard_load@@YAXQAXPAGHQ6AH_N@Z@Z 00499d50 f   MemCard.obj
 0001:00099970       ?MemCard_shutdown@@YAXXZ   00499db0 f   MemCard.obj
 0001:00099990       ??0TAG_MEMCARDBOOK@@QAE@XZ 00499dd0 f   MemCard.obj
 0001:000999f0       ??_ETAG_MEMCARDBOOK@@UAEPAXI@Z 00499e30 f i MemCard.obj
 0001:000999f0       ??_GTAG_MEMCARDBOOK@@UAEPAXI@Z 00499e30 f i MemCard.obj
 0001:00099a10       ?ok@TAG_MEMCARDBOOK@@QAEXXZ 00499e50 f   MemCard.obj
 0001:00099a40       ?update@TAG_MEMCARDBOOK@@UAEXXZ 00499e80 f   MemCard.obj
 0001:00099ad0       ?LoadFinished@@YAH_N@Z     00499f10 f   MemCard.obj
 0001:00099b10       ?LoadGame@@YAX_N@Z         00499f50 f   MemCard.obj
 0001:00099b80       ?SaveGame@@YAXH_N@Z        00499fc0 f   MemCard.obj
 0001:00099d70       ?InitialiseSaveGameSlot@@YAXIW4EDifficulty@@@Z 0049a1b0 f   MemCard.obj
 0001:00099e30       ?MemCard_XboxUpdateFunc_DAMAGED_GAME@@YAXQAUTAG_PAGE@@H@Z 0049a270 f   MemCard.obj
 0001:0009a030       ?MemCard_XboxOpenFunc_HARDDISK_FULL@@YAXQAUTAG_PAGE@@H@Z 0049a470 f   MemCard.obj
 0001:0009a080       ?MemCard_XboxUpdateFunc_HARDDISK_FULL@@YAXQAUTAG_PAGE@@H@Z 0049a4c0 f   MemCard.obj
 0001:0009a250       ?MemCard_init@@YAXXZ       0049a690 f   MemCard.obj
 0001:0009a9d0       ?MemCard_update@@YAXXZ     0049ae10 f   MemCard.obj
 0001:0009aa70       ?CheckMemCardOnStart@@YAXXZ 0049aeb0 f   MemCard.obj
 0001:0009aaf0       ?QueueAudio@TAG_MUSICSYSTEM@@QAEHHHPADMMW4EStreamMood@@@Z 0049af30 f   music.obj
 0001:0009ab40       ?Stop@TAG_STREAM@@QAEXXZ   0049af80 f   music.obj
 0001:0009ab90       ?SetVolume@TAG_STREAM@@QAEXHM@Z 0049afd0 f   music.obj
 0001:0009abd0       ?RequestMood@TAG_STREAM@@QAEXW4EStreamMood@@M@Z 0049b010 f   music.obj
 0001:0009ac00       ?Play@TAG_STREAM@@QAE_NXZ  0049b040 f   music.obj
 0001:0009ac70       ?FreeAudioStream@TAG_STREAM@@AAEXXZ 0049b0b0 f   music.obj
 0001:0009acd0       ?Reset@TAG_STREAM@@QAEXXZ  0049b110 f   music.obj
 0001:0009ad00       ?LoadAudioStream@TAG_STREAM@@QAEHPAU_TBPackageIndex@@PAD@Z 0049b140 f   music.obj
 0001:0009ae00       ?SetDestVolume@TAG_STREAM@@QAEXHMMH@Z 0049b240 f   music.obj
 0001:0009ae70       ?IsMusicPlaying@TAG_MUSICSYSTEM@@QAE_NPAD@Z 0049b2b0 f   music.obj
 0001:0009aec0       ?ReadyAudio@TAG_MUSICSYSTEM@@QAEHPAD@Z 0049b300 f   music.obj
 0001:0009af70       ?StartAudio@TAG_MUSICSYSTEM@@QAEHHHPADMMW4EStreamMood@@@Z 0049b3b0 f   music.obj
 0001:0009b030       ??0TAG_STREAM@@QAE@XZ      0049b470 f   music.obj
 0001:0009b080       ?Update@TAG_STREAM@@QAEXXZ 0049b4c0 f   music.obj
 0001:0009b410       ?InitialiseMusicSystem@TAG_MUSICSYSTEM@@QAEHXZ 0049b850 f   music.obj
 0001:0009b4a0       ?FadeDownAudio@TAG_MUSICSYSTEM@@QAEXHHMMH@Z 0049b8e0 f   music.obj
 0001:0009b530       ?UpdateMusicSystem@TAG_MUSICSYSTEM@@QAEXXZ 0049b970 f   music.obj
 0001:0009b5a0       ?ChooseMusic@TAG_MUSICSYSTEM@@QAEXHW4EMusicType@@W4EMusicState@@PAD@Z 0049b9e0 f   music.obj
 0001:0009b6d0       ?ShutdownMusicSystem@TAG_MUSICSYSTEM@@QAEXXZ 0049bb10 f   music.obj
 0001:0009b750       ?FreeObjectViewer@@YAXXZ   0049bb90 f   objectviewer.obj
 0001:0009b7a0       ?InitViewerGrid@@YAXXZ     0049bbe0 f   objectviewer.obj
 0001:0009b800       ?DrawViewerGround@@YAXXZ   0049bc40 f   objectviewer.obj
 0001:0009bb40       ?DrawZones@@YAXXZ          0049bf80 f   objectviewer.obj
 0001:0009c5c0       ?DrawObjectViewer@@YAXPAU_TBFont@@@Z 0049ca00 f   objectviewer.obj
 0001:000a0050       ?PrepViewerForUpdate@@YAXXZ 004a0490 f   objectviewer.obj
 0001:000a0410       ?UpdateObjectViewer@@YAXXZ 004a0850 f   objectviewer.obj
 0001:000a0e60       ?InitObjectViewer@@YAXXZ   004a12a0 f   objectviewer.obj
 0001:000a10f0       ?Find@CPMAttrib@@QAEPAV1@PAD@Z 004a1530 f   ParseMap.obj
 0001:000a1130       ??0CPMNode@@QAE@XZ         004a1570 f   ParseMap.obj
 0001:000a11a0       ?GetNodeType@@YADPAD@Z     004a15e0 f   ParseMap.obj
 0001:000a1210       ?FindChar@@YAPADPADH@Z     004a1650 f   ParseMap.obj
 0001:000a1240       ?AddAttrib@CPMNode@@QAEXPAD0@Z 004a1680 f   ParseMap.obj
 0001:000a1300       ?AddAttrib@CPMNode@@QAEXPADH@Z 004a1740 f   ParseMap.obj
 0001:000a1370       ?AddAttrib@CPMNode@@QAEXPADM@Z 004a17b0 f   ParseMap.obj
 0001:000a1400       ?AddAttrib@CPMNode@@QAEXPAD_N@Z 004a1840 f   ParseMap.obj
 0001:000a1470       ?GetAttrib@CPMNode@@QAEPADPAD@Z 004a18b0 f   ParseMap.obj
 0001:000a14a0       ?GetAttrib@CPMNode@@QAEHPADAAH@Z 004a18e0 f   ParseMap.obj
 0001:000a14d0       ?GetAttrib@CPMNode@@QAEHPADAAM@Z 004a1910 f   ParseMap.obj
 0001:000a1500       ?GetAttrib@CPMNode@@QAEHPADAA_N@Z 004a1940 f   ParseMap.obj
 0001:000a1530       ?EnumAttribs@CPMNode@@QAEHP6AHPAVCPMAttrib@@PAX@Z1@Z 004a1970 f   ParseMap.obj
 0001:000a1570       ?EnumNodes@CPMNode@@QAEHP6AHPAV1@PAX@Z1PAD@Z 004a19b0 f   ParseMap.obj
 0001:000a15e0       ??0CPMLevel@@QAE@XZ        004a1a20 f   ParseMap.obj
 0001:000a1660       ?EnumNodes@CPMLevel@@QAEHP6AHPAVCPMNode@@PAX@Z1PAD@Z 004a1aa0 f   ParseMap.obj
 0001:000a1720       ?pmOpenFile@@YAPAU_TPMFile@@PADHH@Z 004a1b60 f   ParseMap.obj
 0001:000a18d0       ?pmCloseFile@@YAXPAU_TPMFile@@@Z 004a1d10 f   ParseMap.obj
 0001:000a1930       ?DeleteAll@CPMAttrib@@QAEXXZ 004a1d70 f   ParseMap.obj
 0001:000a19b0       ??0CPMNode@@QAE@PAV0@@Z    004a1df0 f   ParseMap.obj
 0001:000a1a50       ??1CPMNode@@QAE@XZ         004a1e90 f   ParseMap.obj
 0001:000a1ae0       ?Read@CPMNode@@QAEHPAU_TPMFile@@@Z 004a1f20 f   ParseMap.obj
 0001:000a1de0       ?pmLoadLevel@@YAPAVCPMLevel@@PADHH@Z 004a2220 f   ParseMap.obj
 0001:000a1e90       ?pmDeleteLevel@@YAXPAVCPMLevel@@@Z 004a22d0 f   ParseMap.obj
 0001:000a1ec0       ?KeyCount@@YAHPAVCPMAttrib@@PAX@Z 004a2300 f   paths.obj
 0001:000a1f00       ?PositionKeyFrame@@YAHPAVCPMAttrib@@PAX@Z 004a2340 f   paths.obj
 0001:000a1f50       ?PositionKeyX@@YAHPAVCPMAttrib@@PAX@Z 004a2390 f   paths.obj
 0001:000a1f90       ?PositionKeyY@@YAHPAVCPMAttrib@@PAX@Z 004a23d0 f   paths.obj
 0001:000a1fd0       ?PositionKeyZ@@YAHPAVCPMAttrib@@PAX@Z 004a2410 f   paths.obj
 0001:000a2010       ?ScaleKeyFrame@@YAHPAVCPMAttrib@@PAX@Z 004a2450 f   paths.obj
 0001:000a2060       ?ScaleKeyX@@YAHPAVCPMAttrib@@PAX@Z 004a24a0 f   paths.obj
 0001:000a20a0       ?ScaleKeyY@@YAHPAVCPMAttrib@@PAX@Z 004a24e0 f   paths.obj
 0001:000a20e0       ?ScaleKeyZ@@YAHPAVCPMAttrib@@PAX@Z 004a2520 f   paths.obj
 0001:000a2120       ?RotKeyFrame@@YAHPAVCPMAttrib@@PAX@Z 004a2560 f   paths.obj
 0001:000a2170       ?RotKeyX@@YAHPAVCPMAttrib@@PAX@Z 004a25b0 f   paths.obj
 0001:000a21b0       ?RotKeyY@@YAHPAVCPMAttrib@@PAX@Z 004a25f0 f   paths.obj
 0001:000a21f0       ?RotKeyZ@@YAHPAVCPMAttrib@@PAX@Z 004a2630 f   paths.obj
 0001:000a2230       ?RotKeyW@@YAHPAVCPMAttrib@@PAX@Z 004a2670 f   paths.obj
 0001:000a2270       ?CollateAnimStream@@YAHPAVCPMNode@@PAX@Z 004a26b0 f   paths.obj
 0001:000a2500       ?InitialisePathList@@YAXXZ 004a2940 f   paths.obj
 0001:000a2520       ?AddPathToList@@YAXPAUTAG_PATH@@PAD@Z 004a2960 f   paths.obj
 0001:000a25d0       ?FindPathInList@@YAPAUTAG_PATH@@PADI@Z 004a2a10 f   paths.obj
 0001:000a2630       ?ResetPathInfo@@YAXPAUTAG_PATHINFO@@PAUTAG_PATH@@@Z 004a2a70 f   paths.obj
 0001:000a26b0       ?UpdatePathInfo@@YAXPAUTAG_ACTORINSTANCE@@M@Z 004a2af0 f   paths.obj
 0001:000a2c20       ?FollowPathClockwise@@YAXPAUTAG_PATHINFO@@@Z 004a3060 f   paths.obj
 0001:000a2ce0       ?FollowPathAntiClockwise@@YAXPAUTAG_PATHINFO@@@Z 004a3120 f   paths.obj
 0001:000a2dd0       ?GetPathPosition@@YAXPAUTAG_PATHINFO@@QAM@Z 004a3210 f   paths.obj
 0001:000a2df0       ?GetPathScale@@YAXPAUTAG_PATHINFO@@QAM@Z 004a3230 f   paths.obj
 0001:000a2e10       ?GetPathOrientation@@YAXPAUTAG_PATHINFO@@QAM@Z 004a3250 f   paths.obj
 0001:000a2e30       ?SetPathType@@YAXPAUTAG_PATHINFO@@W4EPathType@@@Z 004a3270 f   paths.obj
 0001:000a2e40       ?SetPathLoop@@YAXPAUTAG_PATHINFO@@W4EPathLoopMode@@@Z 004a3280 f   paths.obj
 0001:000a2e50       ?SetPathToStart@@YAXPAUTAG_PATHINFO@@@Z 004a3290 f   paths.obj
 0001:000a2f10       ?ChangePathState@@YAXPAUTAG_PATHINFO@@W4EPathInfoState@@@Z 004a3350 f   paths.obj
 0001:000a2ff0       ?GetLastRotationFromPlatform@@YAXPAUTAG_PATHINFO@@QAM@Z 004a3430 f   paths.obj
 0001:000a3060       ?MovePointOnPlatform@@YAXPAUTAG_PATHINFO@@QAM@Z 004a34a0 f   paths.obj
 0001:000a31e0       ?UpdateActorOnPlatform@@YAXPAUTAG_ACTORINSTANCE@@@Z 004a3620 f   paths.obj
 0001:000a3410       ?InvalidatePlatform@@YAXPAUTAG_ACTORINSTANCE@@@Z 004a3850 f   paths.obj
 0001:000a3430       ?CreateSpecialTypePath@@YAXPAVCPMNode@@PAUTAG_MAPOBJECTATTRIBS@@QAM22@Z 004a3870 f   paths.obj
 0001:000a4010       ?DestroyPathList@@YAXXZ    004a4450 f   paths.obj
 0001:000a4090       ?PrepInstancesPathInfo@@YAXPAUTAG_ACTORINSTANCELIST@@@Z 004a44d0 f   paths.obj
 0001:000a41c0       ?LevelForExit@@YAHPAI@Z    004a4600 f   pause.obj
 0001:000a43e0       ?CreatePauseMapPage@@YAXPAUTAG_PAUSEMENU@@@Z 004a4820 f   pause.obj
 0001:000a4560       ?GenericPauseModePrepare@@YAXXZ 004a49a0 f   pause.obj
 0001:000a4600       ?GenericPauseModeEnd@@YAXXZ 004a4a40 f   pause.obj
 0001:000a4670       ?Pause_shutdown@@YAXXZ     004a4ab0 f   pause.obj
 0001:000a4760       ?UpdateMapHint@@YAXXZ      004a4ba0 f   pause.obj
 0001:000a48d0       ?UpdateMapControls@@YAXXZ  004a4d10 f   pause.obj
 0001:000a4990       ?DrawMapControls@@YAXXZ    004a4dd0 f   pause.obj
 0001:000a4c40       ?BuildPostit@@YAXQAMM@Z    004a5080 f   pause.obj
 0001:000a51e0       ?StopMapHint@@YAXXZ        004a5620 f   pause.obj
 0001:000a5220       ?ExitMPPauseMode@@YAXXZ    004a5660 f   pause.obj
 0001:000a5350       ?OkToEnterPause@@YA_NXZ    004a5790 f   pause.obj
 0001:000a5440       ?OkToEnterMap@@YA_NXZ      004a5880 f   pause.obj
 0001:000a5470       ?initMissingControllerBooks@@YAXXZ 004a58b0 f   pause.obj
 0001:000a55a0       ?CreatePauseStatsPage@@YAXPAUTAG_PAUSEMENU@@@Z 004a59e0 f   pause.obj
 0001:000a5970       ?CreateMPPausePage@@YAXPAUTAG_BOOK@@@Z 004a5db0 f   pause.obj
 0001:000a5dc0       ?CreatePauseOptionsPage@@YAXPAUTAG_PAUSEMENU@@@Z 004a6200 f   pause.obj
 0001:000a6480       ?StartMapHint@@YAXH@Z      004a68c0 f   pause.obj
 0001:000a6910       ?InitMapControls@@YAXXZ    004a6d50 f   pause.obj
 0001:000a6cb0       ?DrawMapHint@@YAXXZ        004a70f0 f   pause.obj
 0001:000a6f60       ?getPage@TAG_BOOK@@QAEPAUTAG_PAGE@@H@Z 004a73a0 f i pause.obj
 0001:000a6fa0       ?getPage@TAG_BOOK@@QAEPAUTAG_PAGE@@QBD@Z 004a73e0 f i pause.obj
 0001:000a6ff0       ?Pause_init@@YAXXZ         004a7430 f   pause.obj
 0001:000a7200       ?UpdateMPPausePage@@YAXPAUTAG_PADCONTROLSTATUS@@@Z 004a7640 f   pause.obj
 0001:000a7590       ?DefaultMPPauseUpdateFunc@@YAXH@Z 004a79d0 f   pause.obj
 0001:000a7620       ?EnterPauseMode@@YAXH@Z    004a7a60 f   pause.obj
 0001:000a7b50       ?ExitPauseMode@@YAXD@Z     004a7f90 f   pause.obj
 0001:000a7d90       ?EnterMPPause@@YAXE_N@Z    004a81d0 f   pause.obj
 0001:000a7f30       ?UpdatePauseMenuPage@@YAXPAUTAG_PAUSEMENU@@PAUTAG_PADCONTROLSTATUS@@@Z 004a8370 f   pause.obj
 0001:000a80f0       ?UpdatePauseMapPage@@YAXPAUTAG_PAUSEMENU@@PAUTAG_PADCONTROLSTATUS@@@Z 004a8530 f   pause.obj
 0001:000a8370       ?UpdatePauseStatsPage@@YAXPAUTAG_PAUSEMENU@@PAUTAG_PADCONTROLSTATUS@@@Z 004a87b0 f   pause.obj
 0001:000a84d0       ?UpdatePauseOptionsPage@@YAXPAUTAG_PAUSEMENU@@PAUTAG_PADCONTROLSTATUS@@@Z 004a8910 f   pause.obj
 0001:000a8ce0       ?DefaultPauseUpdateFunc@@YAXH@Z 004a9120 f   pause.obj
 0001:000a8e70       ?InitialisePlayers@@YAXXZ  004a92b0 f   player.obj
 0001:000a8eb0       ?LoadSheDevil@@YAPAUTAG_ACTORINSTANCE@@XZ 004a92f0 f   player.obj
 0001:000a9030       ?LoadTaz@@YAPAUTAG_ACTORINSTANCE@@XZ 004a9470 f   player.obj
 0001:000a91a0       ?LoadGameCharacter@@YAPAUTAG_ACTORINSTANCE@@PAD0@Z 004a95e0 f   player.obj
 0001:000a92b0       ?CreatePlayers@@YAXH@Z     004a96f0 f   player.obj
 0001:000a97c0       ?InitialisePlayerStatsAtStartOfGame@@YAXPAUTAG_PLAYERSTATS@@@Z 004a9c00 f   playerstats.obj
 0001:000a97f0       ?InitialisePlayerStatsAtStartOfLevel@@YAXXZ 004a9c30 f   playerstats.obj
 0001:000a98c0       ?InitialisePlayerStatsAtStartOfLevel@@YAXPAUTAG_PLAYERSTATS@@@Z 004a9d00 f   playerstats.obj
 0001:000a99a0       ?InitPosterBounties@@YAXXZ 004a9de0 f   playerstats.obj
 0001:000a9a10       ?AddMailboxToStats@@YAHPAUTAG_ACTORINSTANCE@@0I@Z 004a9e50 f   playerstats.obj
 0001:000a9a90       ?UpdatePlayerStats@@YAXPAUTAG_PLAYER@@@Z 004a9ed0 f   playerstats.obj
 0001:000aa100       ?ClosePlayerStats@@YAXPAUTAG_PLAYER@@@Z 004aa540 f   playerstats.obj
 0001:000aa150       ?DeletePlayerStats@@YAXPAUTAG_PLAYER@@@Z 004aa590 f   playerstats.obj
 0001:000aa1a0       ?ActivateSwirlOverlay@@YAXPAUTAG_PLAYER@@@Z 004aa5e0 f   playerstats.obj
 0001:000aa1f0       ?ActivateDestructOverlay@@YAXPAUTAG_PLAYER@@@Z 004aa630 f   playerstats.obj
 0001:000aa260       ?InitBountyList@@YAXXZ     004aa6a0 f   playerstats.obj
 0001:000aa280       ?RemoveBountyFromList@@YAXPAUTAG_BOUNTYLISTENTRY@@@Z 004aa6c0 f   playerstats.obj
 0001:000aa300       ?DrawBountyList@@YAHPAUTAG_BOUNTYLIST@@@Z 004aa740 f   playerstats.obj
 0001:000aa490       ?MoneyOverlayCallBack@@YAHW4EBFontCallbackReason@@PAU_TBFontCallbackInfo@@@Z 004aa8d0 f   playerstats.obj
 0001:000aa970       ?PlaceActorAtSafePoint@@YAHPAUTAG_PLAYER@@@Z 004aadb0 f   playerstats.obj
 0001:000aaa80       ?processGalleryScore@@YADXZ 004aaec0 f   playerstats.obj
 0001:000aab40       ?AddMoneyToBounty@@YAXPAUTAG_ACTORINSTANCE@@0I@Z 004aaf80 f   playerstats.obj
 0001:000aad50       ?LevelCompleted@@YAXPAUTAG_ACTORINSTANCE@@H@Z 004ab190 f   playerstats.obj
 0001:000aaff0       ?AddWantedPosterToStats@@YAHHPAUTAG_ACTORINSTANCE@@I@Z 004ab430 f   playerstats.obj
 0001:000ab100       ?IncrementTazTopCounter@@YAXPAUTAG_ACTORINSTANCE@@I@Z 004ab540 f   playerstats.obj
 0001:000ab160       ?DrawPlayerStats@@YAXPAUTAG_PLAYER@@@Z 004ab5a0 f   playerstats.obj
 0001:000ab3e0       ?InitialisePlayerStats@@YAXPAUTAG_PLAYER@@@Z 004ab820 f   playerstats.obj
 0001:000ab9c0       ?UpdateBountyList@@YAXPAUTAG_BOUNTYLIST@@@Z 004abe00 f   playerstats.obj
 0001:000abae0       ?mulWidth@TAG_RECTANGLE@@QAEXM@Z 004abf20 f   Rectangle.obj
 0001:000abb10       ?mulHeight@TAG_RECTANGLE@@QAEXM@Z 004abf50 f   Rectangle.obj
 0001:000abb40       ?toOrigin@TAG_RECTANGLE@@QBE?AU1@XZ 004abf80 f   Rectangle.obj
 0001:000abba0       ?draw@TAG_RECTANGLE@@QBEXABUTAG_COLOUR@@HHHM@Z 004abfe0 f   Rectangle.obj
 0001:000abe50       ??D@YA?AUTAG_RECTANGLE@@ABU0@0@Z 004ac290 f   Rectangle.obj
 0001:000abea0       ??D@YA?AUTAG_RECTANGLE@@ABU0@QAY03$$CBM@Z 004ac2e0 f   Rectangle.obj
 0001:000abf60       ?PrepareScene@@YAHH@Z      004ac3a0 f   scene.obj
 0001:000ac020       ?StartSceneLevelDraw@@YAXHPAUTAG_CAMERAINFO@@@Z 004ac460 f   scene.obj
 0001:000ac060       ?StartSceneLevelDrawAlpha@@YAXHPAUTAG_CAMERAINFO@@@Z 004ac4a0 f   scene.obj
 0001:000ac0d0       ?DrawScene@@YAHHPAUTAG_CAMERAINFO@@@Z 004ac510 f   scene.obj
 0001:000ac350       ?DrawScene2@@YAHHPAUTAG_CAMERAINFO@@H@Z 004ac790 f   scene.obj
 0001:000ac580       ?UpdateScenePreLevel@@YAXH@Z 004ac9c0 f   scene.obj
 0001:000ac5a0       ?UpdateScene@@YAHH@Z       004ac9e0 f   scene.obj
 0001:000ac770       ?StartLoading@@YAXH@Z      004acbb0 f   scene.obj
 0001:000aca00       ?CompleteLoad@@YAXH@Z      004ace40 f   scene.obj
 0001:000aca60       ?FreeLevelSpecificObjects@@YAXH@Z 004acea0 f   scene.obj
 0001:000acb90       ?LoadGenericObjects@@YAXH@Z 004acfd0 f   scene.obj
 0001:000acf10       ?LoadPermanentResources@@YAXXZ 004ad350 f   scene.obj
 0001:000ad250       ?FreePermanentResources@@YAXXZ 004ad690 f   scene.obj
 0001:000ad290       ?ApplyDecalZMask@@YAXQAU_TBActorInstance@@M@Z 004ad6d0 f   scene.obj
 0001:000ad340       ?InitialiseScene@@YAHH@Z   004ad780 f   scene.obj
 0001:000adfe0       ?KillAllBananaSkins@@YAXXZ 004ae420 f i scene.obj
 0001:000ae030       ?FreeScene@@YAHH@Z         004ae470 f   scene.obj
 0001:000ae3a0       ?InitialiseSoundFX@@YA_NXZ 004ae7e0 f   sfx.obj
 0001:000ae420       ?LoadSamples@@YAHPAD@Z     004ae860 f   sfx.obj
 0001:000ae470       ?LoadSample@@YAPAU_TBSample@@PAD@Z 004ae8b0 f   sfx.obj
 0001:000ae4f0       ?PlaySample@@YAHPADHQAMI@Z 004ae930 f   sfx.obj
 0001:000ae580       ?PlaySample@@YAHPADHHHQAMI@Z 004ae9c0 f   sfx.obj
 0001:000ae610       ?StopChannel@@YAXPAH@Z     004aea50 f   sfx.obj
 0001:000ae680       ?GetCossiePakfileForLevel@@YAXPADH@Z 004aeac0 f   sfx.obj
 0001:000ae820       ?PlayTrackingSample@@YAHPADHQAMIHMMP6AX1HPAX@Z2@Z 004aec60 f   sfx.obj
 0001:000ae8c0       ?ResetSoundCallbacks@@YAXXZ 004aed00 f   sfx.obj
 0001:000ae910       ?CallbackWhenSampleFinished@@YAXHP6AXPAX@Z0@Z 004aed50 f   sfx.obj
 0001:000ae950       ?MonitorSampleCallbacks@@YAXXZ 004aed90 f   sfx.obj
 0001:000ae9b0       ?SFX_gameInit@@YAXXZ       004aedf0 f   sfx.obj
 0001:000ae9d0       ?CharacterSoundsFinishedCallback@@YAXPAX@Z 004aee10 f   sfx.obj
 0001:000ae9e0       ?SetHearingRange@@YAXM@Z   004aee20 f   sfx.obj
 0001:000aea10       ?SetHearingRange@@YAXMM@Z  004aee50 f   sfx.obj
 0001:000aea40       ?LoadLevelSamplesBackground@@YAXXZ 004aee80 f   sfx.obj
 0001:000aee50       ?LoadLevelSamplesMemory@@YAXXZ 004af290 f   sfx.obj
 0001:000af4f0       ?LoadLevelIntroSamplesMemory@@YAXXZ 004af930 f   sfx.obj
 0001:000af790       ?FreeLevelIntroSamples@@YAXXZ 004afbd0 f   sfx.obj
 0001:000afa20       ?FreeLevelSamples@@YAXXZ   004afe60 f   sfx.obj
 0001:000b0030       ?LoadCharacterSamplesBkg@@YAXPAD@Z 004b0470 f   sfx.obj
 0001:000b0070       ?LoadCharacterSamples@@YAXPAD@Z 004b04b0 f   sfx.obj
 0001:000b00d0       ?PlayAmbientSounds@@YAXH@Z 004b0510 f   sfx.obj
 0001:000b0eb0       ?PlayRandomAmbients@@YAXH@Z 004b12f0 f   sfx.obj
 0001:000b1940       ?PlayOpeningSoundCallback@@YAXPAVTAG_FADE@@@Z 004b1d80 f   sfx.obj
 0001:000b1b10       ?SetSoundPos@@YAXQAM@Z     004b1f50 f   sfx.obj
 0001:000b1b70       ?StopAllChannels@@YAXXZ    004b1fb0 f   sfx.obj
 0001:000b1b80       ?LoopingSampleActorInstanceCallback@@YAXPAX@Z 004b1fc0 f   sfx.obj
 0001:000b1ba0       ?GetSoundFlagsFromString@@YAHPAD@Z 004b1fe0 f   sfx.obj
 0001:000b1c20       ?TrackingSampleCallback@@YAXQAMHPAX@Z 004b2060 f   sfx.obj
 0001:000b1c40       ?RespondToSoundMessages@@YAXXZ 004b2080 f   sfx.obj
 0001:000b20c0       ?SFX_sceneInit@@YAXXZ      004b2500 f   sfx.obj
 0001:000b20f0       ?LoadSplashScreen@@YAHPAUTAG_SPLASHSCREEN@@PAD1@Z 004b2530 f   splashscreen.obj
 0001:000b2230       ?DrawSplashScreen@@YAXPAUTAG_SPLASHSCREEN@@@Z 004b2670 f   splashscreen.obj
 0001:000b2250       ?FreeSplashScreen@@YAXPAUTAG_SPLASHSCREEN@@@Z 004b2690 f   splashscreen.obj
 0001:000b2280       ?LoadCorrectSplashScreen@@YAXPAUTAG_SPLASHSCREEN@@H@Z 004b26c0 f   splashscreen.obj
 0001:000b2340       ?InitActorStatus@@YAXPAUTAG_ACTOR_STATUS@@@Z 004b2780 f   status.obj
 0001:000b2460       ?ClearStateChangeRequest@@YAXPAUTAG_ACTORINSTANCE@@@Z 004b28a0 f   status.obj
 0001:000b2490       ?RequestStateChange@@YAHPAUTAG_ACTORINSTANCE@@W4ECharState@@@Z 004b28d0 f   status.obj
 0001:000b2850       ?RequestStateChangePlus@@YAHPAUTAG_ACTORINSTANCE@@W4ECharState@@P6AX0@Z@Z 004b2c90 f   status.obj
 0001:000b2890       ?EnterState@@YA_NPAUTAG_ACTORINSTANCE@@W4ECharState@@@Z 004b2cd0 f   status.obj
 0001:000b28f0       ?GetHeightOfActor@@YAMPAUTAG_ACTORINSTANCE@@M@Z 004b2d30 f   status.obj
 0001:000b2a20       ?GetHeightOfPoint@@YAMQAMHW4ESpecialType@@@Z 004b2e60 f   status.obj
 0001:000b2aa0       ?QuickHeightOfPoint@@YA_NQBMQAUTAG_SHADOW@@QAM@Z 004b2ee0 f   status.obj
 0001:000b2c10       ?CalculateSpeedBeforeJump@@YAXPAUTAG_ACTORINSTANCE@@@Z 004b3050 f   status.obj
 0001:000b2c80       ?StopCollidingWith@@YAXPAUTAG_ACTORINSTANCE@@0@Z 004b30c0 f   status.obj
 0001:000b2cb0       ?StopCollidingWith@@YAXPAUTAG_ACTORINSTANCE@@0M@Z 004b30f0 f   status.obj
 0001:000b2ce0       ?SetStartPosition@@YAXPAUTAG_ACTORINSTANCE@@QAM1@Z 004b3120 f   status.obj
 0001:000b2e20       ?ChangeState@@YAXPAUTAG_ACTORINSTANCE@@W4ECharState@@@Z 004b3260 f   status.obj
 0001:000b2f80       ?UpdateActorStatus@@YAXPAUTAG_ACTORINSTANCE@@@Z 004b33c0 f   status.obj
 0001:000b33b0       ?UpdateActorStatusInstances@@YAXPAUTAG_ACTORINSTANCELIST@@@Z 004b37f0 f   status.obj
 0001:000b33e0       ?CloseCurrentSubtitle@@YAXXZ 004b3820 f   subtitle.obj
 0001:000b3420       ?closeSubtitles@@YAXXZ     004b3860 f   subtitle.obj
 0001:000b3450       ?openSubtitles@@YAXXZ      004b3890 f   subtitle.obj
 0001:000b3480       ?InitialiseSubtitles@@YAXXZ 004b38c0 f   subtitle.obj
 0001:000b34e0       ?DestroySubtitles@@YAXXZ   004b3920 f   subtitle.obj
 0001:000b3530       ?PageClosed@@YAXQAUTAG_PAGE@@H@Z 004b3970 f   subtitle.obj
 0001:000b35b0       ?Subtitle@@YAPAUTAG_SUBTITLE@@W4EStringIndex@@MH@Z 004b39f0 f   subtitle.obj
 0001:000b3620       ?AddSubtitle@@YAXPAUTAG_SUBTITLE@@AAUTAG_BOOK@@@Z 004b3a60 f   subtitle.obj
 0001:000b37e0       ?UpdateSubtitles@@YAXXZ    004b3c20 f   subtitle.obj
 0001:000b38e0       ?UpdateAnimatingTextures@@YAXXZ 004b3d20 f   textures.obj
 0001:000b3940       ?FreeAnimatingTextures@@YAXXZ 004b3d80 f   textures.obj
 0001:000b3960       ?SpecifyTexturesToAnimateManually@@YAPAU_TBTexture@@PAD@Z 004b3da0 f   textures.obj
 0001:000b39b0       ?SetTextureFrameManually@@YAXPAU_TBTexture@@H@Z 004b3df0 f   textures.obj
 0001:000b39c0       ?UpdateScrollingTextures@@YAXXZ 004b3e00 f   textures.obj
 0001:000b3af0       ?SpecifyScrollingTexture@@YAHPAD0MM@Z 004b3f30 f   textures.obj
 0001:000b3b80       ?ListAnimatingTextures@@YAXXZ 004b3fc0 f   textures.obj
 0001:000b3c90       ?InitialiseCommonlyUsedTextures@@YAXXZ 004b40d0 f   textures.obj
 0001:000b46d0       ?EndProfileTimer@@YAXPAUTAG_PROFILE@@H@Z 004b4b10 f   timer.obj
 0001:000b4720       ?InitialiseProfile@@YAXPAUTAG_PROFILE@@@Z 004b4b60 f   timer.obj
 0001:000b4780       ?StartProfile@@YAXPAUTAG_PROFILE@@@Z 004b4bc0 f   timer.obj
 0001:000b47d0       ?EndProfile@@YAXPAUTAG_PROFILE@@@Z 004b4c10 f   timer.obj
 0001:000b48e0       ?DisplayProfile@@YAXPAUTAG_PROFILE@@@Z 004b4d20 f   timer.obj
 0001:000b4e30       ?startTimingFrame@@YAXXZ   004b5270 f   timer.obj
 0001:000b4e50       ?finishTimingFrame@@YAXXZ  004b5290 f   timer.obj
 0001:000b5010       ?discardOldest@?$LOOPARRAY@UTIMERATE@@$09@@QAEXI@Z 004b5450 f i timer.obj
 0001:000b5070       ?StartProfileTimer@@YAXPAUTAG_PROFILE@@HPAD@Z 004b54b0 f   timer.obj
 0001:000b5100       ?TimeFX_cancelRates@@YAXXZ 004b5540 f   timer.obj
 0001:000b5140       ?getNew@?$LOOPARRAY@UTIMERATE@@$09@@QAEPAUTIMERATE@@I@Z 004b5580 f i timer.obj
 0001:000b51e0       ?TimeFX_setGlobalRate@@YAXM@Z 004b5620 f   timer.obj
 0001:000b5220       ?TimeFX_queueRate@@YAXMMM@Z 004b5660 f   timer.obj
 0001:000b5280       ?TimeFX_update@@YAXXZ      004b56c0 f   timer.obj
 0001:000b5300       ?trailSetUp@@YAXPAUTAG_ACTORINSTANCE@@@Z 004b5740 f   trail.obj
 0001:000b5390       ?trailFree@@YAXPAUTAG_ACTORINSTANCE@@@Z 004b57d0 f   trail.obj
 0001:000b5410       ?trailReset@@YAXPAUTAG_ACTORINSTANCE@@H@Z 004b5850 f   trail.obj
 0001:000b54a0       ?trailAddPosition@@YAXPAUTAG_ACTORINSTANCE@@@Z 004b58e0 f   trail.obj
 0001:000b56d0       ?trailFindNearestPoint@@YAHPAUTAG_ACTORINSTANCE@@QAM1@Z 004b5b10 f   trail.obj
 0001:000b57d0       ?trailGetIndexedPoint@@YAHPAUTAG_ACTORINSTANCE@@HQAM@Z 004b5c10 f   trail.obj
 0001:000b5810       ?trailAdvanceToNext@@YAXPAUTAG_ACTORINSTANCE@@PAH@Z 004b5c50 f   trail.obj
 0001:000b5840       ?CreateTriggerObjectInstance@@YAHPAUTAG_ACTORINSTANCE@@@Z 004b5c80 f   trigger.obj
 0001:000b5890       ?TriggerCallback@@YAHPAUTAG_ACTORINSTANCE@@0PAUTAG_PRECOLLINFO@@@Z 004b5cd0 f   trigger.obj
 0001:000b58d0       ?IsTriggerActive@@YA_NIPAUTAG_ACTORINSTANCELIST@@@Z 004b5d10 f   trigger.obj
 0001:000b5910       ?CheckForAreaTriggers@@YAXPAUTAG_ACTORINSTANCE@@PAUTAG_ACTORINSTANCELIST@@@Z 004b5d50 f   trigger.obj
 0001:000b5c00       ?utilGetPrettyTime@@YAHPADM0@Z 004b6040 f   util.obj
 0001:000b5c70       ?utilLongtoBaseString@@YAHPADHH@Z 004b60b0 f   util.obj
 0001:000b5cf0       ?utilDraw2DSprite@@YAXQAU_TBTexture@@QBMMMMABUTAG_COLOUR@@_N3QAMMMM@Z 004b6130 f   util.obj
 0001:000b5f20       ?utilDrawSphere@@YAXABUTAG_VEC@@MABUTAG_COLOUR@@@Z 004b6360 f   util.obj
 0001:000b6030       ?utilDrawSparkler@@YAXABUTAG_VEC@@MABUTAG_COLOUR@@@Z 004b6470 f   util.obj
 0001:000b6260       ?utilDrawArrow@@YAXABUTAG_VEC@@0MABUTAG_COLOUR@@@Z 004b66a0 f   util.obj
 0001:000b66d0       ?utilDrawSelectionMarker@@YAXAAUTAG_VEC@@M_N@Z 004b6b10 f   util.obj
 0001:000b6a40       ?utilDrawLine@@YAXQBM0ABUTAG_COLOUR@@QBU1@@Z 004b6e80 f   util.obj
 0001:000b6b60       ?utilDrawCircle@@YAXQBMMABUTAG_COLOUR@@@Z 004b6fa0 f   util.obj
 0001:000b6c60       ?utilNormaliseQuaternion@@YAXQAM@Z 004b70a0 f   util.obj
 0001:000b6cd0       ?utilFormatPrettyNumbers@@YAXHPAD@Z 004b7110 f   util.obj
 0001:000b6d80       ?utilGenerateRandomNonZeroVector@@YAXQAMMH@Z 004b71c0 f   util.obj
 0001:000b6e90       ?UtilGenerateRandomNumber@@YAMMM@Z 004b72d0 f   util.obj
 0001:000b6ed0       ?utilFindStringInArray@@YAHQBQBDHQBD@Z 004b7310 f   util.obj
 0001:000b6f10       ?utilSwap@@YAXQAHHH@Z      004b7350 f   util.obj
 0001:000b6f30       ?ang@TAG_VEC@@QBE?AU1@ABU1@@Z 004b7370 f   Vec.obj
 0001:000b6fd0       ?distFromLine@TAG_VEC@@QAEMABU1@0_N@Z 004b7410 f   Vec.obj
 0001:000b7040       ?FrontEnd_musicSliderUpdateFunc@@YAXMQAUTAG_SLIDER@@@Z 004b7480 f   volume.obj
 0001:000b7060       ?FrontEnd_SFXSliderUpdateFunc@@YAXMQAUTAG_SLIDER@@@Z 004b74a0 f   volume.obj
 0001:000b7200       ?InitCamera@@YAXPAUTAG_CAMERAINFO@@QAM1_N@Z 004b7640 f   camera.obj
 0001:000b7390       ?CreateCameraCollSphere@@YAXPAUTAG_CAMERAINFO@@QAMMM@Z 004b77d0 f   camera.obj
 0001:000b7430       ?DestroyCamera@@YAXPAUTAG_CAMERAINFO@@@Z 004b7870 f   camera.obj
 0001:000b74b0       ?SendCamera@@YAXPAUTAG_CAMERAINFO@@@Z 004b78f0 f   camera.obj
 0001:000b7720       ?SetCameraPosition@@YAXPAUTAG_CAMERAINFO@@QAM@Z 004b7b60 f   camera.obj
 0001:000b7760       ?SetCameraPositionOffset@@YAXPAUTAG_CAMERAINFO@@QAM@Z 004b7ba0 f   camera.obj
 0001:000b77b0       ?SetCameraLookAtPosition@@YAXPAUTAG_CAMERAINFO@@QAM@Z 004b7bf0 f   camera.obj
 0001:000b77f0       ?SetCameraLookAtOffset@@YAXPAUTAG_CAMERAINFO@@QAM@Z 004b7c30 f   camera.obj
 0001:000b7840       ?SetCameraPositionDestination@@YAXPAUTAG_CAMERAINFO@@QAM@Z 004b7c80 f   camera.obj
 0001:000b7860       ?SetCameraLookAtDestination@@YAXPAUTAG_CAMERAINFO@@QAM@Z 004b7ca0 f   camera.obj
 0001:000b7880       ?SetCameraLookAtFollowActorInstance@@YAXPAUTAG_CAMERAINFO@@PAUTAG_ACTORINSTANCE@@PAU_TBActorInstance@@PAU_TBActorNodeInstance@@@Z 004b7cc0 f   camera.obj
 0001:000b78c0       ?SetCameraLookAtFollowActorInstance@@YAXPAUTAG_CAMERAINFO@@PAUTAG_ACTORINSTANCE@@PAU_TBActorInstance@@PAD@Z 004b7d00 f   camera.obj
 0001:000b7920       ?DisableCameraLookAtFollowActorInstance@@YAXPAUTAG_CAMERAINFO@@@Z 004b7d60 f   camera.obj
 0001:000b7930       ?SetCameraLookAtActorInstanceOffset@@YAXPAUTAG_CAMERAINFO@@QAM@Z 004b7d70 f   camera.obj
 0001:000b7950       ?SetCameraPosFollowActorInstance@@YAXPAUTAG_CAMERAINFO@@PAU_TBActorInstance@@PAD@Z 004b7d90 f   camera.obj
 0001:000b7980       ?SetCameraPosFollowActorInstanceNode@@YAXPAUTAG_CAMERAINFO@@PAU_TBActorInstance@@PAU_TBActorNodeInstance@@@Z 004b7dc0 f   camera.obj
 0001:000b79a0       ?RotateCameraAroundLookAt@@YAXPAUTAG_CAMERAINFO@@MM@Z 004b7de0 f   camera.obj
 0001:000b7a00       ?ConvertFromCameraToGlobalRotation@@YAMPAUTAG_CAMERAINFO@@M@Z 004b7e40 f   camera.obj
 0001:000b7a60       ?SetFixedDistanceToLookAt@@YAXPAUTAG_CAMERAINFO@@M@Z 004b7ea0 f   camera.obj
 0001:000b7a70       ?EnableCameraAngleAboveHorizontal@@YAXPAUTAG_CAMERAINFO@@M@Z 004b7eb0 f   camera.obj
 0001:000b7a90       ?SetDefaultCameraAngleAboveHorizontal@@YAXPAUTAG_CAMERAINFO@@M@Z 004b7ed0 f   camera.obj
 0001:000b7aa0       ?EnableCameraRotateBehind@@YAXPAUTAG_CAMERAINFO@@M@Z 004b7ee0 f   camera.obj
 0001:000b7ab0       ?DisableCameraRotateBehind@@YAXPAUTAG_CAMERAINFO@@@Z 004b7ef0 f   camera.obj
 0001:000b7ac0       ?EnableCameraChaseCam@@YAXPAUTAG_CAMERAINFO@@MQAM@Z 004b7f00 f   camera.obj
 0001:000b7ae0       ?DisableCameraChaseCam@@YAXPAUTAG_CAMERAINFO@@@Z 004b7f20 f   camera.obj
 0001:000b7af0       ?DisableCameraAngleAboveHorizontal@@YAXPAUTAG_CAMERAINFO@@@Z 004b7f30 f   camera.obj
 0001:000b7b00       ?SetCameraCollision@@YAXPAUTAG_CAMERAINFO@@H@Z 004b7f40 f   camera.obj
 0001:000b7b30       ?SetCameraSmooth@@YAXPAUTAG_CAMERAINFO@@MM@Z 004b7f70 f   camera.obj
 0001:000b7b50       ?SaveCameraSettings@@YAXPAUTAG_CAMERAINFO@@0@Z 004b7f90 f   camera.obj
 0001:000b7b70       ?RestoreCameraSettings@@YAXPAUTAG_CAMERAINFO@@0_N1@Z 004b7fb0 f   camera.obj
 0001:000b7c70       ?SetCameraCase@@YAXPAUTAG_CAMERAINFO@@PAUTAG_CAMERACASE@@@Z 004b80b0 f   camera.obj
 0001:000b7c80       ?RespondToCameraControl@@YAXPAUTAG_PLAYER@@@Z 004b80c0 f   camera.obj
 0001:000b7e60       ?ResetCamera@@YAXPAUTAG_CAMERAINFO@@@Z 004b82a0 f   camera.obj
 0001:000b7f80       ?setFlyCam@@YAX_N@Z        004b83c0 f   camera.obj
 0001:000b7fe0       ?toggleFlyCam@@YAXXZ       004b8420 f   camera.obj
 0001:000b8000       ?drawFirstPersonMode@@YAXXZ 004b8440 f   camera.obj
 0001:000b8060       ?ProcessCameraEnterLookAround@@YAXPAUTAG_PLAYER@@@Z 004b84a0 f   camera.obj
 0001:000b82d0       ?SimplifyCamera@@YAXQAUTAG_CAMERAINFO@@@Z 004b8710 f   camera.obj
 0001:000b83a0       ?SmartCam@@YAXPAUTAG_CAMERAINFO@@@Z 004b87e0 f   camera.obj
 0001:000b8660       ?UpdateCamera@@YAXPAUTAG_CAMERAINFO@@@Z 004b8aa0 f   camera.obj
 0001:000b8d60       ?updateFlyCam@@YAXXZ       004b91a0 f   camera.obj
 0001:000b9210       ?ProcessCameraLookAround@@YAXPAUTAG_PLAYER@@@Z 004b9650 f   camera.obj
 0001:000b93a0       ?InitCameraCaseList@@YAXXZ 004b97e0 f   cameracase.obj
 0001:000b93c0       ?CreateCameraCase@@YAPAUTAG_CAMERACASE@@PADH@Z 004b9800 f   cameracase.obj
 0001:000b9470       ?CameraCasePan@@YAXPAUTAG_CAMERACASE@@IIIIM@Z 004b98b0 f   cameracase.obj
 0001:000b94a0       ?CameraCaseFixedPoint@@YAXPAUTAG_CAMERACASE@@IIMII@Z 004b98e0 f   cameracase.obj
 0001:000b94d0       ?CameraCaseRotateAround@@YAXPAUTAG_CAMERACASE@@IMMD@Z 004b9910 f   cameracase.obj
 0001:000b9500       ?CameraCaseAttribs@@YAXPAUTAG_CAMERACASE@@II@Z 004b9940 f   cameracase.obj
 0001:000b9520       ?CameraCaseStartDelay@@YAXPAUTAG_CAMERACASE@@M@Z 004b9960 f   cameracase.obj
 0001:000b9530       ?FindCameraCase@@YAPAUTAG_CAMERACASE@@PAD@Z 004b9970 f   cameracase.obj
 0001:000b9580       ?FindCameraCase@@YAPAUTAG_CAMERACASE@@I@Z 004b99c0 f   cameracase.obj
 0001:000b95b0       ?SendCameraCaseMessages@@YAXPAUTAG_CAMERAINFO@@PAUTAG_CAMERACASE@@@Z 004b99f0 f   cameracase.obj
 0001:000b95e0       ?StopCameraCase@@YAXPAUTAG_CAMERAINFO@@PAUTAG_CAMERACASE@@_N@Z 004b9a20 f   cameracase.obj
 0001:000b9780       ?UpdateCameraCase@@YAXPAUTAG_CAMERAINFO@@PAUTAG_CAMERACASE@@@Z 004b9bc0 f   cameracase.obj
 0001:000b99e0       ?StartCameraCase@@YAHPAUTAG_CAMERACASE@@PAUTAG_CAMERAINFO@@@Z 004b9e20 f   cameracase.obj
 0001:000ba170       ?CameraCaseKeepOnScreen@@YAXQAUTAG_CAMERACASE@@QBM@Z 004ba5b0 f   cameracase.obj
 0001:000ba1e0       ?DeleteCameraCase@@YAXPAUTAG_CAMERACASE@@@Z 004ba620 f   cameracase.obj
 0001:000ba270       ?DeleteAllCameraCases@@YAXXZ 004ba6b0 f   cameracase.obj
 0001:000ba2a0       ?ProcessCameraMessages@@YAXPAD@Z 004ba6e0 f   cameracase.obj
 0001:000ba390       ?SetMusic@TAG_CUTSCENE@@QAEXPAD@Z 004ba7d0 f i cutscene.obj
 0001:000ba3b0       ?SetOverlay@TAG_CUTSCENE@@QAEXPADMM@Z 004ba7f0 f i cutscene.obj
 0001:000ba3f0       ?Load@TAG_CUTSCENE@@QAE_NXZ 004ba830 f   cutscene.obj
 0001:000ba460       ?FinishedLoading@TAG_CUTSCENE@@QAEHXZ 004ba8a0 f   cutscene.obj
 0001:000ba470       ?FinishedPlaying@TAG_CUTSCENE@@QAEHXZ 004ba8b0 f   cutscene.obj
 0001:000ba540       ?Draw@TAG_CUTSCENE@@QAEXXZ 004ba980 f   cutscene.obj
 0001:000ba5c0       ?Draw2@TAG_CUTSCENE@@QAEXXZ 004baa00 f   cutscene.obj
 0001:000ba730       ?HideActorInstanceList@@YAXPAUTAG_ACTORINSTANCELIST@@@Z 004bab70 f   cutscene.obj
 0001:000ba770       ?ClearBoss2Level@@YAHPAVTAG_CUTSCENE@@@Z 004babb0 f   cutscene.obj
 0001:000ba800       ?SetupHub@@YAXH@Z          004bac40 f   cutscene.obj
 0001:000bae00       ?DrawPlaceHolderLoop@@YAXPAD@Z 004bb240 f   cutscene.obj
 0001:000bafe0       ?CutsceneTv@@YAX_N@Z       004bb420 f   cutscene.obj
 0001:000baff0       ?ChooseMusicForOutroCutscene@@YAXPAVTAG_CUTSCENE@@@Z 004bb430 f   cutscene.obj
 0001:000bb0d0       ?StartAnimations@TAG_CUTSCENE@@AAEXXZ 004bb510 f   cutscene.obj
 0001:000bb1d0       ?Play@TAG_CUTSCENE@@QAEXPAUTAG_CAMERAINFO@@@Z 004bb610 f   cutscene.obj
 0001:000bb4e0       ?Stop@TAG_CUTSCENE@@QAEXXZ 004bb920 f   cutscene.obj
 0001:000bbb50       ??1TAG_CUTSCENE@@QAE@XZ    004bbf90 f   cutscene.obj
 0001:000bbb70       ?AddEntry@TAG_CUTSCENE@@QAEXW4EEntryType@@PAD@Z 004bbfb0 f   cutscene.obj
 0001:000bbbe0       ?AddEntry@TAG_CUTSCENE@@QAEXW4EEntryType@@I@Z 004bc020 f   cutscene.obj
 0001:000bbc40       ?SetSpinNode@TAG_CUTSCENE@@QAEXPAD0@Z 004bc080 f   cutscene.obj
 0001:000bbcc0       ?SetTazNode@TAG_CUTSCENE@@QAEXPAD0@Z 004bc100 f   cutscene.obj
 0001:000bbd40       ?Update@TAG_CUTSCENE@@QAEXXZ 004bc180 f   cutscene.obj
 0001:000bbea0       ?Init@TAG_CUTSCENE@@AAEHPADH@Z 004bc2e0 f   cutscene.obj
 0001:000bbfa0       ?Setup@TAG_CUTSCENE@@QAEXXZ 004bc3e0 f   cutscene.obj
 0001:000bc480       ?SetupCutscene@@YAPAVTAG_CUTSCENE@@W4ECutScene@@@Z 004bc8c0 f   cutscene.obj
 0001:000be0d0       ?LoadLevelCutScene@@YAPAVTAG_CUTSCENE@@H@Z 004be510 f   cutscene.obj
 0001:000be840       ?getNode@?$LINKEDLIST@M@@AAEPAV1@H@Z 004bec80 f i Table.obj
 0001:000be840       ?getNode@?$LINKEDLIST@UTAG_FLYGROUP@@@@AAEPAV1@H@Z 004bec80 f i Flies.obj
 0001:000be840       ?getNode@?$LINKEDLIST@UTAG_PAGE@@@@AAEPAV1@H@Z 004bec80 f i pause.obj
 0001:000be840       ?getNode@?$LINKEDLIST@UTAG_SHOCKWAVE@@@@AAEPAV1@H@Z 004bec80 f i shockwave.obj
 0001:000be840       ?getNode@?$LINKEDLIST@VTAG_MIRROR@@@@AAEPAV1@H@Z 004bec80 f i effects.obj
 0001:000be840       ?getNode@?$LINKEDLIST@UTAG_DECAL@@@@AAEPAV1@H@Z 004bec80 f i decals.obj
 0001:000be840       ?getNode@?$LINKEDLIST@UTAG_PAGEITEM@@@@AAEPAV1@H@Z 004bec80 f i destruct.obj
 0001:000be840       ?getNode@?$LINKEDLIST@UTAG_SUBTITLE@@@@AAEPAV1@H@Z 004bec80 f i subtitle.obj
 0001:000be840       ?getNode@?$LINKEDLIST@VTAG_STINKYCHEESE@@@@AAEPAV1@H@Z 004bec80 f i cheesegun.obj
 0001:000be840       ?getNode@?$LINKEDLIST@VTAG_SECURITYBOX@@@@AAEPAV1@H@Z 004bec80 f i securitybox.obj
 0001:000be840       ?getNode@?$LINKEDLIST@VTAG_SPINPAD@@@@AAEPAV1@H@Z 004bec80 f i securitybox.obj
 0001:000be840       ?getNode@?$LINKEDLIST@UTAG_EATITEM@@@@AAEPAV1@H@Z 004bec80 f i eating.obj
 0001:000be840       ?getNode@?$LINKEDLIST@UPAPERPAGEINFO@@@@AAEPAV1@H@Z 004bec80 f i PaperBook.obj
 0001:000be840       ?getNode@?$LINKEDLIST@UTAG_CUTSCENEENTRY@@@@AAEPAV1@H@Z 004bec80 f i cutscene.obj
 0001:000be840       ?getNode@?$LINKEDLIST@UTAG_PAGEROW@@@@AAEPAV1@H@Z 004bec80 f i Table.obj
 0001:000be840       ?getNode@?$LINKEDLIST@UBOOKCHAPTER@@@@AAEPAV1@H@Z 004bec80 f i tutorial.obj
 0001:000be840       ?getNode@?$LINKEDLIST@UTAG_KOSCAMTARGET@@@@AAEPAV1@H@Z 004bec80 f i KOScam.obj
 0001:000be840       ?getNode@?$LINKEDLIST@VTAG_CACTUS@@@@AAEPAV1@H@Z 004bec80 f i nastycan.obj
 0001:000be840       ?getNode@?$LINKEDLIST@UTAG_MONITOREFFECT@@@@AAEPAV1@H@Z 004bec80 f i MonitorFX.obj
 0001:000be840       ?getNode@?$LINKEDLIST@UTAG_LASERBEAM@@@@AAEPAV1@H@Z 004bec80 f i laser.obj
 0001:000be840       ?getNode@?$LINKEDLIST@UTAG_BOOK@@@@AAEPAV1@H@Z 004bec80 f i BookList.obj
 0001:000be840       ?getNode@?$LINKEDLIST@VTAG_BANANASKIN@@@@AAEPAV1@H@Z 004bec80 f i apes.obj
 0001:000bea50       ?KOScam_update@@YAXQAUTAG_CAMERACASE@@@Z 004bee90 f   KOScam.obj
 0001:000bed70       ?RumbleCamAng@@YAXQAUTAG_CAMERAINFO@@QAM@Z 004bf1b0 f i quakecam.obj
 0001:000bedf0       ?CheckQuakeVectorForOpposites@@YAXQAM0@Z 004bf230 f   quakecam.obj
 0001:000bee60       ?CheckQuakeTiltForOpposites@@YAMMM@Z 004bf2a0 f   quakecam.obj
 0001:000bf020       ?UpdateRumbleCam@@YAXPAUTAG_CAMERAINFO@@@Z 004bf460 f   quakecam.obj
 0001:000bf060       ?rumbleCam_explosion@@YAXPAUTAG_CAMERAINFO@@QAMM@Z 004bf4a0 f   quakecam.obj
 0001:000bf1d0       ?UpdateQuakeCam@@YAXPAUTAG_CAMERAINFO@@@Z 004bf610 f   quakecam.obj
 0001:000bf910       ?DrawScreenSmashEffect@@YAXPAUTAG_SCREENSMASHINFO@@@Z 004bfd50 f   smashcamera.obj
 0001:000bfc30       ?FreeScreenSmashEffect@@YAXPAUTAG_CAMERAINFO@@@Z 004c0070 f   smashcamera.obj
 0001:000bfc60       ?UpdateScreenSmashEffect@@YAHPAUTAG_SCREENSMASHINFO@@@Z 004c00a0 f   smashcamera.obj
 0001:000bfd70       ?destructForceEnd@@YAX_N@Z 004c01b0 f   destruct.obj
 0001:000bfe30       ?DestructibleGameDestroy@@YAXPAUTAG_ACTORINSTANCE@@0@Z 004c0270 f   destruct.obj
 0001:000bfea0       ?doDestructionGamePickup@@YAXPAUTAG_ACTORINSTANCE@@H@Z 004c02e0 f   destruct.obj
 0001:000c0040       ?getLastItem@TAG_PAGE@@QAEPAUTAG_PAGEITEM@@XZ 004c0480 f i destruct.obj
 0001:000c0080       ?destructHandler@@YAHH@Z   004c04c0 f   destruct.obj
 0001:000c13a0       ?supportsMode@PAGEITEMEFFECT@@UAE_NW4PIEMode@@@Z 004c17e0 f i multiplayer.obj
 0001:000c13c0       ?update@PAGEITEMEFFECT@@UAE_NXZ 004c1800 f i multiplayer.obj
 0001:000c13d0       ?draw@PAGEITEMEFFECT@@UAEXXZ 004c1810 f i multiplayer.obj
 0001:000c13e0       ?processCharacter@PAGEITEMEFFECT@@UAEXQAU_TBPrimVertex@@H@Z 004c1820 f i multiplayer.obj
 0001:000c13f0       ??_EPAGEITEMEFFECT@@UAEPAXI@Z 004c1830 f i multiplayer.obj
 0001:000c13f0       ??_GPAGEITEMEFFECT@@UAEPAXI@Z 004c1830 f i multiplayer.obj
 0001:000c1410       ??0PIE_FLASH@@QAE@ABU0@@Z  004c1850 f i multiplayer.obj
 0001:000c1450       ?supportsMode@PIE_FLASH@@UAE_NW4PIEMode@@@Z 004c1890 f i multiplayer.obj
 0001:000c1470       ??_EPIE_FLASH@@UAEPAXI@Z   004c18b0 f i multiplayer.obj
 0001:000c1470       ??_GPIE_FLASH@@UAEPAXI@Z   004c18b0 f i multiplayer.obj
 0001:000c1490       ??1PIE_FLASH@@UAE@XZ       004c18d0 f i multiplayer.obj
 0001:000c14e0       ?mpInit@@YAHHHPAUTAG_ACTORINSTANCE@@0@Z 004c1920 f   multiplayer.obj
 0001:000c1530       ?mpPrep@@YAHXZ             004c1970 f   multiplayer.obj
 0001:000c1550       ?mpPoll@@YAHXZ             004c1990 f   multiplayer.obj
 0001:000c1570       ?mpDraw@@YAHPAUTAG_CAMERAINFO@@@Z 004c19b0 f   multiplayer.obj
 0001:000c15a0       ?mpKill@@YAHXZ             004c19e0 f   multiplayer.obj
 0001:000c15e0       ?FinishedFadeFromMultiplayerFall@@YAXPAVTAG_FADE@@@Z 004c1a20 f   multiplayer.obj
 0001:000c1650       ?mpCountdownUpdate@@YAHXZ  004c1a90 f   multiplayer.obj
 0001:000c1660       ?mpCountdownKill@@YAXXZ    004c1aa0 f   multiplayer.obj
 0001:000c16a0       ?mpEndGameMenuKill@@YAXXZ  004c1ae0 f   multiplayer.obj
 0001:000c1710       ?mpEndBonusKill@@YAXXZ     004c1b50 f   multiplayer.obj
 0001:000c1760       ?twoPlayer_pageOpenFunc@RULEBOOKOVERLAY_INFO@@SAXQAUTAG_PAGE@@H@Z 004c1ba0 f   multiplayer.obj
 0001:000c1790       ?ruleBookCloseCallback@@YAXQAUTAG_PAPERBOOK@@@Z 004c1bd0 f   multiplayer.obj
 0001:000c1800       ?MP_RuleBook_pageOpenFunc@@YAXQAUTAG_PAGE@@H@Z 004c1c40 f   multiplayer.obj
 0001:000c1860       ?MP_RuleBook_pageCloseFunc@@YAXQAUTAG_PAGE@@H@Z 004c1ca0 f   multiplayer.obj
 0001:000c1890       ?CloseRuleBook@@YAXXZ      004c1cd0 f   multiplayer.obj
 0001:000c1910       ?KillRuleBook@@YAXXZ       004c1d50 f   multiplayer.obj
 0001:000c1930       ?setNumPlayers@@YAXE_N@Z   004c1d70 f   multiplayer.obj
 0001:000c1960       ?copy@PAGEITEMEFFECT@@UBEPAU1@XZ 004c1da0 f i multiplayer.obj
 0001:000c19b0       ?copy@PIE_FLASH@@UBEPAUPAGEITEMEFFECT@@XZ 004c1df0 f i multiplayer.obj
 0001:000c19e0       ?DoMultiplayerCharacterFall@@YAXPAUTAG_ACTORINSTANCE@@@Z 004c1e20 f   multiplayer.obj
 0001:000c1c30       ?mpCountdownDraw@@YAXXZ    004c2070 f   multiplayer.obj
 0001:000c1d60       ?mpEndGameMenuHandler@@YAXH@Z 004c21a0 f   multiplayer.obj
 0001:000c1f80       ?mpEndBonusSetUp@@YAXPAHHM@Z 004c23c0 f   multiplayer.obj
 0001:000c2db0       ?menuActionFunc@RULEBOOKOVERLAY_INFO@@SAXAAUMENUACTION_INFO@@@Z 004c31f0 f   multiplayer.obj
 0001:000c2f20       ?InsertRulebookChapterText@@YAXPAUTAG_PAPERBOOK@@HHPAD1H@Z 004c3360 f   multiplayer.obj
 0001:000c32a0       ?InitEndMPGameStatsBook@@YAXXZ 004c36e0 f   multiplayer.obj
 0001:000c45d0       ?mpEndBonusHandler@@YAXH@Z 004c4a10 f   multiplayer.obj
 0001:000c4820       ?InitRuleBook@@YAXXZ       004c4c60 f   multiplayer.obj
 0001:000c58c0       ?mpPageUpdate@@YAXQAUTAG_PAGE@@H@Z 004c5d00 f   multiplayer.obj
 0001:000c5a20       ?mpPageOpen@@YAXQAUTAG_PAGE@@H@Z 004c5e60 f   multiplayer.obj
 0001:000c5a70       ?mpCountdownSetup@@YAXH@Z  004c5eb0 f   multiplayer.obj
 0001:000c5e20       ?mpEndGameMenuSetUp@@YAXPAHHH@Z 004c6260 f   multiplayer.obj
 0001:000c6240       ?StartRuleBook@@YAXXZ      004c6680 f   multiplayer.obj
 0001:000c6440       ?raceForceEnd@@YAX_N@Z     004c6880 f   race.obj
 0001:000c6550       ?raceAddTarget@@YAXQAM0@Z  004c6990 f   race.obj
 0001:000c6670       ?raceAddCheckPoint@@YAXQAM0HM@Z 004c6ab0 f   race.obj
 0001:000c68c0       ?raceHandler@@YAHH@Z       004c6d00 f   race.obj
 0001:000c85f0       ??1GAMBLESPINNER@@QAE@XZ   004c8a30 f   Tournament.obj
 0001:000c8610       ?SetHold@GAMBLESPINNER@@QAE_NXZ 004c8a50 f   Tournament.obj
 0001:000c8630       ?SetTarget@GAMBLESPINNER@@QAEXM@Z 004c8a70 f   Tournament.obj
 0001:000c8650       ?GetFirstSpin@GAMBLESPINNER@@QAE_NXZ 004c8a90 f   Tournament.obj
 0001:000c8660       ?GetSpin@GAMBLESPINNER@@QAE_NXZ 004c8aa0 f   Tournament.obj
 0001:000c8670       ?GetHold@GAMBLESPINNER@@QAE_NXZ 004c8ab0 f   Tournament.obj
 0001:000c8680       ?getTourneyRandom@@YAXQADD@Z 004c8ac0 f   Tournament.obj
 0001:000c8720       ?ProcessNextRound@@YAXXZ   004c8b60 f   Tournament.obj
 0001:000c8870       ?mpEndRoundMenuKill@@YAXXZ 004c8cb0 f   Tournament.obj
 0001:000c88f0       ?SetSlotState@@YAXH@Z      004c8d30 f   Tournament.obj
 0001:000c8920       ?ProcessTournamentButton@@YAXH@Z 004c8d60 f   Tournament.obj
 0001:000c8b20       ?CleanUpTournamentPage@@YAXXZ 004c8f60 f   Tournament.obj
 0001:000c8b80       ?GetGameNumber@@YAHH@Z     004c8fc0 f   Tournament.obj
 0001:000c8ba0       ?GetTournamentSplashScreen@@YAPADXZ 004c8fe0 f   Tournament.obj
 0001:000c8bf0       ?UpdateTournamentWin@@YAXXZ 004c9030 f   Tournament.obj
 0001:000c8cd0       ?DrawTournamentWin@@YAXXZ  004c9110 f   Tournament.obj
 0001:000c8db0       ?EndTournamentWin@@YAXPAVTAG_FADE@@@Z 004c91f0 f   Tournament.obj
 0001:000c8df0       ??0GAMBLESPINNER@@QAE@XZ   004c9230 f   Tournament.obj
 0001:000c8e10       ?UpdateSpinner@GAMBLESPINNER@@QAEXXZ 004c9250 f   Tournament.obj
 0001:000c8ee0       ?mpEndRoundMenuSetUp@@YAXPAHHH@Z 004c9320 f   Tournament.obj
 0001:000c9350       ?InitTournament@@YAXXZ     004c9790 f   Tournament.obj
 0001:000c9520       ?UpdateTournamentPage@@YAXXZ 004c9960 f   Tournament.obj
 0001:000c9590       ?DoTournamentWin@@YAXPAVTAG_FADE@@@Z 004c99d0 f   Tournament.obj
 0001:000c97c0       ?showTournamentWinner@@YAXD@Z 004c9c00 f   Tournament.obj
 0001:000c9840       ?mpEndRoundMenuHandler@@YAXH@Z 004c9c80 f   Tournament.obj
 0001:000c9b50       ?RespondToMTweetyCrateCollision@@YAHPAUTAG_ACTORINSTANCE@@0@Z 004c9f90 f   crateattack.obj
 0001:000c9d70       ?CreateElectricityAttack@@YAPAUTAG_ELECTRICITYATTACKINFO@@HH@Z 004ca1b0 f   electricityattack.obj
 0001:000c9eb0       ?UpdateElectricityAttack@@YAXPAUTAG_ACTORINSTANCE@@PAUTAG_ELECTRICITYATTACKINFO@@@Z 004ca2f0 f   electricityattack.obj
 0001:000ca110       ?ResetElectricityAttack@@YAXPAUTAG_ELECTRICITYATTACKINFO@@@Z 004ca550 f   electricityattack.obj
 0001:000ca140       ?FreeElectricityAttackInfo@@YAPAUTAG_ELECTRICITYATTACKINFO@@PAU1@@Z 004ca580 f   electricityattack.obj
 0001:000ca210       ?DrawElectricityAttackInfo@@YAXPAUTAG_ACTORINSTANCE@@PAUTAG_ELECTRICITYATTACKINFO@@@Z 004ca650 f   electricityattack.obj
 0001:000ca320       ?FillInAttributesForMTweetyGame@@YAXPAUTAG_ELECTRICITYATTACKINFO@@@Z 004ca760 f   electricityattack.obj
 0001:000ca680       ?UpdateElectricityAttackCollisionWithActor@@YAHPAUTAG_ELECTRICITYATTACKINFO@@PAUTAG_ACTORINSTANCE@@@Z 004caac0 f   electricityattack.obj
 0001:000ca790       ?MechaTweetyCrateAttackCallback@@YAHPAUTAG_MECHATWEETYINFO@@@Z 004cabd0 f   mechatweety.obj
 0001:000ca930       ?MechaTweetyElectricityAttackCallback@@YAHPAUTAG_MECHATWEETYINFO@@@Z 004cad70 f   mechatweety.obj
 0001:000ca9e0       ?MechaTweetyStageOneMoveCallback@@YAHPAUTAG_MECHATWEETYINFO@@@Z 004cae20 f   mechatweety.obj
 0001:000cab30       ?MechaTweetyDefendCallback@@YAHPAUTAG_MECHATWEETYINFO@@@Z 004caf70 f   mechatweety.obj
 0001:000cab60       ?MechaTweetyTurnCallback@@YAHPAUTAG_MECHATWEETYINFO@@@Z 004cafa0 f   mechatweety.obj
 0001:000cabe0       ?MechaTweetyGetCrateCallback@@YAHPAUTAG_MECHATWEETYINFO@@@Z 004cb020 f   mechatweety.obj
 0001:000cac40       ?MechaTweetyStunnedCallback@@YAHPAUTAG_MECHATWEETYINFO@@@Z 004cb080 f   mechatweety.obj
 0001:000cac80       ?MechaTweetySetHomePosCallback@@YAHPAUTAG_MECHATWEETYINFO@@@Z 004cb0c0 f   mechatweety.obj
 0001:000cace0       ?MechaTweetyNextCameraCallback@@YAHPAUTAG_MECHATWEETYINFO@@@Z 004cb120 f   mechatweety.obj
 0001:000cacf0       ?MechaTweetyTransportCallback@@YAHPAUTAG_MECHATWEETYINFO@@@Z 004cb130 f   mechatweety.obj
 0001:000cad10       ?MechaTweetyPlayAnimCallback@@YAHPAUTAG_MECHATWEETYINFO@@@Z 004cb150 f   mechatweety.obj
 0001:000cad60       ?MechaTweetyMagnetChargeCallback@@YAHPAUTAG_MECHATWEETYINFO@@@Z 004cb1a0 f   mechatweety.obj
 0001:000cada0       ?MechaTweetyFlyCallback@@YAHPAUTAG_MECHATWEETYINFO@@@Z 004cb1e0 f   mechatweety.obj
 0001:000cb340       ?MechaTweetyFireRocketsCallback@@YAHPAUTAG_MECHATWEETYINFO@@@Z 004cb780 f   mechatweety.obj
 0001:000cb480       ?MechaTweetyOpenDoorCallback@@YAHPAUTAG_MECHATWEETYINFO@@@Z 004cb8c0 f   mechatweety.obj
 0001:000cb4c0       ?MechaTweetyScaleCallback@@YAHPAUTAG_MECHATWEETYINFO@@@Z 004cb900 f   mechatweety.obj
 0001:000cb5c0       ?MechaTweetyStateChangeCallback@@YAHPAUTAG_MECHATWEETYINFO@@W4EMTweetyAIState@@1@Z 004cba00 f   mechatweety.obj
 0001:000cbc00       ?UpdateMechaTweety@@YAXPAUTAG_ACTORINSTANCE@@@Z 004cc040 f   mechatweety.obj
 0001:000cbc90       ?UpdateMechaTweetyBossGameLogic@@YAXPAUTAG_ACTORINSTANCELIST@@@Z 004cc0d0 f   mechatweety.obj
 0001:000ccbc0       ?DrawMechaTweetySpecial@@YAXPAUTAG_ACTORINSTANCELIST@@@Z 004cd000 f   mechatweety.obj
 0001:000ccc60       ?FreeMechaTweetySpecial@@YAXXZ 004cd0a0 f   mechatweety.obj
 0001:000cccf0       ?UpdateCrateCollisionWithMechaTweety@@YAXPAUTAG_ACTORINSTANCE@@@Z 004cd130 f   mechatweety.obj
 0001:000cd000       ?InitialiseMTweetyGenericInfo@@YAXXZ 004cd440 f   mechatweety.obj
 0001:000cd280       ?UpdateMTweetyGenericInfo@@YAXXZ 004cd6c0 f   mechatweety.obj
 0001:000cde30       ?FreeMTweetyGenericInfo@@YAXXZ 004ce270 f   mechatweety.obj
 0001:000cde80       ?CreateActorInstanceMechaTweety@@YAHPAUTAG_ACTORINSTANCE@@@Z 004ce2c0 f   mechatweety.obj
 0001:000ce1e0       ?MangaMagnetExtraCreateCallback@@YAXPAU_TBExtraSystem@@PAEPAD@Z 004ce620 f   mtweetymagnet.obj
 0001:000ce290       ?MangaMagnetExtraUpdateCallback@@YAXPAU_TBExtraSystem@@HPAPAEM@Z 004ce6d0 f   mtweetymagnet.obj
 0001:000ce4f0       ?MangaMagnetExtraRenderCallback@@YAXPAU_TBExtraSystem@@HPAPAEPAX@Z 004ce930 f   mtweetymagnet.obj
 0001:000ce6e0       ?InitialiseMagnetStreaks@@YAHPAUTAG_MECHATWEETYINFO@@@Z 004ceb20 f   mtweetymagnet.obj
 0001:000ce9c0       ?UpdateMagnetStreaks@@YAXPAUTAG_MECHATWEETYINFO@@@Z 004cee00 f   mtweetymagnet.obj
 0001:000ceb40       ?DrawMagnetStreaks@@YAXPAUTAG_MECHATWEETYINFO@@@Z 004cef80 f   mtweetymagnet.obj
 0001:000cec70       ?FreeMagnetStreaks@@YAXPAUTAG_MECHATWEETYINFO@@@Z 004cf0b0 f   mtweetymagnet.obj
 0001:000ceca0       ?InitMangaMagnetExtraSystem@@YAXXZ 004cf0e0 f   mtweetymagnet.obj
 0001:000cece0       ?myMagnetsStateChange@@YAXPAUTAG_ACTORINSTANCE@@@Z 004cf120 f   mtweetyscripts.obj
 0001:000ced10       ?RequestNewMechaTweetySequence@@YAXPAUTAG_ACTORINSTANCE@@PAUTAG_MTWEETY_EVENT@@@Z 004cf150 f   mtweetyscripts.obj
 0001:000ced90       ?ResetMechaTweetyCallback@@YAHPAXW4EBossGameResetChoice@@@Z 004cf1d0 f   mtweetyscripts.obj
 0001:000cf450       ?UpdateAndChooseMechaTweetySequences@@YAXPAUTAG_ACTORINSTANCELIST@@@Z 004cf890 f   mtweetyscripts.obj
 0001:000cf8e0       ?CreateRedShieldArroundActor@@YAPAUTAG_REDSHIELDINFO@@PAUTAG_ACTORINSTANCE@@PADM@Z 004cfd20 f   redshield.obj
 0001:000cfd70       ?UpdateRedShieldArroundActor@@YAXPAUTAG_ACTORINSTANCE@@PAUTAG_REDSHIELDINFO@@@Z 004d01b0 f   redshield.obj
 0001:000d0400       ?DrawRedShieldSpaghetti@@YAXPAUTAG_ACTORINSTANCE@@PAUTAG_REDSHIELDINFO@@@Z 004d0840 f   redshield.obj
 0001:000d05c0       ?RequestRedShieldStateChange@@YAXPAUTAG_REDSHIELDINFO@@W4EShieldState@@@Z 004d0a00 f   redshield.obj
 0001:000d0620       ?DestroyRedShieldArroundActor@@YAXPAUTAG_REDSHIELDINFO@@@Z 004d0a60 f   redshield.obj
 0001:000d0650       ?CreateTazShield@@YAXPAUTAG_ACTORINSTANCE@@H@Z 004d0a90 f   redshield.obj
 0001:000d0770       ?ReattachTazShield@@YAXPAUTAG_ACTORINSTANCE@@PAUTAG_TAZSHIELDINFO@@@Z 004d0bb0 f   redshield.obj
 0001:000d0800       ?ReInitialiseShieldHealth@@YAXPAUTAG_ACTORINSTANCE@@H@Z 004d0c40 f   redshield.obj
 0001:000d08b0       ?FreeTazShield@@YAPAUTAG_TAZSHIELDINFO@@PAU1@@Z 004d0cf0 f   redshield.obj
 0001:000d08d0       ?ReduceShieldHealthByOne@@YAHPAUTAG_ACTORINSTANCE@@@Z 004d0d10 f   redshield.obj
 0001:000d09a0       ?RandomiseButtonTimes@@YAXXZ 004d0de0 f   tazbossitems.obj
 0001:000d0a10       ?CreateTazBossItemInstance@@YAHPAUTAG_ACTORINSTANCE@@W4ETazBossItem@@@Z 004d0e50 f   tazbossitems.obj
 0001:000d0a60       ?DrawTazBossItemStuff@@YAXPAUTAG_ACTORINSTANCELIST@@@Z 004d0ea0 f   tazbossitems.obj
 0001:000d0b80       ?myEatCallback@@YAXPAUTAG_ACTORINSTANCE@@@Z 004d0fc0 f   tazbossitems.obj
 0001:000d0bb0       ?RespondToTazBossBreakableCollision@@YAHPAUTAG_ACTORINSTANCE@@0@Z 004d0ff0 f   tazbossitems.obj
 0001:000d0f40       ?RespondToMagnetHitPointCollision@@YAHPAUTAG_ACTORINSTANCE@@0@Z 004d1380 f   tazbossitems.obj
 0001:000d1190       ?RespondToDoorButtonCollision@@YAHPAUTAG_ACTORINSTANCE@@0@Z 004d15d0 f   tazbossitems.obj
 0001:000d12d0       ?CheckForCompletionOfTazWantedGame@@YAHXZ 004d1710 f   tazbossitems.obj
 0001:000d14a0       ?InitialiseTazBossItemInstance@@YAHPAUTAG_ACTORINSTANCE@@@Z 004d18e0 f   tazbossitems.obj
 0001:000d1860       ?UpdateTazBossItemInstance@@YAXPAUTAG_ACTORINSTANCE@@@Z 004d1ca0 f   tazbossitems.obj
 0001:000d1d00       ?EnableCharacterTransporterMode@@YAHPAUTAG_ACTORINSTANCE@@MMH@Z 004d2140 f   transportereffect.obj
 0001:000d1f10       ?DisableCharacterTransporterMode@@YAXPAUTAG_ACTORINSTANCE@@@Z 004d2350 f   transportereffect.obj
 0001:000d1f70       ?SetCharacterTransportToPosition@@YAXPAUTAG_ACTORINSTANCE@@QAM1@Z 004d23b0 f   transportereffect.obj
 0001:000d2050       ?UpdateCharacterInTransporter@@YAHPAUTAG_ACTORINSTANCE@@@Z 004d2490 f   transportereffect.obj
 0001:000d22e0       ?DrawCharacterInTransporter@@YAHPAUTAG_ACTORINSTANCE@@@Z 004d2720 f   transportereffect.obj
 0001:000d2390       ?setScore@TAG_BRICKDISPLAY@@QAEXHH@Z 004d27d0 f   BrickDisplay.obj
 0001:000d23e0       ?decreaseScore@TAG_BRICKDISPLAY@@QAEHXZ 004d2820 f   BrickDisplay.obj
 0001:000d2400       ?updateBrickAlphas@TAG_BRICKDISPLAY@@AAEXXZ 004d2840 f i BrickDisplay.obj
 0001:000d2480       ?update@TAG_BRICKDISPLAY@@UAEXXZ 004d28c0 f   BrickDisplay.obj
 0001:000d2530       ?mainDraw@TAG_BRICKDISPLAY@@EAEXXZ 004d2970 f   BrickDisplay.obj
 0001:000d2670       ?init@TAG_BRICKDISPLAY@@QAEXQBD@Z 004d2ab0 f   BrickDisplay.obj
 0001:000d26b0       ?init@GOLFBAR@@QAEXQBUTAG_PADCONTROLSTATUS@@P6AXJM@ZJQBD@Z 004d2af0 f   GolfBar.obj
 0001:000d2740       ?mainDraw@GOLFBAR@@MAEXXZ  004d2b80 f   GolfBar.obj
 0001:000d27f0       ?update@GOLFBAR@@UAEXXZ    004d2c30 f   GolfBar.obj
 0001:000d28b0       ??H@YA?AUTAG_VEC@@ABU0@QBM@Z 004d2cf0 f i Fireball.obj
 0001:000d28b0       ??H@YA?AUTAG_VEC@@QBMABU0@@Z 004d2cf0 f i WestBoss.obj
 0001:000d2910       ?initMessageBook@TAG_BOSSGAME@@MAEXXZ 004d2d50 f i WestBoss.obj
 0001:000d2920       ?initScoreBook@TAG_BOSSGAME@@MAEXXZ 004d2d60 f i WestBoss.obj
 0001:000d2930       ?initInstructionBook@TAG_BOSSGAME@@MAEXXZ 004d2d70 f i WestBoss.obj
 0001:000d2930       ?initInstructionBook@TAG_ZOOBOSSGAME@@EAEXXZ 004d2d70 f i ZooBoss.obj
 0001:000d2930       ?initInstructionBook@TAG_WESTBOSSGAME@@EAEXXZ 004d2d70 f i WestBoss.obj
 0001:000d2940       ?setState@TAG_BOSSGAME@@UAEXH@Z 004d2d80 f i WestBoss.obj
 0001:000d2960       ?setYang@TAG_ACTORINSTANCEUSER@@QAEXM@Z 004d2da0 f i WestBoss.obj
 0001:000d29d0       ?getYang@TAG_ACTORINSTANCEUSER@@QBEMXZ 004d2e10 f i WestBoss.obj
 0001:000d2a30       ?dist@TAG_ACTORINSTANCEUSER@@QBEMQAM@Z 004d2e70 f i WestBoss.obj
 0001:000d2a50       ?dist@TAG_ACTORINSTANCEUSER@@QBEMABU1@@Z 004d2e90 f i WestBoss.obj
 0001:000d2a80       ?getYang@TAG_ACTORINSTANCEUSER@@QBEMABU1@@Z 004d2ec0 f i WestBoss.obj
 0001:000d2ab0       ?YrotateToFace@TAG_ACTORINSTANCEUSER@@QAEXQAM@Z 004d2ef0 f i WestBoss.obj
 0001:000d2b10       ??0TAG_BRICKDISPLAY@@QAE@QBD@Z 004d2f50 f i WestBoss.obj
 0001:000d2b60       ?getRequiredHeight@TAG_BRICKDISPLAY@@UAEMXZ 004d2fa0 f i WestBoss.obj
 0001:000d2b70       ?getRequiredWidth@TAG_BRICKDISPLAY@@UAEMXZ 004d2fb0 f i WestBoss.obj
 0001:000d2b80       ??0GOLFBAR@@QAE@QBUTAG_PADCONTROLSTATUS@@Q6AXJM@ZJQBD@Z 004d2fc0 f i WestBoss.obj
 0001:000d2c10       ?getRequiredHeight@GOLFBAR@@UAEMXZ 004d3050 f i WestBoss.obj
 0001:000d2c50       ?getRequiredWidth@GOLFBAR@@UAEMXZ 004d3090 f i WestBoss.obj
 0001:000d2c90       ?say@TAG_WBSAM@@QAEXW4WBSamSpeech@@@Z 004d30d0 f i WestBoss.obj
 0001:000d2cb0       ??0TAG_BOSSGAME@@QAE@XZ    004d30f0 f i WestBoss.obj
 0001:000d2d10       ?overrideInput@TAG_BOSSGAME@@UAE_NXZ 004d3150 f i WestBoss.obj
 0001:000d2d20       ??1TAG_BOSSGAME@@QAE@XZ    004d3160 f i WestBoss.obj
 0001:000d2d80       ?kaboom@TAG_WBSKATEBOMB@@QAEXXZ 004d31c0 f   WestBoss.obj
 0001:000d2e00       ?chooseRandomProduceAnim@TAG_WBSAM@@QAEXXZ 004d3240 f   WestBoss.obj
 0001:000d2e60       ?produceDynamite@TAG_WBSAM@@QAEXXZ 004d32a0 f   WestBoss.obj
 0001:000d2eb0       ?startChuck@TAG_WBSAM@@QAEXXZ 004d32f0 f   WestBoss.obj
 0001:000d2f70       ?humanThrowCallback@TAG_WBSAM@@SAXJM@Z 004d33b0 f   WestBoss.obj
 0001:000d2f90       ?sulk@TAG_WBSAM@@QAEX_N@Z  004d33d0 f   WestBoss.obj
 0001:000d30d0       ?celebrate@TAG_WBSAM@@QAEXXZ 004d3510 f   WestBoss.obj
 0001:000d31b0       ?draw@TAG_WBSAM@@QAEXXZ    004d35f0 f   WestBoss.obj
 0001:000d33f0       ?init@TAG_WBTAZ@@QAEXXZ    004d3830 f   WestBoss.obj
 0001:000d3560       ?drawMarker@TAG_WBTAZ@@QAEXXZ 004d39a0 f   WestBoss.obj
 0001:000d3660       ?projectileStateCollisionCallback@TAG_WBTAZ@@SAXQAUTAG_ACTORINSTANCE@@@Z 004d3aa0 f   WestBoss.obj
 0001:000d3760       ?launchStateChangeCallback@TAG_WBTAZ@@SAXPAUTAG_ACTORINSTANCE@@@Z 004d3ba0 f   WestBoss.obj
 0001:000d37d0       ?setState@TAG_WBDYNAMITE@@QAEXW4WBDynamiteState@@@Z 004d3c10 f   WestBoss.obj
 0001:000d38f0       ?draw@TAG_WBDYNAMITE@@QAEXXZ 004d3d30 f   WestBoss.obj
 0001:000d3b60       ?initFragments@TAG_WBTNTCRATE@@QAEXPAU_TBActorNodeInstance@@QAH@Z 004d3fa0 f   WestBoss.obj
 0001:000d3c20       ?launchFragments@TAG_WBTNTCRATE@@QAEXM@Z 004d4060 f   WestBoss.obj
 0001:000d3d90       ?countFragments@TAG_WBTNTCRATE@@QAEHPAU_TBActorNodeInstance@@@Z 004d41d0 f   WestBoss.obj
 0001:000d3df0       ?updateFragments@TAG_WBTNTCRATE@@QAEXXZ 004d4230 f   WestBoss.obj
 0001:000d3fb0       ?drawFragments@TAG_WBTNTCRATE@@QAEXXZ 004d43f0 f   WestBoss.obj
 0001:000d4040       ?init@TAG_WBTNTCRATE@@QAEXQADW4WBTNTCrateType@@@Z 004d4480 f   WestBoss.obj
 0001:000d40e0       ?resetCallback@TAG_WESTBOSSGAME@@SAHPAXW4EBossGameResetChoice@@@Z 004d4520 f   WestBoss.obj
 0001:000d4130       ?initMessageBook@TAG_WESTBOSSGAME@@EAEXXZ 004d4570 f   WestBoss.obj
 0001:000d4210       ?draw@TAG_WESTBOSSGAME@@UAEXXZ 004d4650 f   WestBoss.obj
 0001:000d4340       ?initCrates@TAG_WESTBOSSGAME@@QAEXXZ 004d4780 f   WestBoss.obj
 0001:000d43f0       ?removeDynamite@TAG_WESTBOSSGAME@@QAEXXZ 004d4830 f   WestBoss.obj
 0001:000d4430       ?removeCrates@TAG_WESTBOSSGAME@@QAEXXZ 004d4870 f   WestBoss.obj
 0001:000d4510       ?draw2@TAG_WESTBOSSGAME@@UAEXXZ 004d4950 f   WestBoss.obj
 0001:000d4590       ?shutdown@TAG_WESTBOSSGAME@@UAEXXZ 004d49d0 f   WestBoss.obj
 0001:000d4720       ?evaluateGridPos@TAG_WESTBOSSGAME@@ABEXQBMQAM@Z 004d4b60 f   WestBoss.obj
 0001:000d4790       ?sitPointOnGrid@TAG_WESTBOSSGAME@@ABEXQAMM@Z 004d4bd0 f   WestBoss.obj
 0001:000d47e0       ?getCrate@TAG_WESTBOSSGAME@@AAEPAUTAG_WBTNTCRATE@@HH@Z 004d4c20 f   WestBoss.obj
 0001:000d4870       ?getAdjacentGroundSquare@TAG_WESTBOSSGAME@@QAEXIIQAI0@Z 004d4cb0 f   WestBoss.obj
 0001:000d4900       ?discardOldest@?$LOOPARRAY@UTAG_WBDYNAMITE@@$0P@@@QAEXI@Z 004d4d40 f i WestBoss.obj
 0001:000d4960       ?discardOldest@?$LOOPARRAY@UTAG_WBSKATEBOMB@@$08@@QAEXI@Z 004d4da0 f i WestBoss.obj
 0001:000d49c0       ??1?$LOOPARRAY@UTAG_WBDYNAMITE@@$0P@@@QAE@XZ 004d4e00 f i WestBoss.obj
 0001:000d49e0       ??1?$LOOPARRAY@UTAG_WBSKATEBOMB@@$08@@QAE@XZ 004d4e20 f i WestBoss.obj
 0001:000d4a00       ?init@TAG_WBSKATEBOMB@@QAEXHHMMM@Z 004d4e40 f   WestBoss.obj
 0001:000d4aa0       ?init@TAG_WBDEPUTY@@QAEXHH@Z 004d4ee0 f   WestBoss.obj
 0001:000d4ca0       ?init@TAG_WBDYNAMITE@@QAEXQAMM@Z 004d50e0 f   WestBoss.obj
 0001:000d4d90       ?init@TAG_WBDYNAMITE@@QAEXXZ 004d51d0 f   WestBoss.obj
 0001:000d4e50       ?plant@TAG_WBDYNAMITE@@QAEXHH@Z 004d5290 f   WestBoss.obj
 0001:000d4f40       ?kaboom@TAG_WBDYNAMITE@@QAEXXZ 004d5380 f   WestBoss.obj
 0001:000d5020       ?update@TAG_WBDYNAMITE@@QAEXXZ 004d5460 f   WestBoss.obj
 0001:000d51a0       ?update@TAG_WBTNTCRATE@@QAEXXZ 004d55e0 f   WestBoss.obj
 0001:000d5210       ?setupTazOutroCam@TAG_WESTBOSSGAME@@AAEXXZ 004d5650 f   WestBoss.obj
 0001:000d53f0       ?setCamera@TAG_WESTBOSSGAME@@AAEXW4EWestBossCamera@@@Z 004d5830 f   WestBoss.obj
 0001:000d5800       ?getNew@?$LOOPARRAY@UTAG_WBDYNAMITE@@$0P@@@QAEPAUTAG_WBDYNAMITE@@I@Z 004d5c40 f i WestBoss.obj
 0001:000d58b0       ?getNew@?$LOOPARRAY@UTAG_WBSKATEBOMB@@$08@@QAEPAUTAG_WBSKATEBOMB@@I@Z 004d5cf0 f i WestBoss.obj
 0001:000d5950       ?addTarget@TAG_KOSCAMDATA@@QAEXQAU_TBActorInstance@@MM@Z 004d5d90 f i WestBoss.obj
 0001:000d59a0       ??1TAG_WESTBOSSGAME@@QAE@XZ 004d5de0 f i WestBoss.obj
 0001:000d5a80       ??0TAG_WBTNTCRATE@@QAE@XZ  004d5ec0 f i WestBoss.obj
 0001:000d5af0       ?chuck@TAG_WBSAM@@QAEPAUTAG_WBDYNAMITE@@XZ 004d5f30 f   WestBoss.obj
 0001:000d5d20       ?respondToMessage@TAG_WBSAM@@QAEXQBD@Z 004d6160 f   WestBoss.obj
 0001:000d5d80       ?getHitByExplosion@TAG_WBTAZ@@QAEXQBUTAG_WBE_FIREBALLBRANCHINFO@@@Z 004d61c0 f   WestBoss.obj
 0001:000d60b0       ?kaboom@TAG_WBTNTCRATE@@QAEXM@Z 004d64f0 f   WestBoss.obj
 0001:000d6250       ?setState@TAG_WESTBOSSGAME@@UAEXH@Z 004d6690 f   WestBoss.obj
 0001:000d64c0       ?respondToMessage@TAG_WESTBOSSGAME@@QAEXQBUTAG_ACTORINSTANCE@@QBD@Z 004d6900 f   WestBoss.obj
 0001:000d64e0       ?initScoreBook@TAG_WESTBOSSGAME@@EAEXXZ 004d6920 f   WestBoss.obj
 0001:000d6810       ??0TAG_WESTBOSSGAME@@QAE@XZ 004d6c50 f i WestBoss.obj
 0001:000d6970       ?update@TAG_WBSKATEBOMB@@QAEXXZ 004d6db0 f   WestBoss.obj
 0001:000d6ae0       ?attack@TAG_WBDEPUTY@@QAEXXZ 004d6f20 f   WestBoss.obj
 0001:000d6bd0       ?humanUpdate@TAG_WBSAM@@QAEXXZ 004d7010 f   WestBoss.obj
 0001:000d6da0       ?aiUpdate@TAG_WBSAM@@QAEXXZ 004d71e0 f   WestBoss.obj
 0001:000d6f90       ?loseHealthFromExplosion@TAG_WBTAZ@@QAEXXZ 004d73d0 f   WestBoss.obj
 0001:000d7000       ?updateCamera@TAG_WESTBOSSGAME@@QAEXXZ 004d7440 f   WestBoss.obj
 0001:000d7640       ?init@TAG_WBSAM@@QAEXXZ    004d7a80 f   WestBoss.obj
 0001:000d78c0       ?update@TAG_WBTAZ@@QAEXXZ  004d7d00 f   WestBoss.obj
 0001:000d7d50       ?init@TAG_WESTBOSSGAME@@UAEXXZ 004d8190 f   WestBoss.obj
 0001:000d8090       ?update@TAG_WESTBOSSGAME@@UAEXXZ 004d84d0 f   WestBoss.obj
 0001:000d8380       ?stop@TAG_FIREBALL@@QAEXXZ 004d87c0 f i WestBossExp.obj
 0001:000d83a0       ??0TAG_WBE_FIREBALLBRANCHINFO@@QAE@QBVTAG_WESTBOSSEXPBRANCH@@@Z 004d87e0 f i WestBossExp.obj
 0001:000d8420       ?updateActualRange@TAG_WESTBOSSEXPBRANCH@@QAEXXZ 004d8860 f   WestBossExp.obj
 0001:000d85c0       ?draw@TAG_WESTBOSSEXPBRANCH@@QAEXXZ 004d8a00 f   WestBossExp.obj
 0001:000d8c20       ?reaches@TAG_WBE_FIREBALLBRANCHINFO@@QAE_NHH@Z 004d9060 f   WestBossExp.obj
 0001:000d8cb0       ?WestBossExp_shutdown@@YAXXZ 004d90f0 f   WestBossExp.obj
 0001:000d8ce0       ?WestBossExp_draw@@YAXXZ   004d9120 f   WestBossExp.obj
 0001:000d8dd0       ?discardOldest@?$LOOPARRAY@VTAG_WESTBOSSEXPLOSION@@$03@@QAEXI@Z 004d9210 f i WestBossExp.obj
 0001:000d8e30       ??0TAG_WESTBOSSEXPLOSION@@QAE@XZ 004d9270 f i WestBossExp.obj
 0001:000d8e50       ??1?$LOOPARRAY@VTAG_WESTBOSSEXPLOSION@@$03@@QAE@XZ 004d9290 f i WestBossExp.obj
 0001:000d8e70       ?fireballUpdateCallback@TAG_WESTBOSSEXPBRANCH@@SAXQAVTAG_FIREBALL@@J@Z 004d92b0 f   WestBossExp.obj
 0001:000d91f0       ?init@TAG_WESTBOSSEXPLOSION@@QAEPAV1@HHH@Z 004d9630 f   WestBossExp.obj
 0001:000d95e0       ?WestBossExp_init@@YAXXZ   004d9a20 f   WestBossExp.obj
 0001:000d9620       ?WestBossExp_update@@YAXXZ 004d9a60 f   WestBossExp.obj
 0001:000d9750       ??0?$LOOPARRAY@VTAG_WESTBOSSEXPLOSION@@$03@@QAE@QBD@Z 004d9b90 f i WestBossExp.obj
 0001:000d97a0       ?getNew@?$LOOPARRAY@VTAG_WESTBOSSEXPLOSION@@$03@@QAEPAVTAG_WESTBOSSEXPLOSION@@I@Z 004d9be0 f i WestBossExp.obj
 0001:000d9850       ?start@TAG_WESTBOSSEXPBRANCH@@QAEXXZ 004d9c90 f   WestBossExp.obj
 0001:000d9900       ?start@TAG_WESTBOSSEXPLOSION@@QAEXXZ 004d9d40 f   WestBossExp.obj
 0001:000d9960       ?WestBossExp_create@@YAPAVTAG_WESTBOSSEXPLOSION@@HHH@Z 004d9da0 f   WestBossExp.obj
 0001:000d9990       ?FindRandomlySignedAngle@@YAMMM@Z 004d9dd0 f i ZooBoss.obj
 0001:000d99e0       ?contain@TAG_RECTANGLE@@QBEAAY03MAAY03MMHH@Z 004d9e20 f i ZooBoss.obj
 0001:000d9a60       ?removeMargin@TAG_RECTANGLE@@QBE?AU1@M@Z 004d9ea0 f i ZooBoss.obj
 0001:000d9a90       ??1TAG_ZBBAT@@QAE@XZ       004d9ed0 f i ZooBoss.obj
 0001:000d9ae0       ?init@TAG_ZBSAM@@QAEXXZ    004d9f20 f   ZooBoss.obj
 0001:000d9b50       ?win@TAG_ZBSAM@@QAEXXZ     004d9f90 f   ZooBoss.obj
 0001:000d9bd0       ?lose@TAG_ZBSAM@@QAEXXZ    004da010 f   ZooBoss.obj
 0001:000d9c50       ?cameraLookAtBat@TAG_ZOOBOSSGAME@@AAEXH@Z 004da090 f   ZooBoss.obj
 0001:000d9e20       ?setCamera@TAG_ZOOBOSSGAME@@AAEXW4EZooBossCamera@@@Z 004da260 f   ZooBoss.obj
 0001:000da220       ?shutdown@TAG_ZOOBOSSGAME@@UAEXXZ 004da660 f   ZooBoss.obj
 0001:000da310       ?groundPoundCameraShake@TAG_ZOOBOSSGAME@@AAEXQAMMM@Z 004da750 f   ZooBoss.obj
 0001:000da4e0       ?fadeDownCallback@TAG_ZOOBOSSGAME@@SAXXZ 004da920 f   ZooBoss.obj
 0001:000da530       ?resetCallback@TAG_ZOOBOSSGAME@@SAHPAXW4EBossGameResetChoice@@@Z 004da970 f   ZooBoss.obj
 0001:000da580       ?ruleBookOpenFunc@TAG_ZOOBOSSGAME@@SAXQAUTAG_PAGE@@H@Z 004da9c0 f   ZooBoss.obj
 0001:000da5b0       ?sulk@TAG_ZBBAT@@QAEXAAU1@@Z 004da9f0 f   ZooBoss.obj
 0001:000da690       ?increaseScore@TAG_ZBBAT@@QAEXXZ 004daad0 f   ZooBoss.obj
 0001:000da6d0       ?celebrate@TAG_ZBBAT@@QAEXAAU1@@Z 004dab10 f   ZooBoss.obj
 0001:000da7c0       ?draw@TAG_ZBBAT@@QAEXXZ    004dac00 f   ZooBoss.obj
 0001:000da970       ?setXZVelocity@TAG_ZBBAT@@QAEXMM@Z 004dadb0 f   ZooBoss.obj
 0001:000da9b0       ?scare@TAG_ZBBAT@@QAEXXZ   004dadf0 f   ZooBoss.obj
 0001:000daab0       ?humanUpdate@TAG_ZBBAT@@QAEXXZ 004daef0 f   ZooBoss.obj
 0001:000daca0       ?getHit@TAG_ZBBAT@@QAEXABUTAG_ZBBALL@@@Z 004db0e0 f   ZooBoss.obj
 0001:000dade0       ?getKnocked@TAG_ZBBAT@@QAEXQBUTAG_ZBBALL@@@Z 004db220 f   ZooBoss.obj
 0001:000dae90       ?init@TAG_ZBBALL@@QAEXQAMMABUTAG_RECTANGLE@@W4ZBballType@@@Z 004db2d0 f   ZooBoss.obj
 0001:000db1d0       ?beDeflected@TAG_ZBBALL@@QAEXABUTAG_ZBBAT@@@Z 004db610 f   ZooBoss.obj
 0001:000db4a0       ?innerCollide@TAG_ZBBALL@@QBE_NABUTAG_ZBBAT@@@Z 004db8e0 f   ZooBoss.obj
 0001:000db510       ?outerCollide@TAG_ZBBALL@@QBE_NABUTAG_ZBBAT@@@Z 004db950 f   ZooBoss.obj
 0001:000db580       ?hear@TAG_ZBBALL@@QAE_NABUTAG_ZBBAT@@@Z 004db9c0 f   ZooBoss.obj
 0001:000db610       ?applyNormalMovement@TAG_ZBBALL@@QAEXM@Z 004dba50 f   ZooBoss.obj
 0001:000db690       ?footstep@TAG_ZBBALL@@QAEXQBUTAG_ACTORINSTANCE@@H_N@Z 004dbad0 f   ZooBoss.obj
 0001:000db8d0       ?ZooBoss_createCutsceneSpinDust@@YA_NABUTAG_VEC@@@Z 004dbd10 f   ZooBoss.obj
 0001:000db910       ?prepareForPause@TAG_ZOOBOSSGAME@@QAEXXZ 004dbd50 f   ZooBoss.obj
 0001:000db950       ??1TAG_ZOOBOSSGAME@@QAE@XZ 004dbd90 f i ZooBoss.obj
 0001:000db9d0       ?draw2@TAG_ZOOBOSSGAME@@UAEXXZ 004dbe10 f   ZooBoss.obj
 0001:000dbcd0       ?initScoreBook@TAG_ZOOBOSSGAME@@EAEXXZ 004dc110 f   ZooBoss.obj
 0001:000dbfa0       ?initPreCutscene@TAG_ZOOBOSSGAME@@UAEXXZ 004dc3e0 f   ZooBoss.obj
 0001:000dc090       ?spitCollide@TAG_ZOOBOSSGAME@@SAHPAUTAG_ACTORINSTANCE@@0@Z 004dc4d0 f   ZooBoss.obj
 0001:000dc110       ?init@TAG_ZBBAT@@QAEXMABUTAG_RECTANGLE@@QAMW4ZBBatType@@QAUTAG_TEXTBOX@@QAUTAG_PLAYER@@@Z 004dc550 f   ZooBoss.obj
 0001:000dc690       ?AIupdate@TAG_ZBBAT@@QAEXAAUTAG_ZBBALL@@@Z 004dcad0 f   ZooBoss.obj
 0001:000dd0a0       ?update@TAG_ZBBAT@@QAEXXZ  004dd4e0 f   ZooBoss.obj
 0001:000ddd40       ?update@TAG_ZBBALL@@QAEXXZ 004de180 f   ZooBoss.obj
 0001:000dea20       ?respondToMessage@TAG_ZBBALL@@QAE_NQBUTAG_ACTORINSTANCE@@QBD@Z 004dee60 f   ZooBoss.obj
 0001:000deb60       ??0TAG_ZBBAT@@QAE@XZ       004defa0 f i ZooBoss.obj
 0001:000debf0       ??0TAG_ZBBALL@@QAE@XZ      004df030 f i ZooBoss.obj
 0001:000dec60       ?setState@TAG_ZOOBOSSGAME@@UAEXH@Z 004df0a0 f   ZooBoss.obj
 0001:000dee90       ?init@TAG_ZOOBOSSGAME@@QAEXABUTAG_RECTANGLE@@@Z 004df2d0 f   ZooBoss.obj
 0001:000df1e0       ?setState@TAG_ZBBAT@@QAEXW4ZBBatState@@@Z 004df620 f   ZooBoss.obj
 0001:000df420       ??0TAG_ZOOBOSSGAME@@QAE@XZ 004df860 f i ZooBoss.obj
 0001:000df4f0       ?initMessageBook@TAG_ZOOBOSSGAME@@EAEXXZ 004df930 f   ZooBoss.obj
 0001:000df880       ?updateCamera@TAG_ZOOBOSSGAME@@QAEXXZ 004dfcc0 f   ZooBoss.obj
 0001:000dfc40       ?update@TAG_ZOOBOSSGAME@@UAEXXZ 004e0080 f   ZooBoss.obj
 0001:000dffa0       ?ZooBoss_introIDpauseUpdateFunc@@YAXH@Z 004e03e0 f   ZooBoss.obj
 0001:000dffb0       ?setState@TAG_ZBBALL@@QAEXW4ZBballState@@@Z 004e03f0 f   ZooBoss.obj
 0001:000e05f0       ?quake@TAG_ZBBALL@@QAEXXZ  004e0a30 f   ZooBoss.obj
 0001:000e0650       ?testWallCollisions@TAG_ZBBALL@@QAEXXZ 004e0a90 f   ZooBoss.obj
 0001:000e0860       ?win@TAG_ZOOBOSSGAME@@UAEXH@Z 004e0ca0 f   ZooBoss.obj
 0001:000e0950       ?lose@TAG_ZOOBOSSGAME@@UAEXH@Z 004e0d90 f   ZooBoss.obj
 0001:000e0a40       ?respondToMessage@TAG_ZBBAT@@QAE_NQBD@Z 004e0e80 f   ZooBoss.obj
 0001:000e0b40       ?respondToMessage@TAG_ZOOBOSSGAME@@QAE_NQBUTAG_ACTORINSTANCE@@QBD@Z 004e0f80 f   ZooBoss.obj
 0001:000e0c10       ?win@TAG_BOSSGAME@@UAEXH@Z 004e1050 f   Boss.obj
 0001:000e0c30       ?lose@TAG_BOSSGAME@@UAEXH@Z 004e1070 f   Boss.obj
 0001:000e0c50       ?initPreCutscene@TAG_BOSSGAME@@UAEXXZ 004e1090 f   Boss.obj
 0001:000e0c90       ?shutdown@TAG_BOSSGAME@@UAEXXZ 004e10d0 f   Boss.obj
 0001:000e0cd0       ?draw2@TAG_BOSSGAME@@UAEXXZ 004e1110 f   Boss.obj
 0001:000e0d60       ?update@TAG_BOSSGAME@@UAEXXZ 004e11a0 f   Boss.obj
 0001:000e0d80       ?setupActorInstance@TAG_BOSSGAME@@SAPAUTAG_ACTORINSTANCE@@QAU2@H@Z 004e11c0 f   Boss.obj
 0001:000e0df0       ?createActorInstance@TAG_BOSSGAME@@SAPAUTAG_ACTORINSTANCE@@QADQAMMHQAUTAG_ACTORINSTANCELIST@@@Z 004e1230 f   Boss.obj
 0001:000e0ec0       ?handle2PlayerOutroState@TAG_BOSSGAME@@QAEXXZ 004e1300 f   Boss.obj
 0001:000e0fc0       ?init@TAG_ACTORINSTANCEUSER@@QAEXQADQAMMHPAUTAG_ACTORINSTANCELIST@@@Z 004e1400 f   Boss.obj
 0001:000e0ff0       ?init@TAG_ACTORINSTANCEUSER@@QAEXQADHPAUTAG_ACTORINSTANCELIST@@@Z 004e1430 f   Boss.obj
 0001:000e1020       ?playAnim@TAG_ACTORINSTANCEUSER@@QAEXQAU_TBActorAnimSegment@@_NM@Z 004e1460 f   Boss.obj
 0001:000e1070       ?playAnim@TAG_ACTORINSTANCEUSER@@QAEXQAD_NM@Z 004e14b0 f   Boss.obj
 0001:000e10d0       ?queueAnim@TAG_ACTORINSTANCEUSER@@QAEXQAU_TBActorAnimSegment@@_NM@Z 004e1510 f   Boss.obj
 0001:000e1110       ?getSound@TAG_ACTORINSTANCEUSER@@QAEPAUAIUSOUND@@QBD@Z 004e1550 f   Boss.obj
 0001:000e1180       ?sampleFinishCallback@TAG_ACTORINSTANCEUSER@@SAXPAX@Z 004e15c0 f   Boss.obj
 0001:000e11a0       ?discardOldest@?$LOOPARRAY@UAIUSOUND@@$04@@QAEXI@Z 004e15e0 f i Boss.obj
 0001:000e1200       ?start@AIUSOUND@@QAE_NXZ   004e1640 f   Boss.obj
 0001:000e1250       ?init@TAG_ACTORINSTANCEUSER@@QAEXXZ 004e1690 f   Boss.obj
 0001:000e12a0       ?queueAnim@TAG_ACTORINSTANCEUSER@@QAEXQAD_NM@Z 004e16e0 f   Boss.obj
 0001:000e1300       ?stopSound@TAG_ACTORINSTANCEUSER@@QAEXQBD@Z 004e1740 f   Boss.obj
 0001:000e13a0       ?getNew@?$LOOPARRAY@UAIUSOUND@@$04@@QAEPAUAIUSOUND@@I@Z 004e17e0 f i Boss.obj
 0001:000e1440       ?updateSounds@TAG_ACTORINSTANCEUSER@@QAEXXZ 004e1880 f   Boss.obj
 0001:000e1570       ?update@TAG_ACTORINSTANCEUSER@@QAEXXZ 004e19b0 f   Boss.obj
 0001:000e15b0       ?playSound@TAG_ACTORINSTANCEUSER@@QAEXQADHEQ6AXQBUAIUSOUND@@@Z@Z 004e19f0 f   Boss.obj
 0001:000e1650       ?flushSound@TAG_ACTORINSTANCEUSER@@QAEXXZ 004e1a90 f   Boss.obj
 0001:000e1700       ?shutdown@TAG_ACTORINSTANCEUSER@@QAEXXZ 004e1b40 f   Boss.obj
 0001:000e1730       ?LoadBossGameContinue@@YAHXZ 004e1b70 f   bossgamecontinue.obj
 0001:000e17f0       ?InitialiseBossGameContinue@@YAXXZ 004e1c30 f   bossgamecontinue.obj
 0001:000e1800       ?FreeBossGameContinue@@YAXXZ 004e1c40 f   bossgamecontinue.obj
 0001:000e1830       ?OpenContinueBookCallback@@YAXPAVTAG_FADE@@@Z 004e1c70 f   bossgamecontinue.obj
 0001:000e18c0       ?MadeContinueChoiceCallback@@YAXPAVTAG_FADE@@@Z 004e1d00 f   bossgamecontinue.obj
 0001:000e1aa0       ?MainBossContinuePrep@@YAXXZ 004e1ee0 f   bossgamecontinue.obj
 0001:000e1b00       ?MainBossContinueDraw@@YAXXZ 004e1f40 f   bossgamecontinue.obj
 0001:000e1ba0       ?UpdateBossGameContinue@@YAXXZ 004e1fe0 f   bossgamecontinue.obj
 0001:000e1f70       ?FinishedFadeFromDeathInBoss@@YAXPAVTAG_FADE@@@Z 004e23b0 f   bossgamecontinue.obj
 0001:000e20e0       ?MainBossContinueUpdate@@YAXXZ 004e2520 f   bossgamecontinue.obj
 0001:000e2160       ?ProcessTazDeathAtEndOfBossGame@@YAXP6AHPAXW4EBossGameResetChoice@@@Z0QAMP6AXXZ@Z 004e25a0 f   bossgamecontinue.obj
 0001:000e2680       ?MainBossContinue@@YAXXZ   004e2ac0 f   bossgamecontinue.obj
 0001:000e27f0       ?cityBossForceEnd@TAG_CITYBOSSGAME@@QAEX_N@Z 004e2c30 f   CityBoss.obj
 0001:000e2860       ?CreateSpriteFountain@@YAXQAMPAHM@Z 004e2ca0 f   CityBoss.obj
 0001:000e2980       ?cityBossTouchedPad@@YAXH@Z 004e2dc0 f   CityBoss.obj
 0001:000e2ee0       ?fadeDownCallback@TAG_CITYBOSSGAME@@SAXXZ 004e3320 f   CityBoss.obj
 0001:000e2ef0       ?draw2@TAG_CITYBOSSGAME@@UAEXXZ 004e3330 f   CityBoss.obj
 0001:000e3100       ?DoDaffyAI@TAG_CITYBOSSGAME@@QAEXXZ 004e3540 f   CityBoss.obj
 0001:000e3230       ?ResetCityBossCallback@@YAHPAXW4EBossGameResetChoice@@@Z 004e3670 f   CityBoss.obj
 0001:000e3270       ??0TAG_CITYBOSSGAME@@QAE@XZ 004e36b0 f i CityBoss.obj
 0001:000e3290       ??1TAG_CITYBOSSGAME@@QAE@XZ 004e36d0 f i CityBoss.obj
 0001:000e32a0       ?init@TAG_CITYBOSSGAME@@UAEXXZ 004e36e0 f   CityBoss.obj
 0001:000e4000       ?update@TAG_CITYBOSSGAME@@UAEXXZ 004e4440 f   CityBoss.obj
 0001:000e4f60       ?shutdown@TAG_CITYBOSSGAME@@UAEXXZ 004e53a0 f   CityBoss.obj
 0001:000e4ff0       ?XZdist@TAG_ACTORINSTANCEUSER@@QBEMQBM@Z 004e5430 f i tazboss1.obj
 0001:000e5040       ?init@TAG_TBFUSE_PATH@@QAEXHHH@Z 004e5480 f   tazboss1.obj
 0001:000e52c0       ?addExplosion@TAG_TBFUSE_PATH@@QAEXXZ 004e5700 f   tazboss1.obj
 0001:000e53e0       ?fireballCallback@TAG_TBFUSE_PATH@@SAXQAVTAG_FIREBALL@@J@Z 004e5820 f   tazboss1.obj
 0001:000e5430       ?draw@TAG_TBFUSE_PATH@@QAEXXZ 004e5870 f   tazboss1.obj
 0001:000e5cf0       ?init@TAG_TBPLUNGER@@QAEXHQAM00M@Z 004e6130 f   tazboss1.obj
 0001:000e5dc0       ?draw@TAG_TBPLUNGER@@QAEXXZ 004e6200 f   tazboss1.obj
 0001:000e5df0       ?triggerExplosivePattern@TAG_TBPLUNGER@@QAEXW4TBExplosionPattern@@@Z 004e6230 f   tazboss1.obj
 0001:000e6090       ?isActive@TAG_TBPLUNGER@@QAEHXZ 004e64d0 f   tazboss1.obj
 0001:000e60f0       ?init@TAG_TBTAZ@@QAEXXZ    004e6530 f   tazboss1.obj
 0001:000e6150       ?stopChilliBreath@TAG_TBTAZ@@QAEXXZ 004e6590 f   tazboss1.obj
 0001:000e6170       ?draw@TAG_TAZBOSS1GAME@@UAEXXZ 004e65b0 f   tazboss1.obj
 0001:000e61a0       ?draw2@TAG_TAZBOSS1GAME@@UAEXXZ 004e65e0 f   tazboss1.obj
 0001:000e61b0       ?updateCamera@TAG_TAZBOSS1GAME@@QAEXXZ 004e65f0 f   tazboss1.obj
 0001:000e63c0       ?readyForChilliRespawn@TAG_TAZBOSS1GAME@@QAEHXZ 004e6800 f   tazboss1.obj
 0001:000e63e0       ?respondToEvent@TAG_TAZBOSS1GAME@@QAEXW4TBEventType@@@Z 004e6820 f   tazboss1.obj
 0001:000e63f0       ?getArenaArea@TAG_TAZBOSS1GAME@@QAE?AW4TBArenaArea@@PAUTAG_ACTORINSTANCEUSER@@_N@Z 004e6830 f   tazboss1.obj
 0001:000e6530       ?CreateScoreBook@TAG_TAZBOSS1GAME@@QAEXXZ 004e6970 f   tazboss1.obj
 0001:000e6860       ?DeleteScoreBook@TAG_TAZBOSS1GAME@@QAEXXZ 004e6ca0 f   tazboss1.obj
 0001:000e6890       ??1TAG_TBFUSE_PATH@@QAE@XZ 004e6cd0 f i tazboss1.obj
 0001:000e6890       ??1TAG_WBTNTCRATE@@QAE@XZ  004e6cd0 f i WestBoss.obj
 0001:000e6890       ??1TAG_WBTAZ@@QAE@XZ       004e6cd0 f i WestBoss.obj
 0001:000e6890       ??1TAG_TBTAZ@@QAE@XZ       004e6cd0 f i tazboss1.obj
 0001:000e6890       ??1TAG_WBSKATEBOMB@@QAE@XZ 004e6cd0 f i WestBoss.obj
 0001:000e6890       ??1TAG_WBDYNAMITE@@QAE@XZ  004e6cd0 f i WestBoss.obj
 0001:000e6890       ??1TAG_TBSAM@@QAE@XZ       004e6cd0 f i tazboss1.obj
 0001:000e6890       ??1TAG_ZBBALL@@QAE@XZ      004e6cd0 f i ZooBoss.obj
 0001:000e6890       ??1TAG_WBSAM@@QAE@XZ       004e6cd0 f i WestBoss.obj
 0001:000e6890       ??1TAG_ACTORINSTANCEUSER@@QAE@XZ 004e6cd0 f i WestBoss.obj
 0001:000e68a0       ?addFireball@TAG_TBFUSE_PATH@@QAEXMMMMM@Z 004e6ce0 f   tazboss1.obj
 0001:000e6990       ?update@TAG_TBFUSE_PATH@@QAEXXZ 004e6dd0 f   tazboss1.obj
 0001:000e6ba0       ?update@TAG_TBPLUNGER@@QAEXXZ 004e6fe0 f   tazboss1.obj
 0001:000e6be0       ?setSuspendedState@TAG_TBTAZ@@QAEXD@Z 004e7020 f   tazboss1.obj
 0001:000e6d80       ?shutdown@TAG_TAZBOSS1GAME@@UAEXXZ 004e71c0 f   tazboss1.obj
 0001:000e6e00       ?setCamType@TAG_TAZBOSS1GAME@@QAEXW4TBCamType@@QAM1@Z 004e7240 f   tazboss1.obj
 0001:000e7000       ??1TAG_TBPLUNGER@@QAE@XZ   004e7440 f i tazboss1.obj
 0001:000e7120       ?setSubState@TAG_TBSAM@@QAEXW4TBSamSubState@@D@Z 004e7560 f   tazboss1.obj
 0001:000e7ad0       ??1TAG_TAZBOSS1GAME@@QAE@XZ 004e7f10 f i tazboss1.obj
 0001:000e7b50       ??0TAG_WBDYNAMITE@@QAE@XZ  004e7f90 f i WestBoss.obj
 0001:000e7b50       ??0TAG_WBSKATEBOMB@@QAE@XZ 004e7f90 f i WestBoss.obj
 0001:000e7b50       ??0TAG_TBFUSE_PATH@@QAE@XZ 004e7f90 f i tazboss1.obj
 0001:000e7b80       ?setState@TAG_TBSAM@@QAEXW4TBSamState@@W4TBSamSubState@@@Z 004e7fc0 f   tazboss1.obj
 0001:000e7c60       ?doChilliPepperFireCollision@TAG_TAZBOSS1GAME@@QAEXPAUTAG_CHILLIPEPPEREXTRAS@@@Z 004e80a0 f   tazboss1.obj
 0001:000e7cd0       ??0TAG_TBPLUNGER@@QAE@XZ   004e8110 f i tazboss1.obj
 0001:000e7d50       ?init@TAG_TBSAM@@QAEXXZ    004e8190 f   tazboss1.obj
 0001:000e7e30       ?update@TAG_TBSAM@@QAEXXZ  004e8270 f   tazboss1.obj
 0001:000e8ac0       ?init@TAG_TAZBOSS1GAME@@UAEXXZ 004e8f00 f   tazboss1.obj
 0001:000e8c60       ?update@TAG_TAZBOSS1GAME@@UAEXXZ 004e90a0 f   tazboss1.obj
 0001:000e8d20       ??0TAG_TAZBOSS1GAME@@QAE@XZ 004e9160 f i tazboss1.obj
 0001:000e8df0       ?FinishBubbleGum@@YAXPAUTAG_ACTORINSTANCE@@@Z 004e9230 f   bubblegum.obj
 0001:000e8e10       ?AttachGumBubbleToActor@@YAHPAUTAG_ACTORINSTANCE@@@Z 004e9250 f   bubblegum.obj
 0001:000e8e60       ?UpdateBubbleGumPowerUpForCharacter@@YAXPAUTAG_ACTORINSTANCE@@@Z 004e92a0 f   bubblegum.obj
 0001:000e8fe0       ?CreateCharacterChilliPepperSmoke@@YAXPAUTAG_ACTORINSTANCE@@@Z 004e9420 f   chillipepper.obj
 0001:000e9370       ?FinishChilliPepper@@YAXPAUTAG_ACTORINSTANCE@@@Z 004e97b0 f   chillipepper.obj
 0001:000e93f0       ?CreateChilliPepperFlameThrower@@YAXPAUTAG_ACTORINSTANCE@@@Z 004e9830 f   chillipepper.obj
 0001:000e9730       ?ChilliPepperExtraCreateCallback@@YAXPAU_TBExtraSystem@@PAEPAD@Z 004e9b70 f   chillipepper.obj
 0001:000e97d0       ?ChilliPepperExtraRenderCallback@@YAXPAU_TBExtraSystem@@HPAPAEPAX@Z 004e9c10 f   chillipepper.obj
 0001:000e98f0       ?UpdateChilliPepperFireCollision@@YAXPAUTAG_CHILLIPEPPEREXTRAS@@@Z 004e9d30 f   chillipepper.obj
 0001:000e9a90       ?UpdateChilliPepperTazCollision@@YAXPAUTAG_CHILLIPEPPEREXTRAS@@@Z 004e9ed0 f   chillipepper.obj
 0001:000e9b70       ?UpdateCharacterChilliPepperPowerUp@@YAXPAUTAG_ACTORINSTANCE@@@Z 004e9fb0 f   chillipepper.obj
 0001:000e9bb0       ?UpdateChilliPepperFire@@YAXPAU_TBExtraSystem@@HPAPAEM@Z 004e9ff0 f   chillipepper.obj
 0001:000e9e30       ?FinishHiccup@@YAXPAUTAG_ACTORINSTANCE@@@Z 004ea270 f   hiccup.obj
 0001:000e9e70       ?UpdateActorHiccup@@YAXPAUTAG_ACTORINSTANCE@@@Z 004ea2b0 f   hiccup.obj
 0001:000ea260       ?FinishInvisibility@@YAXPAUTAG_ACTORINSTANCE@@@Z 004ea6a0 f   invisibletaz.obj
 0001:000ea2b0       ?UpdateCharacterInvisiblity@@YAXPAUTAG_ACTORINSTANCE@@@Z 004ea6f0 f   invisibletaz.obj
 0001:000ea400       ??0TAG_SUPERBURP@@QAE@PAUTAG_PLAYER@@@Z 004ea840 f   superburp.obj
 0001:000ea450       ?SmashStuff@@YAXQBUTAG_ACTORINSTANCELIST@@PAUTAG_ACTORINSTANCE@@MHQAMH@Z 004ea890 f   superburp.obj
 0001:000ea590       ?SuperBurp@@YAXPAUTAG_PLAYER@@@Z 004ea9d0 f   superburp.obj
 0001:000ea610       ?Update@TAG_SUPERBURP@@QAEHXZ 004eaa50 f   superburp.obj
 0001:000ea700       ?FinishBurp@@YAXPAUTAG_ACTORINSTANCE@@@Z 004eab40 f   superburp.obj
 0001:000ea790       ?CreateSuperBurpBlastRadius@@YAHPAUTAG_ACTORINSTANCE@@@Z 004eabd0 f   superburpeffect.obj
 0001:000ea8d0       ?PrepSuperBurpBlastRadius@@YAHPAUTAG_ACTORINSTANCE@@@Z 004ead10 f   superburpeffect.obj
 0001:000ea950       ?UpdateSuperBurpBlastRadius@@YAXPAUTAG_ACTORINSTANCE@@@Z 004ead90 f   superburpeffect.obj
 0001:000ea9d0       ?DrawSuperBurpBlastRadius@@YAXPAUTAG_ACTORINSTANCE@@@Z 004eae10 f   superburpeffect.obj
 0001:000eaa80       ?CreateBubbles@@YAXPAUTAG_ACTORINSTANCE@@MMW4EBubbleColour@@@Z 004eaec0 f   superburpeffect.obj
 0001:000eacf0       ?UpdateBubbles@@YAHPAUTAG_BUBBLESEXTRA@@@Z 004eb130 f   superburpeffect.obj
 0001:000eadb0       ?CreateAudioOptionsMenuPage@@YAXPAUTAG_FRONTENDMENU@@@Z 004eb1f0 f   audiomenu.obj
 0001:000eb1a0       ?UpdateAudioOptionsMenuPage@@YAXPAUTAG_FRONTENDMENU@@PAUTAG_PADCONTROLSTATUS@@@Z 004eb5e0 f   audiomenu.obj
 0001:000eb580       ?UpdateExtrasMenuPage@@YAXPAUTAG_FRONTENDMENU@@PAUTAG_PADCONTROLSTATUS@@@Z 004eb9c0 f   extrasmenu.obj
 0001:000eb7b0       ?CreateExtrasMenuPage@@YAXPAUTAG_FRONTENDMENU@@@Z 004ebbf0 f   extrasmenu.obj
 0001:000ebbe0       ?mainMenuActionFunc@@YAXAAUMENUACTION_INFO@@@Z 004ec020 f   frontendmenu.obj
 0001:000ebc80       ?FreeFrontEndMenuBook@@YAXXZ 004ec0c0 f   frontendmenu.obj
 0001:000ebdf0       ?UpdateMainMenuPage@@YAXPAUTAG_FRONTENDMENU@@PAUTAG_PADCONTROLSTATUS@@@Z 004ec230 f   frontendmenu.obj
 0001:000ec290       ?CreateMainMenuPage@@YAXPAUTAG_FRONTENDMENU@@@Z 004ec6d0 f   frontendmenu.obj
 0001:000ecb10       ?UpdateFrontEndMenuBook@@YAXXZ 004ecf50 f   frontendmenu.obj
 0001:000ecc20       ?CreateFrontEndMenuBook@@YAXXZ 004ed060 f   frontendmenu.obj
 0001:000ecdc0       ?AddGalleryIcon@@YA_NPAUTAG_GALLERYPAGE@@H_N111@Z 004ed200 f   gallerymenu.obj
 0001:000ecf00       ?UpdateGalleryMenuPage@@YAXPAUTAG_FRONTENDMENU@@PAUTAG_PADCONTROLSTATUS@@@Z 004ed340 f   gallerymenu.obj
 0001:000ed4b0       ?galleryBookCloseCallback@@YAXQAUTAG_PAPERBOOK@@@Z 004ed8f0 f   gallerymenu.obj
 0001:000ed530       ?galleryFirstPageCallback@@YAXXZ 004ed970 f   gallerymenu.obj
 0001:000ed540       ?galleryCentralPageCallback@@YAXXZ 004ed980 f   gallerymenu.obj
 0001:000ed560       ?galleryLastPageCallback@@YAXXZ 004ed9a0 f   gallerymenu.obj
 0001:000ed570       ?AddGalleryChapter@@YAXPAUTAG_GALLERYPAGE@@PADH@Z 004ed9b0 f   gallerymenu.obj
 0001:000ed730       ?CreateGalleryMenuPage@@YAXPAUTAG_FRONTENDMENU@@@Z 004edb70 f   gallerymenu.obj
 0001:000ee690       ?FrontEndRumbleCallback@@YAXW4EBQueueCallbackReason@@PAU_TBActorInstance@@PAU_TBActorNodeInstance@@PAU_TBActorAnimSegment@@PAX@Z 004eead0 f   optionsmenu.obj
 0001:000ee700       ?optionsMenuActionFunc@@YAXAAUMENUACTION_INFO@@@Z 004eeb40 f   optionsmenu.obj
 0001:000ee870       ?CreateGameOptionsMenuPage@@YAXPAUTAG_FRONTENDMENU@@@Z 004eecb0 f   optionsmenu.obj
 0001:000ef090       ?UpdateGameOptionsMenuPage@@YAXPAUTAG_FRONTENDMENU@@PAUTAG_PADCONTROLSTATUS@@@Z 004ef4d0 f   optionsmenu.obj
 0001:000ef990       ?UpdateRecordsMenuPage@@YAXPAUTAG_FRONTENDMENU@@PAUTAG_PADCONTROLSTATUS@@@Z 004efdd0 f   recordsmenu.obj
 0001:000f05e0       ?compileOverallForLevel@@YAXW4EScene@@@Z 004f0a20 f   recordsmenu.obj
 0001:000f08d0       ?getHighestScorer@@YAIW4EScene@@@Z 004f0d10 f   recordsmenu.obj
 0001:000f0a60       ?AddLevelRecordsPage@@YAXPAUTAG_PAGE@@W4EScene@@HH@Z 004f0ea0 f   recordsmenu.obj
 0001:000f1210       ?compileOverallRecord@@YAHXZ 004f1650 f   recordsmenu.obj
 0001:000f1340       ?CreateRecordsMenuPage@@YAXPAUTAG_FRONTENDMENU@@@Z 004f1780 f   recordsmenu.obj
 0001:000f2c80       ?UpdateSecretsMenuPage@@YAXPAUTAG_FRONTENDMENU@@PAUTAG_PADCONTROLSTATUS@@@Z 004f30c0 f   secretsmenu.obj
 0001:000f30e0       ?CreateSecretsMenuPage@@YAXPAUTAG_FRONTENDMENU@@@Z 004f3520 f   secretsmenu.obj
 0001:000f36e0       ?clearGame@@YAXPAUTAG_STARTGAMEPAGE@@@Z 004f3b20 f   startgamemenu.obj
 0001:000f3750       ?openNameAndIconEntry@@YAXPAUTAG_STARTGAMEPAGE@@@Z 004f3b90 f   startgamemenu.obj
 0001:000f37d0       ?moveTazBetweenSlots@@YAXPAUTAG_STARTGAMEPAGE@@@Z 004f3c10 f   startgamemenu.obj
 0001:000f3e90       ?ChooseHubToStartIn@@YAXI@Z 004f42d0 f   startgamemenu.obj
 0001:000f3f20       ?PrintTimeAndDateIntoTextbox@@YAXPAUTAG_TEXTBOX@@PAU_TBClock@@@Z 004f4360 f   startgamemenu.obj
 0001:000f40b0       ?calculatePercentageComplete@@YAHH@Z 004f44f0 f   startgamemenu.obj
 0001:000f41c0       ?CreateStartGameMenuPage@@YAXPAUTAG_FRONTENDMENU@@@Z 004f4600 f   startgamemenu.obj
 0001:000f5b10       ?returnToSlotSelection@@YAXPAUTAG_STARTGAMEPAGE@@@Z 004f5f50 f   startgamemenu.obj
 0001:000f5c40       ?startNewGame@@YAXPAUTAG_STARTGAMEPAGE@@@Z 004f6080 f   startgamemenu.obj
 0001:000f5d50       ?loadGame@@YAXPAUTAG_STARTGAMEPAGE@@@Z 004f6190 f   startgamemenu.obj
 0001:000f5e60       ?handlePopups@@YAXPAUTAG_STARTGAMEPAGE@@@Z 004f62a0 f   startgamemenu.obj
 0001:000f5f00       ?UpdateStartGameMenuPage@@YAXPAUTAG_FRONTENDMENU@@PAUTAG_PADCONTROLSTATUS@@@Z 004f6340 f   startgamemenu.obj
 0001:000f67c0       ?GetTournamentGameName@@YA?AW4EStringIndex@@H@Z 004f6c00 f   twoplayermenu.obj
 0001:000f6830       ?GetTournamentGameIcon@@YAPADH@Z 004f6c70 f   twoplayermenu.obj
 0001:000f68a0       ?CreateTwoPlayerMenuPage@@YAXPAUTAG_FRONTENDMENU@@@Z 004f6ce0 f   twoplayermenu.obj
 0001:000f8830       ?UpdateTwoPlayerMenuPage@@YAXPAUTAG_FRONTENDMENU@@PAUTAG_PADCONTROLSTATUS@@@Z 004f8c70 f   twoplayermenu.obj
 0001:000f9780       ?BookList_closeAndFreeButDontNull@@YAXQAUTAG_BOOK@@@Z 004f9bc0 f   BookList.obj
 0001:000f97c0       ?BookList_closeAndShutdown@@YAXAAUTAG_BOOK@@@Z 004f9c00 f   BookList.obj
 0001:000f9800       ?BookList_getExclusiveBook@@YAPAUTAG_BOOK@@XZ 004f9c40 f   BookList.obj
 0001:000f9820       ?BookList_add@@YAXQAUTAG_BOOK@@@Z 004f9c60 f   BookList.obj
 0001:000f9830       ?BookList_remove@@YAXQAUTAG_BOOK@@@Z 004f9c70 f   BookList.obj
 0001:000f9880       ?BookList_update@@YAXXZ    004f9cc0 f   BookList.obj
 0001:000f98d0       ?BookList_closeAll@@YAX_N@Z 004f9d10 f   BookList.obj
 0001:000f9920       ?BookList_finishCloses@@YAXXZ 004f9d60 f   BookList.obj
 0001:000f9970       ?BookList_draw@@YAX_N@Z    004f9db0 f   BookList.obj
 0001:000f9a70       ?BookList_pushExclusiveBook@@YAXQAUTAG_BOOK@@@Z 004f9eb0 f   BookList.obj
 0001:000f9b80       ?BookList_popExclusiveBook@@YAXQAUTAG_BOOK@@@Z 004f9fc0 f   BookList.obj
 0001:000f9c50       ?init@TAG_CHECKBOX@@QAEXXZ 004fa090 f   CheckBox.obj
 0001:000f9c70       ?mainDraw@TAG_CHECKBOX@@MAEXXZ 004fa0b0 f   CheckBox.obj
 0001:000f9d40       ?getTextRect@TAG_CHECKBOX@@MBE?AUTAG_RECTANGLE@@XZ 004fa180 f   CheckBox.obj
 0001:000f9d70       ?chooseEffect@TAG_ICON@@EAEXW4PIEMode@@_N@Z 004fa1b0 f   Icon.obj
 0001:000f9de0       ?update@TAG_ICON@@UAEXXZ   004fa220 f   Icon.obj
 0001:000f9ed0       ?mainDraw@TAG_ICON@@MAEXXZ 004fa310 f   Icon.obj
 0001:000fa0a0       ?init@TAG_ICON@@QAEXPADQBD@Z 004fa4e0 f   Icon.obj
 0001:000fa180       ?setSelectable@TAG_ICON@@QAEPAU1@_N0@Z 004fa5c0 f   Icon.obj
 0001:000fa180       ?setSelectable@TAG_PAGEITEM@@QAEPAU1@_N0@Z 004fa5c0 f   TextFX.obj
 0001:000fa1e0       ??0PIE_FADE@@QAE@ABU0@@Z   004fa620 f i PageItemFX.obj
 0001:000fa220       ?supportsMode@PIE_FADE@@UAE_NW4PIEMode@@@Z 004fa660 f i PageItemFX.obj
 0001:000fa220       ?supportsMode@PIE_SPIN@@UAE_NW4PIEMode@@@Z 004fa660 f i PageItemFX.obj
 0001:000fa220       ?supportsMode@PIE_SLIDE@@UAE_NW4PIEMode@@@Z 004fa660 f i PageItemFX.obj
 0001:000fa220       ?supportsMode@PIE_SQUASHY@@UAE_NW4PIEMode@@@Z 004fa660 f i PageItemFX.obj
 0001:000fa240       ??0PIE_SLIDE@@QAE@ABU0@@Z  004fa680 f i PageItemFX.obj
 0001:000fa2b0       ??0PIE_SPIN@@QAE@ABU0@@Z   004fa6f0 f i PageItemFX.obj
 0001:000fa390       ??0PIE_SQUASHY@@QAE@ABU0@@Z 004fa7d0 f i PageItemFX.obj
 0001:000fa3e0       ??0TEXT_PIE@@QAE@ABU0@@Z   004fa820 f i PageItemFX.obj
 0001:000fa420       ?supportsMode@TEXT_PIE@@UAE_NW4PIEMode@@@Z 004fa860 f i PageItemFX.obj
 0001:000fa430       ?setMode@PAGEITEMEFFECT@@UAEPAU1@W4PIEMode@@@Z 004fa870 f   PageItemFX.obj
 0001:000fa440       ?start@PAGEITEMEFFECT@@UAEXXZ 004fa880 f   PageItemFX.obj
 0001:000fa450       ?setItem@PAGEITEMEFFECT@@UAEPAU1@QAUTAG_PAGEITEM@@@Z 004fa890 f   PageItemFX.obj
 0001:000fa460       ?init@PAGEITEMEFFECT@@UAEXXZ 004fa8a0 f   PageItemFX.obj
 0001:000fa470       ?start@PIE_FADE@@UAEXXZ    004fa8b0 f   PageItemFX.obj
 0001:000fa4a0       ?init@PIE_FADE@@UAEXXZ     004fa8e0 f   PageItemFX.obj
 0001:000fa4c0       ?update@PIE_FADE@@UAE_NXZ  004fa900 f   PageItemFX.obj
 0001:000fa580       ?start@PIE_SLIDE@@UAEXXZ   004fa9c0 f   PageItemFX.obj
 0001:000fa5d0       ?init@PIE_SLIDE@@UAEXXZ    004faa10 f   PageItemFX.obj
 0001:000fa600       ?update@PIE_SLIDE@@UAE_NXZ 004faa40 f   PageItemFX.obj
 0001:000fa6a0       ?draw@PIE_SLIDE@@UAEXXZ    004faae0 f   PageItemFX.obj
 0001:000fa740       ?start@PIE_ZOOM@@UAEXXZ    004fab80 f   PageItemFX.obj
 0001:000fa760       ?setSpeed@PIE_ZOOM@@QAEPAU1@M@Z 004faba0 f   PageItemFX.obj
 0001:000fa770       ?setAccel@PIE_ZOOM@@QAEPAU1@M@Z 004fabb0 f   PageItemFX.obj
 0001:000fa780       ?setOrigin@PIE_ZOOM@@QAEPAU1@M@Z 004fabc0 f   PageItemFX.obj
 0001:000fa790       ?setTarget@PIE_ZOOM@@QAEPAU1@M@Z 004fabd0 f   PageItemFX.obj
 0001:000fa7a0       ?init@PIE_ZOOM@@UAEXXZ     004fabe0 f   PageItemFX.obj
 0001:000fa7c0       ?update@PIE_ZOOM@@UAE_NXZ  004fac00 f   PageItemFX.obj
 0001:000fa870       ?draw@PIE_ZOOM@@UAEXXZ     004facb0 f   PageItemFX.obj
 0001:000fa910       ?start@PIE_FLASH@@UAEXXZ   004fad50 f   PageItemFX.obj
 0001:000fa920       ?init@PIE_FLASH@@UAEXXZ    004fad60 f   PageItemFX.obj
 0001:000fa930       ?update@PIE_FLASH@@UAE_NXZ 004fad70 f   PageItemFX.obj
 0001:000fa9c0       ?shutdown@PIE_FLASH@@UAEXXZ 004fae00 f   PageItemFX.obj
 0001:000fa9c0       ?shutdown@PIE_FADE@@UAEXXZ 004fae00 f   PageItemFX.obj
 0001:000fa9e0       ?start@PIE_SPIN@@UAEXXZ    004fae20 f   PageItemFX.obj
 0001:000faac0       ?update@PIE_SPIN@@UAE_NXZ  004faf00 f   PageItemFX.obj
 0001:000fab90       ?draw@PIE_SPIN@@UAEXXZ     004fafd0 f   PageItemFX.obj
 0001:000fad70       ?setTurns@PIE_SPIN@@QAEPAU1@MMM@Z 004fb1b0 f   PageItemFX.obj
 0001:000fadd0       ?update@PIE_ICONSHATTER@@UAE_NXZ 004fb210 f   PageItemFX.obj
 0001:000fb850       ?draw@PIE_ICONSHATTER@@UAEXXZ 004fbc90 f   PageItemFX.obj
 0001:000fba10       ?shutdown@PIE_ICONSHATTER@@UAEXXZ 004fbe50 f   PageItemFX.obj
 0001:000fba30       ?start@PIE_SQUASHY@@UAEXXZ 004fbe70 f   PageItemFX.obj
 0001:000fba90       ?init@PIE_SQUASHY@@UAEXXZ  004fbed0 f   PageItemFX.obj
 0001:000fbac0       ?update@PIE_SQUASHY@@UAE_NXZ 004fbf00 f   PageItemFX.obj
 0001:000fbc80       ?draw@PIE_SQUASHY@@UAEXXZ  004fc0c0 f   PageItemFX.obj
 0001:000fbdf0       ?setItem@TEXT_PIE@@UAEPAUPAGEITEMEFFECT@@QAUTAG_PAGEITEM@@@Z 004fc230 f   PageItemFX.obj
 0001:000fbe60       ?processCharacter@TEXT_PIE@@UAEXQAU_TBPrimVertex@@H@Z 004fc2a0 f   PageItemFX.obj
 0001:000fc020       ?shutdown@TEXT_PIE@@UAEXXZ 004fc460 f   PageItemFX.obj
 0001:000fc050       ?setItem@PIE_TEXTLIFE@@UAEPAUPAGEITEMEFFECT@@QAUTAG_PAGEITEM@@@Z 004fc490 f   PageItemFX.obj
 0001:000fc100       ?update@PIE_TEXTLIFE@@UAE_NXZ 004fc540 f   PageItemFX.obj
 0001:000fc260       ?setItem@PIE_TEXTEXPLODE@@UAEPAUPAGEITEMEFFECT@@QAUTAG_PAGEITEM@@@Z 004fc6a0 f   PageItemFX.obj
 0001:000fc360       ?update@PIE_TEXTEXPLODE@@UAE_NXZ 004fc7a0 f   PageItemFX.obj
 0001:000fc4c0       ?shutdown@PIE_TEXTEXPLODE@@UAEXXZ 004fc900 f   PageItemFX.obj
 0001:000fc4c0       ?shutdown@PIE_TEXTLIFE@@UAEXXZ 004fc900 f   PageItemFX.obj
 0001:000fc4f0       ?pageEffect@WANTEDPIECHOOSER@@UBEXQAUTAG_PAGE@@W4PIEMode@@@Z 004fc930 f   PageItemFX.obj
 0001:000fc4f0       ?itemEffect@PIECHOOSER@@UBEXQAUTAG_PAGEITEM@@W4PIEMode@@@Z 004fc930 f   PageItemFX.obj
 0001:000fc500       ?bookEffect@PIECHOOSER@@UBEXQAUTAG_BOOK@@W4PIEMode@@@Z 004fc940 f   PageItemFX.obj
 0001:000fc500       ?textboxEffect@PIECHOOSER@@UBEXQAUTAG_TEXTBOX@@W4PIEMode@@@Z 004fc940 f   PageItemFX.obj
 0001:000fc500       ?iconEffect@PIECHOOSER@@UBEXQAUTAG_ICON@@W4PIEMode@@@Z 004fc940 f   PageItemFX.obj
 0001:000fc500       ?pageEffect@PIECHOOSER@@UBEXQAUTAG_PAGE@@W4PIEMode@@@Z 004fc940 f   PageItemFX.obj
 0001:000fc510       ?bookEffect@WANTEDPIECHOOSER@@UBEXQAUTAG_BOOK@@W4PIEMode@@@Z 004fc950 f   PageItemFX.obj
 0001:000fc530       ?copy@PIE_FADE@@UBEPAUPAGEITEMEFFECT@@XZ 004fc970 f i PageItemFX.obj
 0001:000fc560       ??0PIE_FADE@@QAE@XZ        004fc9a0 f i PageItemFX.obj
 0001:000fc580       ??1PIE_FADE@@UAE@XZ        004fc9c0 f i PageItemFX.obj
 0001:000fc5b0       ??_EPIE_FADE@@UAEPAXI@Z    004fc9f0 f i PageItemFX.obj
 0001:000fc5b0       ??_GPIE_FADE@@UAEPAXI@Z    004fc9f0 f i PageItemFX.obj
 0001:000fc5d0       ?copy@PIE_SLIDE@@UBEPAUPAGEITEMEFFECT@@XZ 004fca10 f i PageItemFX.obj
 0001:000fc600       ??0PIE_SLIDE@@QAE@XZ       004fca40 f i PageItemFX.obj
 0001:000fc630       ??0PIE_FLASH@@QAE@XZ       004fca70 f i PageItemFX.obj
 0001:000fc650       ?copy@PIE_SPIN@@UBEPAUPAGEITEMEFFECT@@XZ 004fca90 f i PageItemFX.obj
 0001:000fc680       ??1PIE_ICONSHATTER@@UAE@XZ 004fcac0 f i PageItemFX.obj
 0001:000fc6e0       ?supportsMode@PIE_TEXTEXPLODE@@UAE_NW4PIEMode@@@Z 004fcb20 f i PageItemFX.obj
 0001:000fc6e0       ?supportsMode@PIE_ICONSHATTER@@UAE_NW4PIEMode@@@Z 004fcb20 f i PageItemFX.obj
 0001:000fc700       ?copy@PIE_ICONSHATTER@@UBEPAUPAGEITEMEFFECT@@XZ 004fcb40 f i PageItemFX.obj
 0001:000fc730       ??0PIE_ICONSHATTER@@QAE@ABU0@@Z 004fcb70 f i PageItemFX.obj
 0001:000fc770       ??_EPIE_ICONSHATTER@@UAEPAXI@Z 004fcbb0 f i PageItemFX.obj
 0001:000fc770       ??_GPIE_ICONSHATTER@@UAEPAXI@Z 004fcbb0 f i PageItemFX.obj
 0001:000fc790       ?copy@PIE_SQUASHY@@UBEPAUPAGEITEMEFFECT@@XZ 004fcbd0 f i PageItemFX.obj
 0001:000fc7c0       ??0PIE_SQUASHY@@QAE@XZ     004fcc00 f i PageItemFX.obj
 0001:000fc800       ?copy@TEXT_PIE@@UBEPAUPAGEITEMEFFECT@@XZ 004fcc40 f i PageItemFX.obj
 0001:000fc830       ??1TEXT_PIE@@UAE@XZ        004fcc70 f i PageItemFX.obj
 0001:000fc8a0       ??_ETEXT_PIE@@UAEPAXI@Z    004fcce0 f i PageItemFX.obj
 0001:000fc8a0       ??_GTEXT_PIE@@UAEPAXI@Z    004fcce0 f i PageItemFX.obj
 0001:000fc8c0       ??0PIE_TEXTLIFE@@QAE@XZ    004fcd00 f i PageItemFX.obj
 0001:000fc8e0       ?supportsMode@PIE_TEXTLIFE@@UAE_NW4PIEMode@@@Z 004fcd20 f i PageItemFX.obj
 0001:000fc900       ??1PIE_TEXTLIFE@@UAE@XZ    004fcd40 f i PageItemFX.obj
 0001:000fc970       ??0PIE_TEXTLIFE@@QAE@ABU0@@Z 004fcdb0 f i PageItemFX.obj
 0001:000fc9a0       ??_EPIE_TEXTLIFE@@UAEPAXI@Z 004fcde0 f i PageItemFX.obj
 0001:000fc9a0       ??_GPIE_TEXTLIFE@@UAEPAXI@Z 004fcde0 f i PageItemFX.obj
 0001:000fc9c0       ??0PIE_TEXTEXPLODE@@QAE@XZ 004fce00 f i PageItemFX.obj
 0001:000fc9e0       ??1PIE_TEXTEXPLODE@@UAE@XZ 004fce20 f i PageItemFX.obj
 0001:000fca50       ??0PIE_TEXTEXPLODE@@QAE@ABU0@@Z 004fce90 f i PageItemFX.obj
 0001:000fca80       ??_GPIE_TEXTEXPLODE@@UAEPAXI@Z 004fcec0 f i PageItemFX.obj
 0001:000fca80       ??_EPIE_TEXTEXPLODE@@UAEPAXI@Z 004fcec0 f i PageItemFX.obj
 0001:000fcaa0       ?init@PIE_SPIN@@UAEXXZ     004fcee0 f   PageItemFX.obj
 0001:000fcb00       ?start@PIE_ICONSHATTER@@UAEXXZ 004fcf40 f   PageItemFX.obj
 0001:000fde80       ?init@PIE_ICONSHATTER@@UAEXXZ 004fe2c0 f   PageItemFX.obj
 0001:000fde90       ?itemEffect@MAINPIECHOOSER@@UBEXQAUTAG_PAGEITEM@@W4PIEMode@@@Z 004fe2d0 f   PageItemFX.obj
 0001:000fdf00       ?iconEffect@MAINPIECHOOSER@@UBEXQAUTAG_ICON@@W4PIEMode@@@Z 004fe340 f   PageItemFX.obj
 0001:000fdf60       ?bookEffect@MAINPIECHOOSER@@UBEXQAUTAG_BOOK@@W4PIEMode@@@Z 004fe3a0 f   PageItemFX.obj
 0001:000fdf60       ?pageEffect@MAINPIECHOOSER@@UBEXQAUTAG_PAGE@@W4PIEMode@@@Z 004fe3a0 f   PageItemFX.obj
 0001:000fdfc0       ?pageEffect@POPUPPIECHOOSER@@UBEXQAUTAG_PAGE@@W4PIEMode@@@Z 004fe400 f   PageItemFX.obj
 0001:000fe030       ?textboxEffect@MEMCARDPIECHOOSER@@UBEXQAUTAG_TEXTBOX@@W4PIEMode@@@Z 004fe470 f   PageItemFX.obj
 0001:000fe090       ?pageEffect@MEMCARDPIECHOOSER@@UBEXQAUTAG_PAGE@@W4PIEMode@@@Z 004fe4d0 f   PageItemFX.obj
 0001:000fe100       ?bookEffect@MEMCARDPIECHOOSER@@UBEXQAUTAG_BOOK@@W4PIEMode@@@Z 004fe540 f   PageItemFX.obj
 0001:000fe190       ??4PIE_SPIN@@QAEAAU0@ABU0@@Z 004fe5d0 f i PageItemFX.obj
 0001:000fe260       ??0PIE_SPIN@@QAE@XZ        004fe6a0 f i PageItemFX.obj
 0001:000fe280       ??0PIE_ICONSHATTER@@QAE@XZ 004fe6c0 f i PageItemFX.obj
 0001:000fe2a0       ?copy@PIE_TEXTLIFE@@UBEPAUPAGEITEMEFFECT@@XZ 004fe6e0 f i PageItemFX.obj
 0001:000fe2d0       ?copy@PIE_TEXTEXPLODE@@UBEPAUPAGEITEMEFFECT@@XZ 004fe710 f i PageItemFX.obj
 0001:000fe300       ?textboxEffect_ON@MAINPIECHOOSER@@QBEXQAUTAG_TEXTBOX@@@Z 004fe740 f   PageItemFX.obj
 0001:000fe370       ?textboxEffect@MAINPIECHOOSER@@UBEXQAUTAG_TEXTBOX@@W4PIEMode@@@Z 004fe7b0 f   PageItemFX.obj
 0001:000fe580       ?bookEffect@SPINBOOKPIECHOOSER@@UBEXQAUTAG_BOOK@@W4PIEMode@@@Z 004fe9c0 f   PageItemFX.obj
 0001:000fe610       ?textboxEffect@POPUPPIECHOOSER@@UBEXQAUTAG_TEXTBOX@@W4PIEMode@@@Z 004fea50 f   PageItemFX.obj
 0001:000fe630       ?textboxEffect@RACEPIECHOOSER@@UBEXQAUTAG_TEXTBOX@@W4PIEMode@@@Z 004fea70 f   PageItemFX.obj
 0001:000fe760       ?initPresetPIEs@@YAXXZ     004feba0 f   PageItemFX.obj
 0001:000fe9e0       ?floatPlease@PAPERPAGEINFO@@QAEXXZ 004fee20 f i PaperBook.obj
 0001:000fea00       ?draw@PAPERPAGEINFO@@QBEXE_NI@Z 004fee40 f   PaperBook.obj
 0001:000fed30       ?drawDebug@PAPERPAGEINFO@@QBEXABUTAG_COLOUR@@_N@Z 004ff170 f   PaperBook.obj
 0001:000fee10       ?update@PAPERPAGEINFO@@QAEXXZ 004ff250 f   PaperBook.obj
 0001:000ff1a0       ?close@TAG_PAPERBOOK@@UAEXM_N@Z 004ff5e0 f   PaperBook.obj
 0001:000ff220       ?prevPage@TAG_PAPERBOOK@@UAEPAUTAG_PAGE@@_N@Z 004ff660 f   PaperBook.obj
 0001:000ff270       ?setOrientation@TAG_PAPERBOOK@@QAEXW4PBOrientation@@@Z 004ff6b0 f   PaperBook.obj
 0001:000ff340       ?PaperBook_draw@@YAXXZ     004ff780 f   PaperBook.obj
 0001:000ff350       ?PaperBook_update@@YAXXZ   004ff790 f   PaperBook.obj
 0001:000ff360       ?PaperBook_init@@YAXXZ     004ff7a0 f   PaperBook.obj
 0001:000ff4b0       ?init@PAPERPAGEINFO@@QAEXM_N@Z 004ff8f0 f   PaperBook.obj
 0001:000ffc40       ?init@TAG_PAPERBOOK@@QAEX_N@Z 00500080 f   PaperBook.obj
 0001:000ffd40       ?nextPage@TAG_PAPERBOOK@@UAEPAUTAG_PAGE@@_N@Z 00500180 f   PaperBook.obj
 0001:000ffd80       ?addPage@TAG_PAPERBOOK@@UAEPAUTAG_PAGE@@Q6AXQAU2@H@ZQBD11@Z 005001c0 f   PaperBook.obj
 0001:000ffde0       ?mainDraw@TAG_PAPERBOOK@@UAEXXZ 00500220 f   PaperBook.obj
 0001:001002b0       ?update@TAG_PAPERBOOK@@UAEXXZ 005006f0 f   PaperBook.obj
 0001:001006e0       ?open@TAG_PAPERBOOK@@QAEXQBD_NH@Z 00500b20 f   PaperBook.obj
 0001:001009a0       ?turnPaperPageToRight@TAG_PAPERBOOK@@AAEXH@Z 00500de0 f   PaperBook.obj
 0001:00100a70       ?turnPaperPageToLeft@TAG_PAPERBOOK@@AAEXH@Z 00500eb0 f   PaperBook.obj
 0001:00100b30       ?gotoPageNumber@TAG_PAPERBOOK@@UAE_NH_N@Z 00500f70 f   PaperBook.obj
 0001:00100cb0       ?shutdown@TAG_PAPERBOOK@@UAEXXZ 005010f0 f   PaperBook.obj
 0001:00100cf0       ??A?$LINKEDLIST@UPAPERPAGEINFO@@@@QAEAAUPAPERPAGEINFO@@H@Z 00501130 f i PaperBook.obj
 0001:00100da0       ?mainDrawDebug@TAG_PAPERBOOK@@UAEXXZ 005011e0 f   PaperBook.obj
 0001:00100e90       ??1TAG_POPUP@@UAE@XZ       005012d0 f   popup.obj
 0001:00100f10       ?menuActionFunc@TAG_POPUP@@CAXAAUMENUACTION_INFO@@@Z 00501350 f   popup.obj
 0001:00100f90       ??_GTAG_POPUP@@UAEPAXI@Z   005013d0 f i popup.obj
 0001:00100f90       ??_ETAG_POPUP@@UAEPAXI@Z   005013d0 f i popup.obj
 0001:00100fb0       ?createVolumePage@TAG_POPUP@@AAEXW4EPopupTypes@@Q6AXMQAUTAG_SLIDER@@@Z@Z 005013f0 f   popup.obj
 0001:00101190       ??0TAG_POPUP@@QAE@W4EPopupTypes@@HW4EStringIndex@@111D_NM@Z 005015d0 f   popup.obj
 0001:00101950       ?update@TAG_SLIDER@@UAEXXZ 00501d90 f   Slider.obj
 0001:00101b70       ?mainDraw@TAG_SLIDER@@MAEXXZ 00501fb0 f   Slider.obj
 0001:00102200       ?init@SPINNER@@QAEXW4ESpinnerType@@QAXMQBD@Z 00502640 f   Spinner.obj
 0001:00102250       ?mainDraw@SPINNER@@MAEXXZ  00502690 f   Spinner.obj
 0001:00102260       ?update@SPINNER@@UAEXXZ    005026a0 f   Spinner.obj
 0001:00102320       ?init@TAG_TABLE@@AAEXQBDQ6AXQAUTAG_PAGE@@H@Z2222@Z 00502760 f   Table.obj
 0001:00102370       ?getItemsUnsuitabilityAsNavigationTarget@TAG_TABLE@@UAEMQAUTAG_PAGEITEM@@QBMM@Z 005027b0 f   Table.obj
 0001:00102380       ?setRect@TAG_TABLE@@MAEPAUTAG_PAGEITEM@@ABUTAG_RECTANGLE@@@Z 005027c0 f   Table.obj
 0001:001023a0       ?insertItem@TAG_TABLE@@QAEPAUTAG_PAGEITEM@@QAU2@H@Z 005027e0 f   Table.obj
 0001:00102460       ?append@?$LINKEDLIST@UTAG_KOSCAMTARGET@@@@QAEPAUTAG_KOSCAMTARGET@@QAU2@@Z 005028a0 f i WestBoss.obj
 0001:00102460       ?append@?$LINKEDLIST@UTAG_FLYGROUP@@@@QAEPAUTAG_FLYGROUP@@QAU2@@Z 005028a0 f i Flies.obj
 0001:00102460       ?append@?$LINKEDLIST@UTAG_SHOCKWAVE@@@@QAEPAUTAG_SHOCKWAVE@@QAU2@@Z 005028a0 f i shockwave.obj
 0001:00102460       ?append@?$LINKEDLIST@UTAG_PAGE@@@@QAEPAUTAG_PAGE@@QAU2@@Z 005028a0 f i TextFX.obj
 0001:00102460       ?append@?$LINKEDLIST@UTAG_BOOK@@@@QAEPAUTAG_BOOK@@QAU2@@Z 005028a0 f i BookList.obj
 0001:00102460       ?append@?$LINKEDLIST@UTAG_PAGEROW@@@@QAEPAUTAG_PAGEROW@@QAU2@@Z 005028a0 f i TextFX.obj
 0001:00102460       ?append@?$LINKEDLIST@UTAG_PAGEITEM@@@@QAEPAUTAG_PAGEITEM@@QAU2@@Z 005028a0 f i TextFX.obj
 0001:00102460       ?append@?$LINKEDLIST@UBOOKCHAPTER@@@@QAEPAUBOOKCHAPTER@@QAU2@@Z 005028a0 f i tutorial.obj
 0001:00102460       ?append@?$LINKEDLIST@UTAG_MONITOREFFECT@@@@QAEPAUTAG_MONITOREFFECT@@QAU2@@Z 005028a0 f i MonitorFX.obj
 0001:00102460       ?append@?$LINKEDLIST@UTAG_SUBTITLE@@@@QAEPAUTAG_SUBTITLE@@QAU2@@Z 005028a0 f i subtitle.obj
 0001:00102460       ?append@?$LINKEDLIST@M@@QAEPAMQAM@Z 005028a0 f i Table.obj
 0001:00102460       ?append@?$LINKEDLIST@UPAPERPAGEINFO@@@@QAEPAUPAPERPAGEINFO@@QAU2@@Z 005028a0 f i PaperBook.obj
 0001:001024c0       ?getRow@TAG_PAGE@@IAEPAUTAG_PAGEROW@@H@Z 00502900 f i Table.obj
 0001:001024f0       ?getNavigationCandidate@TAG_TABLE@@UAEPAUTAG_PAGEITEM@@AAUNAVCANDIDATE_INFO@@@Z 00502930 f   Table.obj
 0001:00102800       ??A?$LINKEDLIST@M@@QAEAAMH@Z 00502c40 f i Table.obj
 0001:00102870       ?align@TAG_TABLE@@MAEXXZ   00502cb0 f   Table.obj
 0001:00102a10       ??0TEXTSETTINGS@@QAE@XZ    00502e50 f   TextBox.obj
 0001:00102aa0       ?init@TEXTSTYLE@@QAEXXZ    00502ee0 f   TextBox.obj
 0001:00102b10       ?initTextStyles@@YAXXZ     00502f50 f   TextBox.obj
 0001:00102c20       ?updateActualFontSize@TAG_TEXTBOX@@AAEXXZ 00503060 f   TextBox.obj
 0001:00102c40       ?chooseEffect@TAG_TEXTBOX@@EAEXW4PIEMode@@_N@Z 00503080 f   TextBox.obj
 0001:00102cb0       ?applyFontSize@TAG_TEXTBOX@@IBEXXZ 005030f0 f   TextBox.obj
 0001:00102d40       ?startDraw@TAG_CHECKBOX@@MAEXXZ 00503180 f   shadow.obj
 0001:00102d40       ?startDraw@TAG_TEXTBOX@@MAEXXZ 00503180 f   TextBox.obj
 0001:00102d50       ?mainDrawDebug@TAG_TEXTBOX@@MAEXXZ 00503190 f   TextBox.obj
 0001:00102d60       ?drawStage@TAG_TEXTBOX@@AAEXQBGW4ETextRenderStage@@@Z 005031a0 f   TextBox.obj
 0001:00102e50       ?findEscapeCodes@TAG_TEXTBOX@@AAEXXZ 00503290 f   TextBox.obj
 0001:00102ec0       ?getOutlineColour@TAG_TEXTBOX@@ABEAAUTAG_COLOUR@@XZ 00503300 f   TextBox.obj
 0001:00102f00       ?align@TAG_TEXTBOX@@MAEXXZ 00503340 f   TextBox.obj
 0001:001030d0       ?setRect@TAG_TEXTBOX@@MAEPAUTAG_PAGEITEM@@ABUTAG_RECTANGLE@@@Z 00503510 f   TextBox.obj
 0001:00103130       ?getRequiredWidth@TAG_TEXTBOX@@UAEMXZ 00503570 f   TextBox.obj
 0001:00103240       ?getRequiredHeight@TAG_TEXTBOX@@UAEMXZ 00503680 f   TextBox.obj
 0001:00103350       ?setXAlign@TAG_TEXTBOX@@UAEPAUTAG_PAGEITEM@@W4PageItemFlag@@@Z 00503790 f   TextBox.obj
 0001:00103390       ?setYAlign@TAG_TEXTBOX@@UAEPAUTAG_PAGEITEM@@W4PageItemFlag@@@Z 005037d0 f   TextBox.obj
 0001:001033d0       ?checkCharacters@TAG_TEXTBOX@@QAEXXZ 00503810 f   TextBox.obj
 0001:00103470       ?setText@TAG_TEXTBOX@@QAAPAU1@W4EStringIndex@@ZZ 005038b0 f   TextBox.obj
 0001:00103580       ?setText@TAG_TEXTBOX@@QAEPAU1@PADW4EStringIndex@@@Z 005039c0 f   TextBox.obj
 0001:00103670       ?setStyle@TAG_TEXTBOX@@QAEPAU1@AAUTEXTSTYLE@@@Z 00503ab0 f   TextBox.obj
 0001:00103700       ?setConcealed@TAG_TEXTBOX@@QAEPAU1@_N@Z 00503b40 f   TextBox.obj
 0001:00103780       ?readPointers@TAG_TEXTBOX@@QAEXPADPAG@Z 00503bc0 f   TextBox.obj
 0001:001037c0       ?strcatf@TAG_TEXTBOX@@QAAXQBDZZ 00503c00 f   TextBox.obj
 0001:00103860       ?setCase@TAG_TEXTBOX@@QAEXW4TBCase@@@Z 00503ca0 f   TextBox.obj
 0001:00103990       ?setLanguage@TAG_TEXTBOX@@MAEXW4EBLanguageID@@@Z 00503dd0 f   TextBox.obj
 0001:001039c0       ?init@TAG_TEXTBOX@@QAEXW4EStringIndex@@@Z 00503e00 f   TextBox.obj
 0001:00103a80       ?mainDraw@TAG_TEXTBOX@@MAEXXZ 00503ec0 f   TextBox.obj
 0001:00103cc0       ??0TAG_TEXTBOX@@QAA@QBDZZ  00504100 f   TextBox.obj
 0001:00103da0       ?sprintf8@TAG_TEXTBOX@@QAAPAU1@QBDZZ 005041e0 f   TextBox.obj
 0001:00103e50       ?bottomHalf@TAG_RECTANGLE@@QBE?AU1@XZ 00504290 f i TextFX.obj
 0001:00103e80       ??_0@YA?AUTAG_RECTANGLE@@AAU0@M@Z 005042c0 f i TextFX.obj
 0001:00103ef0       ?TextFX_escapeCallback@@YAHW4EBFontCallbackReason@@PAU_TBFontCallbackInfo@@@Z 00504330 f   TextFX.obj
 0001:00105400       ?TextFX_init@@YAXXZ        00505840 f   TextFX.obj
 0001:00105580       ?TextFX_setAlpha@@YAXE@Z   005059c0 f   TextFX.obj
 0001:00105590       ?TextFX_resetAlpha@@YAXXZ  005059d0 f   TextFX.obj
 0001:001055a0       ?TextFX_vGrad@@YAXEEEEEE@Z 005059e0 f   TextFX.obj
 0001:00105600       ?TextFX_vGrad@@YAXABUTAG_COLOUR@@0@Z 00505a40 f   TextFX.obj
 0001:00105630       ?TextFX_setColour@@YAXEEE@Z 00505a70 f   TextFX.obj
 0001:001056b0       ?TextFX_select@@YAX_N@Z    00505af0 f   TextFX.obj
 0001:001056d0       ?TextFX_setColour@@YAXABUTAG_COLOUR@@@Z 00505b10 f   TextFX.obj
 0001:00105700       ?TextFX_resetColour@@YAXXZ 00505b40 f   TextFX.obj
 0001:00105770       ?TextFX_setClipWidth@@YAXM@Z 00505bb0 f   TextFX.obj
 0001:001057a0       ?TextFX_resetClipping@@YAXXZ 00505be0 f   TextFX.obj
 0001:001057b0       ?drawWithoutEffect@TAG_PAGEITEM@@AAEXXZ 00505bf0 f   TextFX.obj
 0001:001057d0       ?getStringIndex@TAG_PAGEITEM@@EAE?AW4EStringIndex@@XZ 00505c10 f   TextFX.obj
 0001:001057e0       ?effectsFinished@TAG_PAGEITEM@@MAE_NXZ 00505c20 f   TextFX.obj
 0001:00105800       ?hasEffects@TAG_PAGEITEM@@MAE_NXZ 00505c40 f   TextFX.obj
 0001:00105810       ?freeTempMemory@TAG_PAGEITEM@@MAEXXZ 00505c50 f   TextFX.obj
 0001:00105830       ?enable@TAG_PAGEITEM@@QAEPAU1@_N@Z 00505c70 f   TextFX.obj
 0001:00105860       ?startDraw@TAG_PAGEITEM@@MAEXXZ 00505ca0 f   TextFX.obj
 0001:001059d0       ?mainDrawDebug@TAG_PAGEITEM@@MAEXXZ 00505e10 f   TextFX.obj
 0001:00105c40       ?init@TAG_PAGEITEM@@IAEXQBD@Z 00506080 f   TextFX.obj
 0001:00105d40       ?chooseEffect@TAG_PAGEITEM@@MAEXXZ 00506180 f   TextFX.obj
 0001:00105d60       ?startEffect@TAG_PAGEITEM@@QAEXQAUPAGEITEMEFFECT@@@Z 005061a0 f   TextFX.obj
 0001:00105d90       ?setEffect@TAG_PAGEITEM@@QAEPAU1@QAUPAGEITEMEFFECT@@W4PIEMode@@@Z 005061d0 f   TextFX.obj
 0001:00105df0       ?update@TAG_PAGEITEM@@UAEXXZ 00506230 f   TextFX.obj
 0001:00105e50       ?draw@TAG_PAGEITEM@@UAEXXZ 00506290 f   TextFX.obj
 0001:00105e80       ?drawBackgroundAndBorder@TAG_PAGEITEM@@MAEXXZ 005062c0 f   TextFX.obj
 0001:00105f30       ?setXAlign@TAG_PAGEITEM@@UAEPAU1@W4PageItemFlag@@@Z 00506370 f   TextFX.obj
 0001:00105f50       ?setYAlign@TAG_PAGEITEM@@UAEPAU1@W4PageItemFlag@@@Z 00506390 f   TextFX.obj
 0001:00105f70       ?setRect@TAG_PAGEITEM@@MAEPAU1@ABUTAG_RECTANGLE@@@Z 005063b0 f   TextFX.obj
 0001:00105fa0       ?setFreeRect@TAG_PAGEITEM@@QAEPAU1@UTAG_RECTANGLE@@@Z 005063e0 f   TextFX.obj
 0001:00105fd0       ?drawScreenRects@TAG_PAGEITEM@@UAEXXZ 00506410 f   TextFX.obj
 0001:00106020       ?select@TAG_PAGEITEM@@UAEX_N@Z 00506460 f   TextFX.obj
 0001:00106050       ?highlight@TAG_PAGEITEM@@UAEX_N@Z 00506490 f   TextFX.obj
 0001:00106080       ?shutdown@TAG_PAGEITEM@@UAEXXZ 005064c0 f   TextFX.obj
 0001:001060b0       ?updateBox@TAG_PAGEITEM@@MAEXXZ 005064f0 f   TextFX.obj
 0001:00106170       ?markForRealignment@TAG_PAGEITEM@@MAEXXZ 005065b0 f   TextFX.obj
 0001:00106180       ?setBoxStyle@TAG_PAGEITEM@@QAEPAU1@_N0@Z 005065c0 f   TextFX.obj
 0001:001061c0       ?align@TAG_PAGEITEM@@MAEXXZ 00506600 f   TextFX.obj
 0001:00106290       ?onInsert@TAG_PAGE@@UAEXXZ 005066d0 f   TextFX.obj
 0001:001062a0       ?setMenuActionFunc@TAG_PAGE@@QAEPAU1@Q6AXAAUMENUACTION_INFO@@@ZQAX@Z 005066e0 f   TextFX.obj
 0001:001062c0       ?setHSlack@TAG_PAGE@@QAEPAU1@_N@Z 00506700 f   TextFX.obj
 0001:001062f0       ?setVSlack@TAG_PAGE@@QAEPAU1@_N@Z 00506730 f   TextFX.obj
 0001:00106320       ?setSlack@TAG_PAGE@@QAEPAU1@_N@Z 00506760 f   TextFX.obj
 0001:00106360       ?selectItem@TAG_PAGE@@QAEPAUTAG_PAGEITEM@@QAU2@@Z 005067a0 f   TextFX.obj
 0001:00106430       ?open@TAG_PAGE@@QAEX_N@Z   00506870 f   TextFX.obj
 0001:001064a0       ?close@TAG_PAGE@@QAEX_N@Z  005068e0 f   TextFX.obj
 0001:00106510       ?setRect@TAG_PAGE@@MAEPAUTAG_PAGEITEM@@ABUTAG_RECTANGLE@@@Z 00506950 f   TextFX.obj
 0001:00106570       ?getItemsUnsuitabilityAsNavigationTarget@TAG_PAGE@@MAEMQAUTAG_PAGEITEM@@QBMM@Z 005069b0 f   TextFX.obj
 0001:00106630       ?detectMenuActionPress@TAG_PAGE@@EBE_NXZ 00506a70 f   TextFX.obj
 0001:001066c0       ?debounceMenuActionPress@TAG_PAGE@@EBEXXZ 00506b00 f   TextFX.obj
 0001:00106700       ?detectMenuActionBack@TAG_PAGE@@EBE_NXZ 00506b40 f   TextFX.obj
 0001:00106760       ?debounceMenuActionBack@TAG_PAGE@@EBEXXZ 00506ba0 f   TextFX.obj
 0001:001067b0       ?playNavSound@TAG_PAGE@@QAEXPAUTAG_MENU_SOUNDS@@H@Z 00506bf0 f   TextFX.obj
 0001:00106860       ?drawBackgroundAndBorder@TAG_BOOK@@MAEXXZ 00506ca0 f   TextFX.obj
 0001:00106990       ?setNavigation@TAG_PAGE@@QAEPAU1@_N@Z 00506dd0 f   TextFX.obj
 0001:001069c0       ?setColumnNavigation@TAG_PAGE@@QAEPAU1@_N@Z 00506e00 f   TextFX.obj
 0001:001069f0       ?setController@TAG_PAGE@@QAEXD@Z 00506e30 f   TextFX.obj
 0001:00106a00       ?setMargin@TAG_PAGE@@QAEPAU1@M@Z 00506e40 f   TextFX.obj
 0001:00106a10       ?setNavigationWrap@TAG_PAGE@@QAEPAU1@I@Z 00506e50 f   TextFX.obj
 0001:00106a30       ?chooseEffect@TAG_BOOK@@EAEXW4PIEMode@@_N@Z 00506e70 f   TextFX.obj
 0001:00106ae0       ?effectsFinished@TAG_BOOK@@MAE_NXZ 00506f20 f   TextFX.obj
 0001:00106b20       ?hasEffects@TAG_BOOK@@MAE_NXZ 00506f60 f   TextFX.obj
 0001:00106b50       ?openExclusive@TAG_BOOK@@QAEXQBD_N@Z 00506f90 f   TextFX.obj
 0001:00106ba0       ?close@TAG_BOOK@@UAEXM_N@Z 00506fe0 f   TextFX.obj
 0001:00106cb0       ?startDraw@TAG_BOOK@@MAEXXZ 005070f0 f   TextFX.obj
 0001:00107250       ?mainDraw@TAG_BOOK@@MAEXXZ 00507690 f   TextFX.obj
 0001:00107290       ?setAspectRatio@TAG_BOOK@@QAEXMM@Z 005076d0 f   TextFX.obj
 0001:001072b0       ?setRect@TAG_BOOK@@IAEPAU1@ABUTAG_RECTANGLE@@H@Z 005076f0 f   TextFX.obj
 0001:001072f0       ?addPage@TAG_BOOK@@QAEPAUTAG_PAGE@@QBDQ6AXQAU2@H@Z22@Z 00507730 f   TextFX.obj
 0001:00107310       ?getItem@TAG_BOOK@@UAEPAUTAG_PAGEITEM@@MM@Z 00507750 f   TextFX.obj
 0001:00107340       ?getTextbox@TAG_BOOK@@UAEPAUTAG_TEXTBOX@@W4EStringIndex@@@Z 00507780 f   TextFX.obj
 0001:00107360       ?getNavigationCandidate@TAG_BOOK@@UAEPAUTAG_PAGEITEM@@AAUNAVCANDIDATE_INFO@@@Z 005077a0 f   TextFX.obj
 0001:00107390       ?changeMode@TAG_BOOK@@QAEXHM@Z 005077d0 f   TextFX.obj
 0001:001073c0       ?drawScreenRects@TAG_BOOK@@UAEXXZ 00507800 f   TextFX.obj
 0001:00107410       ?realign@TAG_BOOK@@QAEXXZ  00507850 f   TextFX.obj
 0001:00107430       ?setAutoDraw@TAG_BOOK@@QAEPAU1@_N@Z 00507870 f   TextFX.obj
 0001:00107440       ?getAutoDraw@TAG_BOOK@@QAE_NXZ 00507880 f   TextFX.obj
 0001:00107450       ?updateBox@TAG_BOOK@@MAEXXZ 00507890 f   TextFX.obj
 0001:00107510       ?setFullScreenBackground@TAG_BOOK@@QAEXABUTAG_COLOUR@@@Z 00507950 f   TextFX.obj
 0001:00107530       ?setName@?$LINKEDLIST@UTAG_CUTSCENEENTRY@@@@QAAXQBDZZ 00507970 f i cutscene.obj
 0001:00107530       ?setName@?$LINKEDLIST@UTAG_PAGE@@@@QAAXQBDZZ 00507970 f i TextFX.obj
 0001:00107530       ?setName@?$LINKEDLIST@UTAG_PAGEITEM@@@@QAAXQBDZZ 00507970 f i TextFX.obj
 0001:00107530       ?setName@?$LINKEDLIST@UTAG_PAGEROW@@@@QAAXQBDZZ 00507970 f i TextFX.obj
 0001:00107550       ?kill@?$LINKEDLIST@UTAG_PAGEITEM@@@@QAEXXZ 00507990 f i TextFX.obj
 0001:00107550       ?kill@?$LINKEDLIST@UTAG_PAGE@@@@QAEXXZ 00507990 f i TextFX.obj
 0001:001075a0       ?kill@?$LINKEDLIST@UTAG_LASERBEAM@@@@QAEXXZ 005079e0 f i laser.obj
 0001:001075a0       ?kill@?$LINKEDLIST@UTAG_MONITOREFFECT@@@@QAEXXZ 005079e0 f i MonitorFX.obj
 0001:001075a0       ?kill@?$LINKEDLIST@UTAG_KOSCAMTARGET@@@@QAEXXZ 005079e0 f i cameracase.obj
 0001:001075a0       ?kill@?$LINKEDLIST@M@@QAEXXZ 005079e0 f i endoflevelstats.obj
 0001:001075a0       ?kill@?$LINKEDLIST@UPAPERPAGEINFO@@@@QAEXXZ 005079e0 f i PaperBook.obj
 0001:001075a0       ?kill@?$LINKEDLIST@UTAG_CUTSCENEENTRY@@@@QAEXXZ 005079e0 f i cutscene.obj
 0001:001075a0       ?kill@?$LINKEDLIST@UBOOKCHAPTER@@@@QAEXXZ 005079e0 f i TextFX.obj
 0001:001075a0       ?kill@?$LINKEDLIST@UTAG_SUBTITLE@@@@QAEXXZ 005079e0 f i subtitle.obj
 0001:001075f0       ?chooseEffect@TAG_PAGEITEM@@MAEXW4PIEMode@@_N@Z 00507a30 f   TextFX.obj
 0001:00107690       ??1TAG_PAGEITEM@@UAE@XZ    00507ad0 f   TextFX.obj
 0001:001076d0       ?setNavigationScope@TAG_PAGE@@QAEPAU1@QAU1@@Z 00507b10 f   TextFX.obj
 0001:00107740       ?navigate@TAG_PAGE@@EAEXM_NW4EPageNavInput@@@Z 00507b80 f   TextFX.obj
 0001:00107850       ?respondToNavigation@TAG_PAGE@@AAEXXZ 00507c90 f   TextFX.obj
 0001:00107e20       ?setName@TAG_PAGE@@QAEPAUTAG_PAGEITEM@@QBD@Z 00508260 f   TextFX.obj
 0001:00107e70       ?init@TAG_BOOK@@QAEX_N@Z   005082b0 f   TextFX.obj
 0001:00107f90       ?nextPage@TAG_BOOK@@UAEPAUTAG_PAGE@@_N@Z 005083d0 f   TextFX.obj
 0001:00107fe0       ?prevPage@TAG_BOOK@@UAEPAUTAG_PAGE@@_N@Z 00508420 f   TextFX.obj
 0001:00108030       ?update@TAG_BOOK@@MAEXXZ   00508470 f   TextFX.obj
 0001:00108330       ?mainDrawDebug@TAG_BOOK@@MAEXXZ 00508770 f   TextFX.obj
 0001:00108410       ?shutdown@TAG_BOOK@@UAEXXZ 00508850 f   TextFX.obj
 0001:001084a0       ??1TAG_BOOK@@UAE@XZ        005088e0 f   TextFX.obj
 0001:00108520       ?setName@TAG_BOOK@@QAEPAUTAG_PAGEITEM@@QBD@Z 00508960 f   TextFX.obj
 0001:00108560       ??0TAG_PAGEROW@@QAE@I@Z    005089a0 f   TextFX.obj
 0001:001085d0       ?wantsYPadding@TAG_PAGEROW@@QAE_NXZ 00508a10 f   TextFX.obj
 0001:00108620       ?setRect@TAG_PAGEROW@@QAEPAU1@ABUTAG_RECTANGLE@@@Z 00508a60 f   TextFX.obj
 0001:00108830       ?getFirstSelectableItem@TAG_PAGEROW@@QAEPAUTAG_PAGEITEM@@_N@Z 00508c70 f   TextFX.obj
 0001:00108880       ?drawDebug@TAG_PAGEROW@@QAEXXZ 00508cc0 f   TextFX.obj
 0001:001088f0       ?draw@TAG_PAGEROW@@QAEXXZ  00508d30 f   TextFX.obj
 0001:00108930       ?update@TAG_PAGEROW@@QAEXXZ 00508d70 f   TextFX.obj
 0001:001089a0       ?getRequiredWidth@TAG_PAGEROW@@QAEMXZ 00508de0 f   TextFX.obj
 0001:001089f0       ?getRequiredHeight@TAG_PAGEROW@@QAEMXZ 00508e30 f   TextFX.obj
 0001:00108a70       ?shutdown@TAG_PAGEROW@@UAEXXZ 00508eb0 f   TextFX.obj
 0001:00108b00       ?setEffectChooser@TAG_PAGE@@UAEPAUTAG_PAGEITEM@@QBUPIECHOOSER@@@Z 00508f40 f   TextFX.obj
 0001:00108be0       ?init@TAG_PAGE@@IAEXQBDQ6AXQAU1@H@Z2222@Z 00509020 f   TextFX.obj
 0001:00108cf0       ?setLanguage@TAG_PAGE@@MAEXW4EBLanguageID@@@Z 00509130 f   TextFX.obj
 0001:00108db0       ?markForRealignment@TAG_PAGE@@MAEXXZ 005091f0 f   TextFX.obj
 0001:00108e70       ?align@TAG_PAGE@@MAEXXZ    005092b0 f   TextFX.obj
 0001:00109180       ?getItem@TAG_PAGE@@UAEPAUTAG_PAGEITEM@@MM@Z 005095c0 f   TextFX.obj
 0001:00109270       ?insertFreeItem@TAG_PAGE@@QAEPAUTAG_PAGEITEM@@QAU2@ABUTAG_RECTANGLE@@@Z 005096b0 f   TextFX.obj
 0001:001092c0       ?update@TAG_PAGE@@UAEXXZ   00509700 f   TextFX.obj
 0001:001093f0       ?mainDrawDebug@TAG_PAGE@@MAEXXZ 00509830 f   TextFX.obj
 0001:00109620       ?mainDraw@TAG_PAGE@@MAEXXZ 00509a60 f   TextFX.obj
 0001:001096b0       ?getRequiredWidth@TAG_PAGE@@UAEMXZ 00509af0 f   TextFX.obj
 0001:00109820       ?getRequiredHeight@TAG_PAGE@@UAEMXZ 00509c60 f   TextFX.obj
 0001:00109980       ?getFirstSelectableItem@TAG_PAGE@@UAEPAUTAG_PAGEITEM@@_N@Z 00509dc0 f   TextFX.obj
 0001:00109a40       ?chooseEffect@TAG_PAGE@@EAEXW4PIEMode@@_N@Z 00509e80 f   TextFX.obj
 0001:00109b80       ?addRow@TAG_PAGE@@QAEPAUTAG_PAGEROW@@XZ 00509fc0 f   TextFX.obj
 0001:00109bd0       ?effectsFinished@TAG_PAGE@@MAE_NXZ 0050a010 f   TextFX.obj
 0001:00109c80       ?hasEffects@TAG_PAGE@@MAE_NXZ 0050a0c0 f   TextFX.obj
 0001:00109d10       ?drawScreenRects@TAG_PAGE@@UAEXXZ 0050a150 f   TextFX.obj
 0001:00109dd0       ?freeTempMemory@TAG_BOOK@@MAEXXZ 0050a210 f   TextFX.obj
 0001:00109e50       ?findPage@TAG_BOOK@@QAEHQBDQAPBUTAG_PAGE@@@Z 0050a290 f   TextFX.obj
 0001:00109ed0       ??0TAG_BOOK@@QAE@QBD@Z     0050a310 f   TextFX.obj
 0001:00109f90       ??_GTAG_BOOK@@UAEPAXI@Z    0050a3d0 f i TextFX.obj
 0001:00109f90       ??_ETAG_BOOK@@UAEPAXI@Z    0050a3d0 f i TextFX.obj
 0001:00109fb0       ??0TAG_BOOK@@QAE@XZ        0050a3f0 f   TextFX.obj
 0001:0010a050       ?onInsert@TAG_BOOK@@UAEXXZ 0050a490 f   TextFX.obj
 0001:0010a0f0       ?setLanguage@TAG_BOOK@@MAEXW4EBLanguageID@@@Z 0050a530 f   TextFX.obj
 0001:0010a160       ?setEffectChooser@TAG_BOOK@@UAEPAUTAG_PAGEITEM@@QBUPIECHOOSER@@@Z 0050a5a0 f   TextFX.obj
 0001:0010a1e0       ?removePage@TAG_BOOK@@QAEPAUTAG_PAGE@@QAU2@_N@Z 0050a620 f   TextFX.obj
 0001:0010a280       ?getItem@TAG_BOOK@@UAEPAUTAG_PAGEITEM@@QBD@Z 0050a6c0 f   TextFX.obj
 0001:0010a320       ?gotoPage@TAG_BOOK@@QAEXQBD_N@Z 0050a760 f   TextFX.obj
 0001:0010a370       ?gotoPageNumber@TAG_BOOK@@UAE_NH_N@Z 0050a7b0 f   TextFX.obj
 0001:0010a460       ?getRequiredHeight@TAG_BOOK@@UAEMXZ 0050a8a0 f   TextFX.obj
 0001:0010a500       ?getRequiredWidth@TAG_BOOK@@UAEMXZ 0050a940 f   TextFX.obj
 0001:0010a5b0       ?setNavigation@TAG_BOOK@@QAEPAU1@_N@Z 0050a9f0 f   TextFX.obj
 0001:0010a610       ?setController@TAG_BOOK@@QAEXD@Z 0050aa50 f   TextFX.obj
 0001:0010a680       ?markForRealignment@TAG_BOOK@@MAEXXZ 0050aac0 f   TextFX.obj
 0001:0010a6f0       ?align@TAG_BOOK@@MAEXXZ    0050ab30 f   TextFX.obj
 0001:0010a950       ?getItem@TAG_PAGEROW@@QAEPAUTAG_PAGEITEM@@QBD@Z 0050ad90 f i TextFX.obj
 0001:0010a9e0       ?setColumnWidths@TAG_PAGEROW@@QAEXAAV?$LINKEDLIST@M@@@Z 0050ae20 f   TextFX.obj
 0001:0010aa80       ?getItem@TAG_PAGE@@UAEPAUTAG_PAGEITEM@@QBD@Z 0050aec0 f   TextFX.obj
 0001:0010aad0       ?insertItem@TAG_PAGE@@QAEPAUTAG_PAGEITEM@@QAU2@H@Z 0050af10 f   TextFX.obj
 0001:0010ab40       ?insertItem@TAG_PAGE@@QAEPAUTAG_TEXTBOX@@W4EStringIndex@@H@Z 0050af80 f   TextFX.obj
 0001:0010abc0       ?getFirstItem@TAG_PAGE@@QAEPAUTAG_PAGEITEM@@XZ 0050b000 f   TextFX.obj
 0001:0010ac30       ?next@PAGETRAVERSAL@@QAEPAUTAG_PAGEITEM@@XZ 0050b070 f   TextFX.obj
 0001:0010ad80       ?open@TAG_BOOK@@UAEXQBD_N@Z 0050b1c0 f   TextFX.obj
 0001:0010aea0       ?addPage@TAG_BOOK@@UAEPAUTAG_PAGE@@Q6AXQAU2@H@ZQBD11@Z 0050b2e0 f   TextFX.obj
 0001:0010afc0       ?addPage@TAG_BOOK@@QAEPAUTAG_PAGE@@QAUTAG_PAGEITEM@@Q6AXQAU2@H@ZQBD22@Z 0050b400 f   TextFX.obj
 0001:0010b020       ?addPage@TAG_BOOK@@QAEPAUTAG_PAGE@@W4EStringIndex@@Q6AXQAU2@H@ZQBD22@Z 0050b460 f   TextFX.obj
 0001:0010b060       ?kill@?$LINKEDLIST@UTAG_PAGEROW@@@@QAEXXZ 0050b4a0 f i TextFX.obj
 0001:0010b0c0       ?getTextbox@TAG_PAGE@@UAEPAUTAG_TEXTBOX@@W4EStringIndex@@@Z 0050b500 f   TextFX.obj
 0001:0010b150       ?getNavigationCandidate@TAG_PAGE@@UAEPAUTAG_PAGEITEM@@AAUNAVCANDIDATE_INFO@@@Z 0050b590 f   TextFX.obj
 0001:0010b400       ?shutdown@TAG_PAGE@@UAEXXZ 0050b840 f   TextFX.obj
 0001:0010b480       ??1TAG_PAGE@@UAE@XZ        0050b8c0 f   TextFX.obj
 0001:0010b500       ?freeTempMemory@TAG_PAGE@@MAEXXZ 0050b940 f   TextFX.obj
 0001:0010b590       ?CreateLegalCredits@@YAXPAUTAG_BOOK@@DM@Z 0050b9d0 f   credits.obj
 0001:0010b6d0       ?UpdateCreditsPage@@YAXPAUTAG_FRONTENDMENU@@PAUTAG_PADCONTROLSTATUS@@@Z 0050bb10 f   credits.obj
 0001:0010b9e0       ?InsertCredit@@YAXPAUTAG_PAGE@@W4EStringIndex@@W4ECreditType@@M@Z 0050be20 f   credits.obj
 0001:0010bba0       ?CreateIntroCredits@@YAXPAUTAG_BOOK@@DM@Z 0050bfe0 f   credits.obj
 0001:0010be90       ?CreateUSInfogramesIntCredits@@YAXPAUTAG_BOOK@@DM@Z 0050c2d0 f   credits.obj
 0001:0010c0d0       ?CreateUSInfogramesCredits@@YAXPAUTAG_BOOK@@DM@Z 0050c510 f   credits.obj
 0001:0010c2b0       ?CreateBlitzCredits@@YAXPAUTAG_BOOK@@DM@Z 0050c6f0 f   credits.obj
 0001:0010dc10       ?CreateInfogramesCredits@@YAXPAUTAG_BOOK@@DM@Z 0050e050 f   credits.obj
 0001:0010e270       ?CreateWarnerCredits@@YAXPAUTAG_BOOK@@DM@Z 0050e6b0 f   credits.obj
 0001:0010e570       ?CreateNimrodCredits@@YAXPAUTAG_BOOK@@DM@Z 0050e9b0 f   credits.obj
 0001:0010e5e0       ?CreateCreditsPage@@YAXPAUTAG_FRONTENDMENU@@@Z 0050ea20 f   credits.obj
 0001:0010ece0       ?ResetActorAtSideOfDeathPlane@@YAXPAUTAG_ACTORINSTANCE@@QAM1@Z 0050f120 f   death.obj
 0001:0010edb0       ?FinishedFadeFromDeathPlane@@YAXPAVTAG_FADE@@@Z 0050f1f0 f   death.obj
 0001:0010ede0       ?CalculateDeathObjectResetPoint@@YAXPAUTAG_ACTORINSTANCE@@0@Z 0050f220 f   death.obj
 0001:0010f1d0       ?RespondToDeathCollision@@YAHPAUTAG_ACTORINSTANCE@@0@Z 0050f610 f   death.obj
 0001:0010f240       ?CreateDeathObject@@YAHPAUTAG_ACTORINSTANCE@@@Z 0050f680 f   death.obj
 0001:0010f2b0       ?IndexToScene@@YA?AW4EScene@@H@Z 0050f6f0 f   endgamecredits.obj
 0001:0010f330       ?TimeIntoHoursMinsAndSecs@@YAXPADM@Z 0050f770 f   endgamecredits.obj
 0001:0010f3a0       ?LocaliseNumbers@@YAXPADH@Z 0050f7e0 f   endgamecredits.obj
 0001:0010f460       ?FreeEndGameCredits@@YAXXZ 0050f8a0 f   endgamecredits.obj
 0001:0010f500       ?FinishedFadeFromCredits@@YAXPAVTAG_FADE@@@Z 0050f940 f   endgamecredits.obj
 0001:0010f520       ?UpdateTazInCredits@@YAXXZ 0050f960 f   endgamecredits.obj
 0001:00110060       ?UpdateCartoonLightDirection@@YAXPAUTAG_PADCONTROLSTATUS@@@Z 005104a0 f   endgamecredits.obj
 0001:00110220       ?CreateEndCreditsBooks@@YAXXZ 00510660 f   endgamecredits.obj
 0001:00111730       ?UpdateEndGameCredits@@YAHXZ 00511b70 f   endgamecredits.obj
 0001:00112060       ?MainCredits@@YAXXZ        005124a0 f   endgamecredits.obj
 0001:00112260       ?InitialiseEndGameCredits@@YAXXZ 005126a0 f   endgamecredits.obj
 0001:00112620       ?RequestFrontEndStateChange@@YAHW4ECharState@@@Z 00512a60 f   frontendanimation.obj
 0001:00112810       ?RequestTazFrontEndAnimation@@YAXPAD@Z 00512c50 f   frontendanimation.obj
 0001:00112830       ?UpdateIncedentalsFrontEndAnimation@@YAHXZ 00512c70 f   frontendanimation.obj
 0001:00113390       ?ChooseIdleAnimationForTazInFrontEnd@@YAPAU_TBActorAnimSegment@@PAUTAG_ACTORINSTANCE@@@Z 005137d0 f   frontendanimation.obj
 0001:001133d0       ?FrontEndRotateTazCallback@@YAHW4EBQueueCallbackReason@@PAU_TBActorInstance@@PAU_TBActorNodeInstance@@PAU_TBActorAnimSegment@@PAX@Z 00513810 f   frontendanimation.obj
 0001:00113450       ?InitialiseFrontEndAnimationPaths@@YAXXZ 00513890 f   frontendanimation.obj
 0001:00114910       ?ChooseFrontEndAnimationPath@@YAHW4EMenuPage@@@Z 00514d50 f   frontendanimation.obj
 0001:00114fd0       ?UpdateFrontEndAnimPaths@@YAXXZ 00515410 f   frontendanimation.obj
 0001:001157d0       ?UpdateTazFrontEndAnimation@@YAHXZ 00515c10 f   frontendanimation.obj
 0001:00116c90       ?InitialiseFrontEndCameraStore@@YAXXZ 005170d0 f   frontendcamera.obj
 0001:00116cc0       ?StoreFrontEndCameraInfoFromMap@@YAXPAUTAG_ACTORINSTANCE@@HI@Z 00517100 f   frontendcamera.obj
 0001:00116cf0       ?AcceptFrontEndCamerasFromStore@@YAXPAUTAG_ACTORINSTANCE@@HI@Z 00517130 f   frontendcamera.obj
 0001:00116d90       ?FreeFrontEndCameraStore@@YAXXZ 005171d0 f   frontendcamera.obj
 0001:00116dc0       ?SetFrontEndCameraDestination@@YAXW4ECameras@@0@Z 00517200 f   frontendcamera.obj
 0001:001173d0       ?UpdateFrontEndCamera@@YAXXZ 00517810 f   frontendcamera.obj
 0001:001174e0       ?InitialiseFrontEnd@@YAHXZ 00517920 f   frontendmain.obj
 0001:00117a50       ?UpdateFrontEndDelay@@YAHXZ 00517e90 f   frontendmain.obj
 0001:00117ae0       ?DrawFrontEnd2@@YAXXZ      00517f20 f   frontendmain.obj
 0001:00117e40       ?FreeFrontEnd@@YAXXZ       00518280 f   frontendmain.obj
 0001:00117f00       ?UpdateFrontEndInitialAnim@@YAHXZ 00518340 f   frontendmain.obj
 0001:00118050       ?UpdateFrontEnd@@YAXXZ     00518490 f   frontendmain.obj
 0001:00118190       ?ChooseAnimationForPodium@@YAXPAUTAG_ACTORINSTANCE@@@Z 005185d0 f   langaugeanimation.obj
 0001:00118260       ?UpdateSylvesterPosition@@YAXPAUTAG_ACTORINSTANCE@@@Z 005186a0 f   langaugeanimation.obj
 0001:001182d0       ?ResetFrontEndAnimPath@@YAXPAUTAG_ACTORINSTANCE@@PAD@Z 00518710 f   frontendanimation.obj
 0001:001182d0       ?ResetAnimPathToStart@@YAXPAUTAG_ACTORINSTANCE@@PAD@Z 00518710 f   langaugeanimation.obj
 0001:00118310       ?GetNextFlag@@YA?AW4LS_USA_FLAGS@@HH@Z 00518750 f   langaugeanimation.obj
 0001:001183a0       ?ChooseCatchAnimForSylvester@@YAPAU_TBActorAnimSegment@@PAUTAG_ACTORINSTANCE@@@Z 005187e0 f   langaugeanimation.obj
 0001:001184f0       ?InitialiseLanguageAnimationPaths@@YAHXZ 00518930 f   langaugeanimation.obj
 0001:00118860       ?ChoosePathAnimationToPlay@@YAXXZ 00518ca0 f   langaugeanimation.obj
 0001:00118ac0       ?ChooseSylvesterAnimationToPlay@@YAXPAUTAG_ACTORINSTANCE@@@Z 00518f00 f   langaugeanimation.obj
 0001:00119070       ?UpdatePathAnimation@@YAXPAUTAG_ACTORINSTANCE@@@Z 005194b0 f   langaugeanimation.obj
 0001:001190b0       ?PrepLanguageSelect@@YAHXZ 005194f0 f   languagemain.obj
 0001:001190e0       ?DrawLanguageSelect@@YAHXZ 00519520 f   languagemain.obj
 0001:00119120       ?FreeLanguageSelect@@YAHXZ 00519560 f   languagemain.obj
 0001:00119260       ?SwitchLanguage@@YAXXZ     005196a0 f   languagemain.obj
 0001:001192f0       ?ChooseLanguagePage@@YAXXZ 00519730 f   languagemain.obj
 0001:00119430       ?InitialiseLanguageSelect@@YAHHD@Z 00519870 f   languagemain.obj
 0001:0011a6b0       ?UpdateLanguageSelect@@YAHXZ 0051aaf0 f   languagemain.obj
 0001:0011ad00       ?InitialisePromptBookInfo@@YAXXZ 0051b140 f   prompt.obj
 0001:0011ad20       ?CreatePromtBook@@YAHW4EPromptBookStyle@@W4EStringIndex@@@Z 0051b160 f   prompt.obj
 0001:0011ae70       ?KillPromptBook@@YAXXZ     0051b2b0 f   prompt.obj
 0001:0011aea0       ?StartHelpForMorons@@YAXXZ 0051b2e0 f   prompt.obj
 0001:0011b310       ?RequestMorronicMessage@@YAHW4EMorronEvent@@M@Z 0051b750 f   prompt.obj
 0001:0011b8b0       ?closePromptBook@@YAXXZ    0051bcf0 f   prompt.obj
 0001:0011b8f0       ?openPromptBook@@YAXXZ     0051bd30 f   prompt.obj
 0001:0011b930       ?FreeHelpForMorons@@YAXXZ  0051bd70 f   prompt.obj
 0001:0011b970       ?CheckIfDisplayingMorronicMessages@@YAHW4EMorronEvent@@@Z 0051bdb0 f   prompt.obj
 0001:0011b9a0       ?CutMorronicMessageDelay@@YAXM@Z 0051bde0 f   prompt.obj
 0001:0011b9c0       ?UpdateHelpForMorons@@YAXXZ 0051be00 f   prompt.obj
 0001:0011bd00       ??0PIE_ZOOM@@QAE@XZ        0051c140 f i thwap.obj
 0001:0011bd50       ??1PAGEITEMEFFECT@@UAE@XZ  0051c190 f i multiplayer.obj
 0001:0011bd50       ??1PIE_SLIDE@@UAE@XZ       0051c190 f i PageItemFX.obj
 0001:0011bd50       ??1PIE_SPIN@@UAE@XZ        0051c190 f i PageItemFX.obj
 0001:0011bd50       ??1PIE_SQUASHY@@UAE@XZ     0051c190 f i PageItemFX.obj
 0001:0011bd50       ??1PIE_ZOOM@@UAE@XZ        0051c190 f i thwap.obj
 0001:0011bd60       ?supportsMode@PIE_ZOOM@@UAE_NW4PIEMode@@@Z 0051c1a0 f i thwap.obj
 0001:0011bd80       ??_GPIE_SQUASHY@@UAEPAXI@Z 0051c1c0 f i PageItemFX.obj
 0001:0011bd80       ??_EPIE_ZOOM@@UAEPAXI@Z    0051c1c0 f i thwap.obj
 0001:0011bd80       ??_GPIE_SPIN@@UAEPAXI@Z    0051c1c0 f i PageItemFX.obj
 0001:0011bd80       ??_GPIE_ZOOM@@UAEPAXI@Z    0051c1c0 f i thwap.obj
 0001:0011bd80       ??_EPIE_SPIN@@UAEPAXI@Z    0051c1c0 f i PageItemFX.obj
 0001:0011bd80       ??_EPIE_SLIDE@@UAEPAXI@Z   0051c1c0 f i PageItemFX.obj
 0001:0011bd80       ??_GPIE_SLIDE@@UAEPAXI@Z   0051c1c0 f i PageItemFX.obj
 0001:0011bd80       ??_EPIE_SQUASHY@@UAEPAXI@Z 0051c1c0 f i PageItemFX.obj
 0001:0011bda0       ?startThwap@@YAXW4EStringIndex@@H@Z 0051c1e0 f   thwap.obj
 0001:0011bfd0       ?getThwapStage@@YA?AW4THWAPSTAGES@@XZ 0051c410 f   thwap.obj
 0001:0011bfe0       ?updateThwap@@YAXXZ        0051c420 f   thwap.obj
 0001:0011c5a0       ?killThwap@@YAXXZ          0051c9e0 f   thwap.obj
 0001:0011c5e0       ?copy@PIE_ZOOM@@UBEPAUPAGEITEMEFFECT@@XZ 0051ca20 f i thwap.obj
 0001:0011c610       ??0PIE_ZOOM@@QAE@ABU0@@Z   0051ca50 f i thwap.obj
 0001:0011c670       ?initThwap@@YAXXZ          0051cab0 f   thwap.obj
 0001:0011ca30       ?init@TAG_PONGDUST@@QAEXABUTAG_VEC@@0@Z 0051ce70 f   PongDust.obj
 0001:0011cb90       ?update@TAG_PONGDUST@@QAEXXZ 0051cfd0 f   PongDust.obj
 0001:0011ccf0       ?draw@TAG_PONGDUST@@QAEX_NQAU_TBPrimVertex2D@@QAI@Z 0051d130 f   PongDust.obj
 0001:0011cdf0       ?PongDust_sceneShutdown@@YAXXZ 0051d230 f   PongDust.obj
 0001:0011cfc0       ?discardOldest@?$LOOPARRAY@UTAG_PONGDUST@@$0BJA@@@QAEXI@Z 0051d400 f i PongDust.obj
 0001:0011d020       ?PongDust_update@@YAXXZ    0051d460 f   PongDust.obj
 0001:0011d0d0       ?getNew@?$LOOPARRAY@UTAG_PONGDUST@@$0BJA@@@QAEPAUTAG_PONGDUST@@I@Z 0051d510 f i PongDust.obj
 0001:0011d170       ?PongDust_sceneInit@@YAXXZ 0051d5b0 f   PongDust.obj
 0001:0011d200       ?PongDust_create@@YAXABUTAG_VEC@@E0M@Z 0051d640 f   PongDust.obj
 0001:0011d430       ?PongDust_create@@YAXQAUTAG_ACTORINSTANCE@@QADEABUTAG_VEC@@M@Z 0051d870 f   PongDust.obj
 0001:0011d680       ?PongDust_draw@@YAXXZ      0051dac0 f   PongDust.obj
 0001:0011d990       ?PongDust_ring@@YAXABUTAG_VEC@@@Z 0051ddd0 f   PongDust.obj
 0001:0011da30       _XQueryValue@20            0051de70 f   xapilib:xvalue.obj
 0001:0011da52       _XGetLanguage@0            0051de92 f   xapilib:xvalue.obj
 0001:0011da77       _XGetVideoStandard@0       0051deb7 f   xapilib:xvalue.obj
 0001:0011daa0       _XGetVideoFlags@0          0051dee0 f   xapilib:xvalue.obj
 0001:0011dae9       _XGetAudioFlags@0          0051df29 f   xapilib:xvalue.obj
 0001:0011db2d       _XGetParentalControlSetting@0 0051df6d f   xapilib:xvalue.obj
 0001:0011db52       _GetDiskFreeSpaceExA@16    0051df92 f   xapilib:pathmisc.obj
 0001:0011dc46       _XapiSelectCachePartition@12 0051e086 f   xapilib:pathmisc.obj
 0001:0011de4a       _XMountUtilityDrive@4      0051e28a f   xapilib:pathmisc.obj
 0001:0011df4f       _XUnmountAlternateTitleA@4 0051e38f f   xapilib:pathmisc.obj
 0001:0011dfac       _XMUNameFromDriveLetter@12 0051e3ec f   xapilib:pathmisc.obj
 0001:0011e087       _XWriteTitleInfoNoReboot@20 0051e4c7 f   xapilib:launch.obj
 0001:0011e161       _XGetLaunchInfo@8          0051e5a1 f   xapilib:launch.obj
 0001:0011e1c5       _XWriteTitleInfoAndRebootA@20 0051e605 f   xapilib:launch.obj
 0001:0011e20a       _XLaunchNewImageA@8        0051e64a f   xapilib:launch.obj
 0001:0011e31d       _mainXapiStartup@4         0051e75d f   xapilib:xapi0.obj
 0001:0011e38c       _mainCRTStartup            0051e7cc f   xapilib:xapi0.obj
 0001:0011e3fe       _GetLastError@0            0051e83e f   xapilib:error.obj
 0001:0011e426       _SetLastError@4            0051e866 f   xapilib:error.obj
 0001:0011e454       _XapiSetLastNTError@4      0051e894 f   xapilib:error.obj
 0001:0011e46b       _GetOverlappedResult@16    0051e8ab f   xapilib:error.obj
 0001:0011e4d0       _RtlpCreateUnCommittedRange@4 0051e910 f   xapilib:heap.obj
 0001:0011e5f0       _RtlpDestroyUnCommittedRange@8 0051ea30 f   xapilib:heap.obj
 0001:0011e611       _RtlpInsertUnCommittedPages@12 0051ea51 f   xapilib:heap.obj
 0001:0011e6a4       _RtlpFindAndCommitPages@16 0051eae4 f   xapilib:heap.obj
 0001:0011e82f       _RtlpCoalesceFreeBlocks@16 0051ec6f f   xapilib:heap.obj
 0001:0011ead4       _RtlpInsertFreeBlock@12    0051ef14 f   xapilib:heap.obj
 0001:0011ebce       _RtlpGetExtraStuffPointer@4 0051f00e f   xapilib:heap.obj
 0001:0011ebea       _RtlpGrowBlockInPlace@20   0051f02a f   xapilib:heap.obj
 0001:0011efe8       _RtlSizeHeap@12            0051f428 f   xapilib:heap.obj
 0001:0011f017       _RtlpInitializeHeapSegment@28 0051f457 f   xapilib:heap.obj
 0001:0011f135       _RtlpExtendHeap@8          0051f575 f   xapilib:heap.obj
 0001:0011f2bc       _RtlpDeCommitFreeBlock@12  0051f6fc f   xapilib:heap.obj
 0001:0011f566       _RtlCreateHeap@24          0051f9a6 f   xapilib:heap.obj
 0001:0011f98a       _RtlAllocateHeap@12        0051fdca f   xapilib:heap.obj
 0001:0012010c       _RtlFreeHeap@12            0052054c f   xapilib:heap.obj
 0001:001202dc       _RtlReAllocateHeap@16      0052071c f   xapilib:heap.obj
 0001:001209b3       _HeapFree@12               00520df3 f   xapilib:xapiheap.obj
 0001:001209ca       _GetProcessHeap@0          00520e0a f   xapilib:xapiheap.obj
 0001:001209d0       _LocalAlloc@8              00520e10 f   xapilib:xapiheap.obj
 0001:001209ed       _LocalFree@4               00520e2d f   xapilib:xapiheap.obj
 0001:00120a0b       _XapiValidateDiskPartitionEx@8 00520e4b f   xapilib:xapiinit.obj
 0001:00120a83       _XapiCopySectionToFile@16  00520ec3 f   xapilib:xapiinit.obj
 0001:00120b6a       _XapiMapLetterToDirectory@24 00520faa f   xapilib:xapiinit.obj
 0001:00120e9e       _XapiSetupPerTitleDriveLetters@8 005212de f   xapilib:xapiinit.obj
 0001:00120ef3       _XapiBootToDash@12         00521333 f   xapilib:xapiinit.obj
 0001:00120f58       _XapiVerifyMediaInDrive@0  00521398 f   xapilib:xapiinit.obj
 0001:00121036       _XapiValidateDiskPartition@4 00521476 f   xapilib:xapiinit.obj
 0001:00121047       _XapiInitProcess@0         00521487 f   xapilib:xapiinit.obj
 0001:00121168       _XapiFormatFATVolumeEx@8   005215a8 f   xapilib:format.obj
 0001:0012147e       _lstrcpynW@12              005218be f   xapilib:lcompat.obj
 0001:001214ea       _lstrcmpiA@8               0052192a f   xapilib:lcompata.obj
 0001:0012152f       _lstrcpynA@12              0052196f f   xapilib:lcompata.obj
 0001:00121594       __cinit@0                  005219d4 f   xapilib:xapi0dat.obj
 0001:001215ec       __rtinit@0                 00521a2c f   xapilib:xapi0dat.obj
 0001:00121616       _CloseHandle@4             00521a56 f   xapilib:handle.obj
 0001:00121634       _XapiCallThreadNotifyRoutines@4 00521a74 f   xapilib:thread.obj
 0001:0012166c       _UnhandledExceptionFilter@4 00521aac f   xapilib:thread.obj
 0001:00121689       _RaiseException@16         00521ac9 f   xapilib:thread.obj
 0001:001216df       _XapiDispatchAPC@12        00521b1f f   xapilib:thread.obj
 0001:001216ea       _QueueUserAPC@12           00521b2a f   xapilib:thread.obj
 0001:0012170f       _SwitchToThread@0          00521b4f f   xapilib:thread.obj
 0001:00121722       _SetUnhandledExceptionFilter@4 00521b62 f   xapilib:thread.obj
 0001:00121734       _XRegisterThreadNotifyRoutine@8 00521b74 f   xapilib:thread.obj
 0001:0012177d       _XapiThreadStartup@8       00521bbd f   xapilib:thread.obj
 0001:00121815       _CreateThread@24           00521c55 f   xapilib:thread.obj
 0001:00121883       _GetCurrentThreadId@0      00521cc3 f   xapilib:thread.obj
 0001:00121890       _XapiFormatObjectAttributes@12 00521cd0 f   xapilib:support.obj
 0001:001218b8       _XapiFormatTimeOut@8       00521cf8 f   xapilib:support.obj
 0001:001218e6       _CreateEventA@16           00521d26 f   xapilib:synch.obj
 0001:00121947       _SetEvent@4                00521d87 f   xapilib:synch.obj
 0001:00121967       _ResetEvent@4              00521da7 f   xapilib:synch.obj
 0001:00121985       _CreateMutexA@12           00521dc5 f   xapilib:synch.obj
 0001:001219dd       _ReleaseMutex@4            00521e1d f   xapilib:synch.obj
 0001:001219fd       _WaitForSingleObjectEx@12  00521e3d f   xapilib:synch.obj
 0001:00121a41       _SleepEx@8                 00521e81 f   xapilib:synch.obj
 0001:00121a93       _WaitForSingleObject@8     00521ed3 f   xapilib:synch.obj
 0001:00121aa5       _Sleep@4                   00521ee5 f   xapilib:synch.obj
 0001:00121ac0       @RtlFindFirstSetRightMember@4 00521f00 f   xapilib:bitmapa.obj
 0001:00121ac4       _XGetSectionHandleA@4      00521f04 f   xapilib:xemodule.obj
 0001:00121b2b       _XLoadSectionByHandle@4    00521f6b f   xapilib:xemodule.obj
 0001:00121b4c       _XFreeSectionByHandle@4    00521f8c f   xapilib:xemodule.obj
 0001:00121b6a       _XLoadSectionA@4           00521faa f   xapilib:xemodule.obj
 0001:00121b85       _XFreeSectionA@4           00521fc5 f   xapilib:xemodule.obj
 0001:00121ba0       _XGetSectionSize@4         00521fe0 f   xapilib:xemodule.obj
 0001:00121baa       _XAutoPowerDownResetTimer@0 00521fea f   xapilib:powerdwn.obj
 0001:00121bc5       _XapiAutoPowerDownTimeout@16 00522005 f   xapilib:powerdwn.obj
 0001:00121bd7       _XapiInitAutoPowerDown@0   00522017 f   xapilib:powerdwn.obj
 0001:00121c41       _xCompareStringA@20        00522081 f   xapilib:compstra.obj
 0001:00121dca       ??_ECMcpxAPU@DirectSound@@W7AEPAXI@Z 0052220a f i dsound:mcpapu.obj
 0001:00121dd2       _ExQueryNonVolatileSetting@20 00522212 f   xboxkrnl:xboxkrnl.exe
 0001:00121dd8       _DbgPrint                  00522218 f   xboxkrnl:xboxkrnl.exe
 0001:00121de0       ?bInitActor@@YAHXZ         00522220 f   bActor:actor.obj
 0001:00121e30       ?bShutdownActor@@YAXXZ     00522270 f   bActor:actor.obj
 0001:00122030       ?baFreeActorInstance@@YAXPAU_TBActorInstance@@@Z 00522470 f   bActor:actor.obj
 0001:00122260       ?bLoadActorByCRC@@YAPAU_TBActor@@PAU_TBPackageIndex@@I@Z 005226a0 f   bActor:actor.obj
 0001:00122520       ?baPrepActorInstance@@YAXPAU_TBActorInstance@@H@Z 00522960 f   bActor:actor.obj
 0001:00122690       ?baDrawActorInstance@@YAHPAU_TBActorInstance@@HH@Z 00522ad0 f   bActor:actor.obj
 0001:00122790       ?bDeleteActor@@YAXPAU_TBActor@@@Z 00522bd0 f   bActor:actor.obj
 0001:001227d0       ?baSetNodeFrame@@YAXPAU_TBActorInstance@@PAU_TBActorNodeInstance@@IH@Z 00522c10 f   bActor:actor.obj
 0001:001228c0       ?baSetNodeBlend@@YAXPAU_TBActorInstance@@PAU_TBActorNodeInstance@@IIMH@Z 00522d00 f   bActor:actor.obj
 0001:00122a70       ?baSetNodeBlendValue@@YAXPAU_TBActorInstance@@PAU_TBActorNodeInstance@@MH@Z 00522eb0 f   bActor:actor.obj
 0001:00122fd0       ?baQueueNodeAnim@@YAXPAU_TBActorInstance@@PAU_TBActorNodeInstance@@EPAU_TBActorAnimSegment@@2HHHHMIP6AHW4EBQueueCallbackReason@@012PAX@Z4H@Z 00523410 f   bActor:actor.obj
 0001:00123270       ?baQueueNodeAnimNormal@@YAXPAU_TBActorInstance@@PAU_TBActorNodeInstance@@PAU_TBActorAnimSegment@@HHIP6AHW4EBQueueCallbackReason@@012PAX@Z4H@Z 005236b0 f   bActor:actor.obj
 0001:00123320       ?baQueueNodeAnimBlend@@YAXPAU_TBActorInstance@@PAU_TBActorNodeInstance@@PAU_TBActorAnimSegment@@2HHHHMIP6AHW4EBQueueCallbackReason@@012PAX@Z4H@Z 00523760 f   bActor:actor.obj
 0001:001233e0       ?baQueueNodeAnimBlendState@@YAXPAU_TBActorInstance@@PAU_TBActorNodeInstance@@PAU_TBActorAnimSegment@@HHMIP6AHW4EBQueueCallbackReason@@012PAX@Z4H@Z 00523820 f   bActor:actor.obj
 0001:00123490       ?baQueueNodeAnimBlendToNode@@YAXPAU_TBActorInstance@@PAU_TBActorNodeInstance@@1MIP6AHW4EBQueueCallbackReason@@01PAU_TBActorAnimSegment@@PAX@Z4@Z 005238d0 f   bActor:actor.obj
 0001:00123630       ?baRetargetActorAnimation@@YAXPAU_TBActor@@PAU_TBActorInstance@@@Z 00523a70 f   bActor:actor.obj
 0001:00123660       ?baFindNodeByCRC@@YAPAU_TBActorNodeInstance@@PAU1@I@Z 00523aa0 f   bActor:actor.obj
 0001:001236b0       ?baFindNode@@YAPAU_TBActorNodeInstance@@PAU1@PAD@Z 00523af0 f   bActor:actor.obj
 0001:001236d0       ?baFindAnimSegmentByCRC@@YAPAU_TBActorAnimSegment@@PAU_TBActorInstance@@I@Z 00523b10 f   bActor:actor.obj
 0001:00123710       ?baFindAnimSegment@@YAPAU_TBActorAnimSegment@@PAU_TBActorInstance@@PAD@Z 00523b50 f   bActor:actor.obj
 0001:00123760       ?baSetActorRenderMode@@YAXPAU_TBActorInstance@@HW4EBActRenderMode@@PAX@Z 00523ba0 f   bActor:actor.obj
 0001:00123780       ?baSetGlobalAlpha@@YAXH@Z  00523bc0 f   bActor:actor.obj
 0001:00124100       ?baGetActorGeometry@@YAPAXPAU_TBActorInstance@@PAU_TBActorNodeInstance@@HPAH22PAXI@Z 00524540 f   bActor:actor.obj
 0001:00124280       ?baSetActorNodeFlags@@YAXPAU_TBActorInstance@@PAU_TBActorNodeInstance@@IIH@Z 005246c0 f   bActor:actor.obj
 0001:00124320       ?baIsActorAnimPlaying@@YAHPAU_TBActorInstance@@PAU_TBActorNodeInstance@@HPAPAU_TBActorAnimSegment@@@Z 00524760 f   bActor:actor.obj
 0001:001243f0       ?baCopyAnimQueue@@YAXPAU_TBActorInstance@@PAU_TBActorNodeInstance@@01H@Z 00524830 f   bActor:actor.obj
 0001:001244d0       ?baSetAnimQueueFlags@@YAXPAU_TBActorInstance@@PAU_TBActorNodeInstance@@IIHH@Z 00524910 f   bActor:actor.obj
 0001:001245b0       ?bInitActorInstance@@YAPAU_TBActorInstance@@PAU1@PAU_TBActor@@HPADH@Z 005249f0 f   bActor:actor.obj
 0001:00124750       ?baSetNodeBlendTargetValue@@YAXPAU_TBActorInstance@@PAU_TBActorNodeInstance@@IMH@Z 00524b90 f   bActor:actor.obj
 0001:00125d20       ?baUpdateNodes@@YAHPAU_TBActorInstance@@PAU_TBActorNodeInstance@@MQAM@Z 00526160 f   bActor:actor.obj
 0001:00125dc0       ?baFlushNodeQueue@@YAXPAU_TBActorInstance@@PAU_TBActorNodeInstance@@HH@Z 00526200 f   bActor:actor.obj
 0001:00125ef0       ?baGetNodesWorldPosition@@YAXPAU_TBActorInstance@@PAU_TBActorNodeInstance@@QAM2@Z 00526330 f   bActor:actor.obj
 0001:00125f80       ?baNodeLookAt@@YAXPAU_TBActorInstance@@PAU_TBActorNodeInstance@@QAMMMMMMMMI@Z 005263c0 f   bActor:actor.obj
 0001:00126370       ?baNodeLookAtUnconstrained@@YAXPAU_TBActorInstance@@PAU_TBActorNodeInstance@@QAM2MMI@Z 005267b0 f   bActor:actor.obj
 0001:00126540       ?bInitExtras@@YAHXZ        00526980 f   bActor:extras.obj
 0001:00126560       ?baResetExtraSystem@@YAXPAU_TBExtraSystem@@@Z 005269a0 f   bActor:extras.obj
 0001:001267a0       ?baUpdateExtraSystem@@YAXPAU_TBExtraSystem@@M@Z 00526be0 f   bActor:extras.obj
 0001:00126810       ?baRenderExtraSystem@@YAXPAU_TBExtraSystem@@PAX@Z 00526c50 f   bActor:extras.obj
 0001:00126890       ?baDeleteExtraInstance@@YAHPAU_TBExtraSystem@@H@Z 00526cd0 f   bActor:extras.obj
 0001:00126900       ?baCreateExtraSystem@@YAPAU_TBExtraSystem@@PADP6AXPAU1@PAE0@ZP6AX1HPAPAEM@ZP6AH12@ZP6AX1H4PAX@ZP6AX1H@ZHHIH@Z 00526d40 f   bActor:extras.obj
 0001:00126a30       ?baDeleteExtraSystem@@YAXPAU_TBExtraSystem@@@Z 00526e70 f   bActor:extras.obj
 0001:00126aa0       ?baCreateExtra@@YAPAEPAU_TBExtraSystem@@ZZ 00526ee0 f   bActor:extras.obj
 0001:00126b90       ?bShutdownExtras@@YAXXZ    00526fd0 f   bActor:extras.obj
 0001:00126bc0       ?bInitLights@@YAHXZ        00527000 f   bActor:lights.obj
 0001:00126bf0       ?baCreateLight@@YAPAU_TBLightsource@@PAU1@I@Z 00527030 f   bActor:lights.obj
 0001:00126c70       ?baEnableLight@@YAXPAU_TBLightsource@@H@Z 005270b0 f   bActor:lights.obj
 0001:00126d40       ?baSetAmbientLight@@YAXHHH@Z 00527180 f   bActor:lights.obj
 0001:00126d70       ?baSetLightColour@@YAXPAU_TBLightsource@@HHH@Z 005271b0 f   bActor:lights.obj
 0001:00126da0       ?baSetSpecularIntensity@@YAXPAU_TBLightsource@@M@Z 005271e0 f   bActor:lights.obj
 0001:00126dc0       ?baDeleteLight@@YAXPAU_TBLightsource@@@Z 00527200 f   bActor:lights.obj
 0001:00126e40       ?baSetDirectionalLight@@YAXPAU_TBLightsource@@QAM@Z 00527280 f   bActor:lights.obj
 0001:00126e90       ?bInitSet@@YAHXZ           005272d0 f   bActor:set.obj
 0001:00126ea0       ?bShutdownLights@@YAXXZ    005272e0 f   bActor:lights.obj
 0001:00126ea0       ?bShutdownSet@@YAXXZ       005272e0 f   bActor:set.obj
 0001:00126eb0       ?bLoadSetByCRC@@YAPAU_TBSet@@PAU_TBPackageIndex@@I@Z 005272f0 f   bActor:set.obj
 0001:00126f20       ?bDeleteSet@@YAXPAU_TBSet@@@Z 00527360 f   bActor:set.obj
 0001:00126f50       ?baDrawSet@@YAXPAU_TBSet@@H@Z 00527390 f   bActor:set.obj
 0001:00126f70       ?baGetSetGeometry@@YAPAXPAU_TBSet@@HPAH1@Z 005273b0 f   bActor:set.obj
 0001:00126fa0       ?bMatMultiplyTranspose@@YAXPAMQAY03$$CBM1H@Z 005273e0 f   bActor:pcxbActor.obj
 0001:001271d0       ?bSetMatrixPaletteEntry@@YAXPAU_TBActorInstance@@PAU_TBActorNodeInstance@@@Z 00527610 f   bActor:pcxbActor.obj
 0001:00127560       ?bPrepActorNodeList@@YAXPAU_TBActorNodeInstance@@QAY03MQAMPAU_TBActorInstance@@@Z 005279a0 f   bActor:pcxbActor.obj
 0001:00127750       ?bDeleteSoftSkin@@YAXPAU_TBActor@@@Z 00527b90 f   bActor:pcxbActor.obj
 0001:00127770       ?bFixupSoftSkin@@YAXPAU_TBActor@@@Z 00527bb0 f   bActor:pcxbActor.obj
 0001:00127e80       ?bDrawMesh@@YAXPAU_TBMesh@@PAU_TBActorInstance@@HPAU_TBActorNodeInstance@@@Z 005282c0 f   bActor:pcxbActor.obj
 0001:001281f0       ?bSetupActorNodeList@@YAXPAU_TBActorNodeInstance@@PAU_TBActorInstance@@H@Z 00528630 f   bActor:pcxbActor.obj
 0001:00128250       ?bInitCamera@@YAHXZ        00528690 f   bActor:camera.obj
 0001:00128360       ?bUpdateViewFromCamera@@YAHXZ 005287a0 f   bActor:camera.obj
 0001:00128550       ?baDeleteCameraInstance@@YAXPAU_TBCameraInstance@@@Z 00528990 f   bActor:camera.obj
 0001:001285b0       ?bShutdownCamera@@YAXXZ    005289f0 f   bActor:camera.obj
 0001:001285e0       ?baEvalAnimTrack3@@YAXQAMPAU_TBAnimTrack3@@H@Z 00528a20 f   bActor:pcxbAnim.obj
 0001:001287a0       ?baEvalAnimTrack4@@YAXQAMPAU_TBAnimTrack4@@H@Z 00528be0 f   bActor:pcxbAnim.obj
 0001:00128aa0       ?bDrawSoftSkin@@YAXPAU_TBActorInstance@@H@Z 00528ee0 f   bActor:xbActor.obj
 0001:00128be0       ?bDeleteMesh@@YAXPAU_TBActorNode@@@Z 00529020 f   bActor:xbActor.obj
 0001:00129490       ?bFixupMesh@@YAXPAEPAU_TBActorNode@@PAU_TBActor@@@Z 005298d0 f   bActor:xbActor.obj
 0001:00129660       ?bInitSpecLightsource@@YAXPAU_TBLightsource@@@Z 00529aa0 f   bActor:pcxbLights.obj
 0001:001296e0       ?bSetSpecLightInfo@@YAXPAU_TBLightsource@@@Z 00529b20 f   bActor:pcxbLights.obj
 0001:00129870       ?bEnableSpecLight@@YAXPAU_TBLightsource@@@Z 00529cb0 f   bActor:pcxbLights.obj
 0001:00129890       ?bUpdateLightColour@@YAXPAU_TBLightsource@@@Z 00529cd0 f   bActor:pcxbLights.obj
 0001:001298c0       ?bSetAmbientSpecLight@@YAXXZ 00529d00 f   bActor:pcxbLights.obj
 0001:00129930       ?bRegCellsDelete@@YAXPAU_TBSet@@@Z 00529d70 f   bActor:pcxbSet.obj
 0001:00129970       ?bRegCellsFixUp@@YAXPAU_TBSet@@@Z 00529db0 f   bActor:pcxbSet.obj
 0001:00129af0       ?bRegCellsDraw@@YAXPAU_TBSet@@H@Z 00529f30 f   bActor:pcxbSet.obj
 0001:0012a530       ?RegisterData@CBShaderFragment_CartoonShade@@UAEXQBU_TBShaderContext@@@Z 0052a970 f   bActor:pcxbShaderSelector.obj
 0001:0012a670       ?ActivateFragment@CBShaderFragment_Outline@@UAEXQBU_TBShaderContext@@@Z 0052aab0 f   bActor:pcxbShaderSelector.obj
 0001:0012a690       ?RegisterData@CBShaderFragment_Outline@@UAEXQBU_TBShaderContext@@@Z 0052aad0 f   bActor:pcxbShaderSelector.obj
 0001:0012a730       ?DeactivateFragment@CBShaderFragment_Outline@@UAEXQBU_TBShaderContext@@@Z 0052ab70 f   bActor:pcxbShaderSelector.obj
 0001:0012a750       ?ActivateFragment@CBShaderFragment_Shell@@UAEXQBU_TBShaderContext@@@Z 0052ab90 f   bActor:pcxbShaderSelector.obj
 0001:0012a770       ?DeactivateFragment@CBShaderFragment_Shell@@UAEXQBU_TBShaderContext@@@Z 0052abb0 f   bActor:pcxbShaderSelector.obj
 0001:0012a790       ?ActivateFragment@CBShaderFragment_Shadow@@UAEXQBU_TBShaderContext@@@Z 0052abd0 f   bActor:pcxbShaderSelector.obj
 0001:0012a7e0       ?DeactivateFragment@CBShaderFragment_Shadow@@UAEXQBU_TBShaderContext@@@Z 0052ac20 f   bActor:pcxbShaderSelector.obj
 0001:0012a820       ?RegisterData@CBShaderFragment_Shadow@@UAEXQBU_TBShaderContext@@@Z 0052ac60 f   bActor:pcxbShaderSelector.obj
 0001:0012a880       ?RegisterData@CBShaderFragment_ZOnly@@UAEXQBU_TBShaderContext@@@Z 0052acc0 f   bActor:pcxbShaderSelector.obj
 0001:0012a8c0       ?RegisterData@CBShaderFragment_EnvironmentMap@@UAEXQBU_TBShaderContext@@@Z 0052ad00 f   bActor:pcxbShaderSelector.obj
 0001:0012a940       ?RegisterData@CBShaderFragment_AmbientLight@@UAEXQBU_TBShaderContext@@@Z 0052ad80 f   bActor:pcxbShaderSelector.obj
 0001:0012a9a0       ?RegisterData@CBShaderFragment_PointLight@@UAEXQBU_TBShaderContext@@@Z 0052ade0 f   bActor:pcxbShaderSelector.obj
 0001:0012aa90       ?RegisterData@CBShaderFragment_SpotLight@@UAEXQBU_TBShaderContext@@@Z 0052aed0 f   bActor:pcxbShaderSelector.obj
 0001:0012abd0       ?RegisterData@CBShaderFragment_Fog@@UAEXQBU_TBShaderContext@@@Z 0052b010 f   bActor:pcxbShaderSelector.obj
 0001:0012ac70       ?RegisterData@CBShaderFragment_OutColour@@UAEXQBU_TBShaderContext@@@Z 0052b0b0 f   bActor:pcxbShaderSelector.obj
 0001:0012acc0       ?AppendFragment@_TBShaderFragmentList@@QAEIQBU_TBShaderActorDesc@@QAVCBShaderFragment@@@Z 0052b100 f   bActor:pcxbShaderSelector.obj
 0001:0012ad40       ??0CBShaderFragment@@QAE@IIQBD@Z 0052b180 f   bActor:pcxbShaderSelector.obj
 0001:0012ad90       ?AppendFragment@CBShaderFragment@@QAAIQAU_TBShaderActorDesc@@QADZZ 0052b1d0 f   bActor:pcxbShaderSelector.obj
 0001:0012b070       ?baShaderDeselect@@YAXQAU_TBActorInstance@@H@Z 0052b4b0 f   bActor:pcxbShaderSelector.obj
 0001:0012b130       ?baShaderAddLightingState@@YAPAU_TBShaderLightingDesc@@QBU1@@Z 0052b570 f   bActor:pcxbShaderSelector.obj
 0001:0012b1b0       ?baGenerateShader@@YAPAU_TBShaderActorDesc@@QAU_TBShaderLightingDesc@@QBU1@QAU_TBActorInstance@@H@Z 0052b5f0 f   bActor:pcxbShaderSelector.obj
 0001:0012b650       ?ConstantRegistersUsed@CBShaderFragment@@UAEIXZ 0052ba90 f i bActor:pcxbShaderSelector.obj
 0001:0012b660       ?ActivateFragment@CBShaderFragment_CartoonShade@@UAEXQBU_TBShaderContext@@@Z 0052baa0 f   bActor:pcxbShaderSelector.obj
 0001:0012b6f0       ?DeactivateFragment@CBShaderFragment_CartoonShade@@UAEXQBU_TBShaderContext@@@Z 0052bb30 f   bActor:pcxbShaderSelector.obj
 0001:0012b750       ?RegisterData@CBShaderFragment_Shell@@UAEXQBU_TBShaderContext@@@Z 0052bb90 f   bActor:pcxbShaderSelector.obj
 0001:0012b880       ?ActivateFragment@CBShaderFragment_EnvironmentMap@@UAEXQBU_TBShaderContext@@@Z 0052bcc0 f   bActor:pcxbShaderSelector.obj
 0001:0012b9f0       ?DeactivateFragment@CBShaderFragment_EnvironmentMap@@UAEXQBU_TBShaderContext@@@Z 0052be30 f   bActor:pcxbShaderSelector.obj
 0001:0012bab0       ?RegisterData@CBShaderFragment_DirectionalLight@@UAEXQBU_TBShaderContext@@@Z 0052bef0 f   bActor:pcxbShaderSelector.obj
 0001:0012bbe0       ?bInitShaderSelector@@YAXXZ 0052c020 f   bActor:pcxbShaderSelector.obj
 0001:0012c170       ?bShutdownShaderSelector@@YAXXZ 0052c5b0 f   bActor:pcxbShaderSelector.obj
 0001:0012c1a0       ?baShaderEvaluateLightingState@@YAHXZ 0052c5e0 f   bActor:pcxbShaderSelector.obj
 0001:0012c240       ?baShaderSelect@@YAHQAU_TBActorInstance@@HPAU_TBMesh@@@Z 0052c680 f   bActor:pcxbShaderSelector.obj
 0001:0012c3d0       ?bInitShaderSelectorPlatformSpecific@@YAXXZ 0052c810 f   bActor:xbShaderSelector.obj
 0001:0012c4a0       ?bShutdownShaderSelectorPlatformSpecific@@YAXXZ 0052c8e0 f   bActor:xbShaderSelector.obj
 0001:0012c530       ?bAssembleShader@@YAXPAU_TBShaderActorDesc@@PAU_TBActorInstance@@@Z 0052c970 f   bActor:xbShaderSelector.obj
 0001:0012c880       ?bdSetViewPosition@@YAXMMM@Z 0052ccc0 f   bDisplay:xbViewport.obj
 0001:0012c8a0       ?bdSetViewOrientation@@YAXMMMW4EBViewportRotationOrder@@@Z 0052cce0 f   bDisplay:xbViewport.obj
 0001:0012c9e0       ?bdSetViewOrientationFromQuaternion@@YAXQBM@Z 0052ce20 f   bDisplay:xbViewport.obj
 0001:0012ca00       ?bdSetViewLookAt@@YAXQBM0M@Z 0052ce40 f   bDisplay:xbViewport.obj
 0001:0012caf0       ?bdSetupView@@YAXXZ        0052cf30 f   bDisplay:xbViewport.obj
 0001:0012cc10       ?bdSetIdentityObjectMatrix@@YAXXZ 0052d050 f   bDisplay:xbViewport.obj
 0001:0012cc90       ?bdSetObjectMatrix@@YAXQAY03$$CBM@Z 0052d0d0 f   bDisplay:xbViewport.obj
 0001:0012cd60       ?bCalcOrthoProjectionMatrix@@YAXXZ 0052d1a0 f   bDisplay:xbViewport.obj
 0001:0012ce20       ?bCalcPerspProjectionMatrix@@YAXXZ 0052d260 f   bDisplay:xbViewport.obj
 0001:0012cf00       ?bdSetProjectionMode@@YAXIH@Z 0052d340 f   bDisplay:xbViewport.obj
 0001:0012cfb0       ?bdProjectClipVertices@@YAXQAMQBMHQAH2@Z 0052d3f0 f   bDisplay:xbViewport.obj
 0001:0012d170       ?bdProjectVertices@@YAXQAMQBMH@Z 0052d5b0 f   bDisplay:xbViewport.obj
 0001:0012d250       ?bdXFormWorldToView@@YAXQAMQBMH@Z 0052d690 f   bDisplay:xbViewport.obj
 0001:0012d280       ?bdTestBBVisibility@@YAHQAY03$$CBMMMMMMM@Z 0052d6c0 f   bDisplay:xbViewport.obj
 0001:0012d880       ?bdTestSphereVisibility@@YAHQAMM@Z 0052dcc0 f   bDisplay:xbViewport.obj
 0001:0012d950       ?bdWorldToScreenSizeXY@@YAMQBMMMQAM1@Z 0052dd90 f   bDisplay:xbViewport.obj
 0001:0012da20       ?bdWorldToScreenSizeX@@YAMQBMMQAM@Z 0052de60 f   bDisplay:xbViewport.obj
 0001:0012dad0       ?bdSetZBias@@YAXM@Z        0052df10 f   bDisplay:xbViewport.obj
 0001:0012db20       ?bdGetObjectMatrix@@YAXQAY03M@Z 0052df60 f   bDisplay:xbViewport.obj
 0001:0012db50       ?bdSetClipRectangle@@YAXHHHH@Z 0052df90 f   bDisplay:xbViewport.obj
 0001:0012de40       ?bdSetViewClipPlanes@@YAXMM@Z 0052e280 f   bDisplay:xbViewport.obj
 0001:0012de70       ?bdSetViewport@@YAXHHHH@Z  0052e2b0 f   bDisplay:xbViewport.obj
 0001:0012e3c0       ?bdSetFOV@@YAXMM@Z         0052e800 f   bDisplay:xbViewport.obj
 0001:0012e430       ?bdGetRenderTargetInfo@@YAXPAU_TBRenderTarget@@PAH111@Z 0052e870 f   bDisplay:xbRender.obj
 0001:0012e480       ?bdLockRenderState@@YAHH@Z 0052e8c0 f   bDisplay:xbRender.obj
 0001:0012e4a0       ?bdUnlockRenderState@@YAHH@Z 0052e8e0 f   bDisplay:xbRender.obj
 0001:0012e4c0       ?bSetDefaultRenderStates@@YAXXZ 0052e900 f   bDisplay:xbRender.obj
 0001:0012e600       ?bdSetRenderState@@YAXIII@Z 0052ea40 f   bDisplay:xbRender.obj
 0001:0012e860       ?bdSetFogRange@@YAXMM@Z    0052eca0 f   bDisplay:xbRender.obj
 0001:0012e8b0       ?bdSetFogColour@@YAXHHH@Z  0052ecf0 f   bDisplay:xbRender.obj
 0001:0012e900       ?bSetGlobalAlpha@@YAXH@Z   0052ed40 f   bDisplay:xbRender.obj
 0001:0012e920       ?bdCreateRenderTarget@@YAPAU_TBRenderTarget@@HHHHI@Z 0052ed60 f   bDisplay:xbRender.obj
 0001:0012edf0       ?bdSetRenderTarget@@YAHPAU_TBRenderTarget@@HHHHMI@Z 0052f230 f   bDisplay:xbRender.obj
 0001:0012f060       ?bdSetRenderTargetAsTexture@@YAHPAU_TBRenderTarget@@H@Z 0052f4a0 f   bDisplay:xbRender.obj
 0001:0012f140       ?bdDeleteRenderTarget@@YAXPAU_TBRenderTarget@@@Z 0052f580 f   bDisplay:xbRender.obj
 0001:0012f270       ?bInitDisplay@@YAHXZ       0052f6b0 f   bDisplay:xbDisplay.obj
 0001:0012f340       ?bShutdownDisplay@@YAXXZ   0052f780 f   bDisplay:xbDisplay.obj
 0001:0012f390       ?bdGetDisplayInfo@@YAXPAH000@Z 0052f7d0 f   bDisplay:xbDisplay.obj
 0001:0012f3e0       ?bdClear@@YAXHHHHMHI@Z     0052f820 f   bDisplay:xbDisplay.obj
 0001:0012f460       ?bGetDisplayFrequency@@YAHXZ 0052f8a0 f   bDisplay:xbDisplay.obj
 0001:0012f480       ?bStartDisplay@@YAHXZ      0052f8c0 f   bDisplay:xbDisplay.obj
 0001:0012f940       ?bStopDisplay@@YAXH@Z      0052fd80 f   bDisplay:xbDisplay.obj
 0001:0012f990       ?bdCloseDisplay@@YAXXZ     0052fdd0 f   bDisplay:xbDisplay.obj
 0001:0012f9d0       ?bdFlip@@YAXHHHHH@Z        0052fe10 f   bDisplay:xbDisplay.obj
 0001:0012fb20       ?bdBeginScene@@YAHXZ       0052ff60 f   bDisplay:xbDisplay.obj
 0001:0012fb40       ?bdEndScene@@YAXXZ         0052ff80 f   bDisplay:xbDisplay.obj
 0001:0012fb60       ?bLockSurface@@YAPAXPAUD3DSurface@@PAH1111@Z 0052ffa0 f   bDisplay:xbDisplay.obj
 0001:0012fca0       ?bSaveSurfaceAsBMP@@YAHPAUD3DSurface@@PAD@Z 005300e0 f   bDisplay:xbDisplay.obj
 0001:00130160       ?bdScreenshot@@YAHPAD@Z    005305a0 f   bDisplay:xbDisplay.obj
 0001:001301a0       ?bdDoDummyPresent@@YAXXZ   005305e0 f   bDisplay:xbDisplay.obj
 0001:00130230       ?bdOpenDisplay@@YAHHHHHI@Z 00530670 f   bDisplay:xbDisplay.obj
 0001:001303d0       ?bGetVertexSize@@YAHH@Z    00530810 f   bDisplay:xbDrawprim.obj
 0001:001306a0       ?bSetVertexShader@@YAXHPAU_TBVertexBuffer@@@Z 00530ae0 f   bDisplay:xbDrawprim.obj
 0001:00130710       ?bdGetPolyCount@@YAHXZ     00530b50 f   bDisplay:xbDrawprim.obj
 0001:001308f0       ?bdDrawPrimitive@@YAXIPAU_TBPrimVertex@@H@Z 00530d30 f   bDisplay:xbDrawprim.obj
 0001:00130980       ?bdDrawPrimitive@@YAXIPAU_TBPrimVertex2D@@H@Z 00530dc0 f   bDisplay:xbDrawprim.obj
 0001:00130a10       ?bdDrawPrimitive@@YAXIPAXHI@Z 00530e50 f   bDisplay:xbDrawprim.obj
 0001:00130ac0       ?bdVertexBufferCreate@@YAHPAPAU_TBVertexBuffer@@HIIH@Z 00530f00 f   bDisplay:xbDrawprim.obj
 0001:00130c10       ?bdVertexBufferDestroy@@YAXPAU_TBVertexBuffer@@@Z 00531050 f   bDisplay:xbDrawprim.obj
 0001:00130cd0       ?bdVertexBufferLock@@YAPAXPAU_TBVertexBuffer@@I@Z 00531110 f   bDisplay:xbDrawprim.obj
 0001:00130d50       ?bdVertexBufferUnlock@@YAXPAU_TBVertexBuffer@@@Z 00531190 f   bDisplay:xbDrawprim.obj
 0001:00130d70       ?bdDrawFixedFlatSprite@@YAHQAMMMMPAU_TBTexture@@HHHHHHPAU_TBPrimVertex2D@@M@Z 005311b0 f   bDisplay:xbDrawprim.obj
 0001:001310b0       ?bdDrawFixedStreak@@YAHQAMMMPAH0MM1PAU_TBTexture@@PAU_TBPrimVertex2D@@M@Z 005314f0 f   bDisplay:xbDrawprim.obj
 0001:00131630       ?bdDrawFixedMultiStreak@@YAHHQAMPAMPAHPAU_TBPrimVertex2D@@M@Z 00531a70 f   bDisplay:xbDrawprim.obj
 0001:00131c90       ?bdIndexBufferDestroy@@YAXPAU_TBIndexBuffer@@@Z 005320d0 f   bDisplay:xbDrawprim.obj
 0001:00131cc0       ?bdDrawFlatSprite@@YAHQAMMMMPAU_TBTexture@@HHHHHHPAU_TBPrimVertex2D@@M@Z 00532100 f   bDisplay:xbDrawprim.obj
 0001:00131d40       ?bdDrawStreak@@YAHQAMMMPAH0MM1PAU_TBTexture@@PAU_TBPrimVertex2D@@M@Z 00532180 f   bDisplay:xbDrawprim.obj
 0001:00131df0       ?bdDrawMultiStreak@@YAHHQAMPAM1PAHPAU_TBPrimVertex2D@@M@Z 00532230 f   bDisplay:xbDrawprim.obj
 0001:00131e70       ?bdDrawStreakClipped@@YAHQAMMMPAH0MM1PAU_TBTexture@@PAU_TBPrimVertex2D@@M@Z 005322b0 f   bDisplay:xbDrawprim.obj
 0001:00132240       ?bdDrawMultiStreakClipped@@YAHHQAMPAM1PAHPAU_TBPrimVertex2D@@M@Z 00532680 f   bDisplay:xbDrawprim.obj
 0001:00132a90       ?bTextureShutdown@@YAXXZ   00532ed0 f   bDisplay:xbTexture.obj
 0001:00132aa0       ?bdSetTextureFrame@@YAHPAU_TBTexture@@H@Z 00532ee0 f   bDisplay:xbTexture.obj
 0001:00132ae0       ?bdGetTextureInfo@@YAXPAU_TBTexture@@PAH1PAW4EBTextureFormat@@11@Z 00532f20 f   bDisplay:xbTexture.obj
 0001:00132b30       ?bdSetNoTexture@@YAXH@Z    00532f70 f   bDisplay:xbTexture.obj
 0001:00132bc0       ?bdDisableTextureMatrix@@YAHH@Z 00533000 f   bDisplay:xbTexture.obj
 0001:00132c50       ?bdSetTextureLinearMatrix@@YAHHQAY03$$CBM@Z 00533090 f   bDisplay:xbTexture.obj
 0001:00132d20       ?bdDisableTextureLinearMatrix@@YAHH@Z 00533160 f   bDisplay:xbTexture.obj
 0001:00132dd0       ?bFixupTexture@@YAXPAU_TBTexture@@@Z 00533210 f   bDisplay:xbTexture.obj
 0001:00132fd0       ?bLoadTextureByCRC@@YAPAU_TBTexture@@PAU_TBPackageIndex@@I@Z 00533410 f   bDisplay:xbTexture.obj
 0001:00133000       ?bDeleteTexture@@YAXPAU_TBTexture@@@Z 00533440 f   bDisplay:xbTexture.obj
 0001:00133060       ?bdLockTexture@@YAPAXPAU_TBTexture@@HPAH11PAW4EBTextureFormat@@PAPAE@Z 005334a0 f   bDisplay:xbTexture.obj
 0001:001330e0       ?bdScrollTexture@@YAXPAU_TBTexture@@0MM@Z 00533520 f   bDisplay:xbTexture.obj
 0001:00133300       ?bdSetTexture@@YAHHPAU_TBTexture@@@Z 00533740 f   bDisplay:xbTexture.obj
 0001:00133500       ?bPrintFontVerts@@YAHPAU_TBPrimVertex@@PAU_TBFontLineInfo@@PBU_TBFont@@PBGHPBU_TBFontFormatting@@HHHHP6AHW4EBFontCallbackReason@@PAU_TBFontCallbackInfo@@@ZPAX@Z 00533940 f   bDisplay:font.obj
 0001:00133e70       ?bdFontExtent@@YAXPBU_TBFont@@PBGHPAM2P6AHW4EBFontCallbackReason@@PAU_TBFontCallbackInfo@@@ZPAX@Z 005342b0 f   bDisplay:font.obj
 0001:00133ef0       ?bInitFont@@YAXXZ          00534330 f   bDisplay:xbFont.obj
 0001:00133f20       ?bShutdownFont@@YAXXZ      00534360 f   bDisplay:xbFont.obj
 0001:00133f40       ?bLoadFontByCRC@@YAPAU_TBFont@@PAU_TBPackageIndex@@I@Z 00534380 f   bDisplay:xbFont.obj
 0001:00133fa0       ?bDeleteFont@@YAXPAU_TBFont@@@Z 005343e0 f   bDisplay:xbFont.obj
 0001:00133fd0       ?bdFontFormattedRect@@YAHPAMPBU_TBFont@@PBGHPBU_TBFontFormatting@@P6AHW4EBFontCallbackReason@@PAU_TBFontCallbackInfo@@@ZPAX@Z 00534410 f   bDisplay:xbFont.obj
 0001:001344e0       ?bdPrintFont@@YAXPBU_TBFont@@PBGHPBU_TBFontFormatting@@HHHHP6AHW4EBFontCallbackReason@@PAU_TBFontCallbackInfo@@@ZPAX@Z 00534920 f   bDisplay:xbFont.obj
 0001:00134520       ?bdPrintFontLite@@YAXPBU_TBFont@@PBGHMMHHHHP6AHW4EBFontCallbackReason@@PAU_TBFontCallbackInfo@@@ZPAX@Z 00534960 f   bDisplay:xbFont.obj
 0001:00134570       ?bSetInitialRenderStates@@YAXH@Z 005349b0 f   bDisplay:render.obj
 0001:00134630       ?bdPushRenderState@@YAXIII@Z 00534a70 f   bDisplay:render.obj
 0001:00134680       ?bdPopRenderState@@YAXI@Z  00534ac0 f   bDisplay:render.obj
 0001:001346c0       ?bdSaveRenderStates@@YAXPAU_TBSavedRenderStates@@@Z 00534b00 f   bDisplay:render.obj
 0001:001346e0       ?bdRestoreRenderStates@@YAXPAU_TBSavedRenderStates@@@Z 00534b20 f   bDisplay:render.obj
 0001:00134720       ?Print@CBConsoleWindow@@QAEXXZ 00534b60 f   bDisplay:consoleWindow.obj
 0001:001347d0       ?Render@CBConsoleWindow@@QAEXXZ 00534c10 f   bDisplay:consoleWindow.obj
 0001:00134970       ?bdConsoleWindowPrintf@@YAXPADZZ 00534db0 f   bDisplay:consoleWindow.obj
 0001:001349a0       ?bdFormatConsoleWindow@@YAXHHH@Z 00534de0 f   bDisplay:consoleWindow.obj
 0001:001349e0       ?bdSetConsoleWindowFont@@YAXPAU_TBFont@@MHHHH@Z 00534e20 f   bDisplay:consoleWindow.obj
 0001:00134a40       ?bdShowConsoleWindow@@YAXH@Z 00534e80 f   bDisplay:consoleWindow.obj
 0001:00134a60       ?bRenderConsoleWindow@@YAXXZ 00534ea0 f   bDisplay:consoleWindow.obj
 0001:00134a80       ??0CBConsoleWindow@@QAE@XZ 00534ec0 f   bDisplay:consoleWindow.obj
 0001:00134b70       ?bdEnableConsoleWindow@@YAXH@Z 00534fb0 f   bDisplay:consoleWindow.obj
 0001:00134c30       ??0CBGraphBase@@QAE@HHHM@Z 00535070 f   bDisplay:frametimegraph.obj
 0001:00134e20       ??1CBFrameTimeGraph@@UAE@XZ 00535260 f   bDisplay:frametimegraph.obj
 0001:00134e20       ??1CBMemoryGraph@@UAE@XZ   00535260 f   bDisplay:frametimegraph.obj
 0001:00134e20       ??1CBGraphBase@@UAE@XZ     00535260 f   bDisplay:frametimegraph.obj
 0001:00134e40       ?Render@CBGraphBase@@UAEXXZ 00535280 f   bDisplay:frametimegraph.obj
 0001:00134ff0       ??0CBFrameTimeGraph@@QAE@XZ 00535430 f   bDisplay:frametimegraph.obj
 0001:00135070       ?Render@CBFrameTimeGraph@@UAEXXZ 005354b0 f   bDisplay:frametimegraph.obj
 0001:001350d0       ??0CBMemoryGraph@@QAE@W4EBMemoryGraphType@@HHHHH@Z 00535510 f   bDisplay:frametimegraph.obj
 0001:00135120       ?Render@CBMemoryGraph@@UAEXXZ 00535560 f   bDisplay:frametimegraph.obj
 0001:00135200       ?bRenderGraphs@@YAXXZ      00535640 f   bDisplay:frametimegraph.obj
 0001:00135230       ??_ECBMemoryGraph@@UAEPAXI@Z 00535670 f i bDisplay:frametimegraph.obj
 0001:00135230       ??_ECBFrameTimeGraph@@UAEPAXI@Z 00535670 f i bDisplay:frametimegraph.obj
 0001:00135230       ??_GCBFrameTimeGraph@@UAEPAXI@Z 00535670 f i bDisplay:frametimegraph.obj
 0001:00135230       ??_GCBMemoryGraph@@UAEPAXI@Z 00535670 f i bDisplay:frametimegraph.obj
 0001:00135250       ?bdEnableFrameTimeGraph@@YAXH@Z 00535690 f   bDisplay:frametimegraph.obj
 0001:00135300       ?bdEnableMemoryGraph@@YAXHW4EBMemoryGraphType@@HH@Z 00535740 f   bDisplay:frametimegraph.obj
 0001:00135440       ?bdVideoFindFreeWMVPacket@@YAHPAK@Z 00535880 f   bDisplay:xbVideo.obj
 0001:001354a0       ?bdVideoInitWMV@@YAJXZ     005358e0 f   bDisplay:xbVideo.obj
 0001:00135560       ?bdVideoCloseWMV@@YAJXZ    005359a0 f   bDisplay:xbVideo.obj
 0001:00135600       ?bdVideoDecodeWMV@@YAJXZ   00535a40 f   bDisplay:xbVideo.obj
 0001:00135760       ?bdVideoGetWMVTexture@@YAJPAUD3DTexture@@@Z 00535ba0 f   bDisplay:xbVideo.obj
 0001:001357e0       ?bdVideoOpenWMV@@YAJPAD@Z  00535c20 f   bDisplay:xbVideo.obj
 0001:00135920       ?bdVideoPlayWMVStream@@YA?AW4EBVideoPlayStream@@PADIP6AHW4EBVideoReasonCode@@HPAX2@Z2@Z 00535d60 f   bDisplay:xbVideo.obj
 0001:00135e90       ?bdVideoPlayStream@@YA?AW4EBVideoPlayStream@@PADIP6AHW4EBVideoReasonCode@@HPAX2@Z2@Z 005362d0 f   bDisplay:xbVideo.obj
 0001:00135fb0       ?bdFixSplashCRC@@YAII@Z    005363f0 f   bDisplay:xbSplash.obj
 0001:00135fc0       ?bLoadSplashByCRC@@YAPAU_TBSplash@@PAU_TBPackageIndex@@I@Z 00536400 f   bDisplay:xbSplash.obj
 0001:00135fd0       ?bDeleteSplash@@YAXPAU_TBSplash@@@Z 00536410 f   bDisplay:xbSplash.obj
 0001:00135fe0       ?bdDrawSplash@@YAXPAU_TBSplash@@HHH@Z 00536420 f   bDisplay:xbSplash.obj
 0001:00136230       ?bdGetTextureFrameByTime@@YAHPAU_TBTexture@@H@Z 00536670 f   bDisplay:texture.obj
 0001:001362a0       ?bdSetTextureFrameByTime@@YAHPAU_TBTexture@@H@Z 005366e0 f   bDisplay:texture.obj
 0001:001362c0       ?bDXErrorToString@@YAPADJ@Z 00536700 f   bDisplay:xbDxdebug.obj
 0001:001362f0       ?bdPushProjectionMode@@YAXI@Z 00536730 f   bDisplay:viewport.obj
 0001:00136330       ?bdPopProjectionMode@@YAXXZ 00536770 f   bDisplay:viewport.obj
 0001:00136360       ?bgInitGui@@YAHXZ          005367a0 f   bGui:gui.obj
 0001:00136570       ?bGuiDeltaRGB@@YAXHHHPAH00H@Z 005369b0 f   bGui:gui.obj
 0001:001365f0       ?bgEnterGui@@YAXP6AHPAU_TBGuiEventInfo@@@Z@Z 00536a30 f   bGui:gui.obj
 0001:00136660       ?bgCreateMenu@@YAPAU_TBGuiElement@@I@Z 00536aa0 f   bGui:gui.obj
 0001:001366e0       ?bgDeleteElement@@YAXPAU_TBGuiElement@@@Z 00536b20 f   bGui:gui.obj
 0001:00136750       ?bgSetMainMenu@@YAXPAU_TBGuiElement@@@Z 00536b90 f   bGui:gui.obj
 0001:00136770       ?bgAddMenuItem@@YAPAU_TBGuiMenuItem@@PAU_TBGuiElement@@PADH0I@Z 00536bb0 f   bGui:gui.obj
 0001:00137000       ?bgPoll@@YAXXZ             00537440 f   bGui:gui.obj
 0001:00137070       ?bgFindMenuItemByIndex@@YAPAU_TBGuiMenuItem@@PAU_TBGuiElement@@H@Z 005374b0 f   bGui:gui.obj
 0001:00137090       ?bgSetMenuItem@@YAXPAU_TBGuiMenuItem@@PADHPAU_TBGuiElement@@II@Z 005374d0 f   bGui:gui.obj
 0001:00137120       ?bgShutdownGui@@YAXXZ      00537560 f   bGui:gui.obj
 0001:00137170       ?bInitGuiHAL@@YAXXZ        005375b0 f   bGui:xbGui.obj
 0001:00137270       ?bGuiLockScreen@@YAXXZ     005376b0 f   bGui:xbGui.obj
 0001:001372c0       ?bGuiUnlockScreen@@YAXXZ   00537700 f   bGui:xbGui.obj
 0001:001372d0       ?bGuiPrintIcon@@YAXW4EBGuiIcons@@HH@Z 00537710 f   bGui:xbGui.obj
 0001:00137410       ?bGuiPrintText@@YAXPAU_TBGuiFont@@HHPAD@Z 00537850 f   bGui:xbGui.obj
 0001:00137650       ?bGuiFillRect@@YAXHHHHHHH@Z 00537a90 f   bGui:xbGui.obj
 0001:001376c0       ?bGuiDrawFrame@@YAXHHHHW4EBGuiFrameStyle@@HHH@Z 00537b00 f   bGui:xbGui.obj
 0001:00137ad0       ?bGuiDrawHBar@@YAXHHHHHH@Z 00537f10 f   bGui:xbGui.obj
 0001:00137bc0       ?bInitInput@@YAXI@Z        00538000 f   bInput:input.obj
 0001:00137c10       ?biCreateMap@@YAPAU_TBIChannelMap@@H@Z 00538050 f   bInput:input.obj
 0001:00137cc0       ?biDeleteMap@@YAXPAU_TBIChannelMap@@@Z 00538100 f   bInput:input.obj
 0001:00137d00       ?biDeleteAllMaps@@YAXXZ    00538140 f   bInput:input.obj
 0001:00137d60       ?biCreateChannel@@YAPAU_TBIInputChannel@@PAU_TBIChannelMap@@PADHIHHH@Z 005381a0 f   bInput:input.obj
 0001:00137e50       ?biBindInput@@YAHPAU_TBIInputChannel@@HH@Z 00538290 f   bInput:input.obj
 0001:00137f70       ?biResetChannel@@YAXPAU_TBIInputChannel@@@Z 005383b0 f   bInput:input.obj
 0001:00137f80       ?biResetMap@@YAXPAU_TBIChannelMap@@@Z 005383c0 f   bInput:input.obj
 0001:00137fb0       ?biZeroMap@@YAXPAU_TBIChannelMap@@@Z 005383f0 f   bInput:input.obj
 0001:00137fe0       ?biForceDebounce@@YAXPAU_TBIInputChannel@@@Z 00538420 f   bInput:input.obj
 0001:00138000       ?biReadDevices@@YAHXZ      00538440 f   bInput:input.obj
 0001:00138620       ?biStartRecording@@YAPAU_TBInputRecording@@H@Z 00538a60 f   bInput:input.obj
 0001:00138740       ?biRecordInputs@@YAPAU_TBInputRecording@@PAU1@PAX@Z 00538b80 f   bInput:input.obj
 0001:00138820       ?biStopRecording@@YAHPAU_TBInputRecording@@@Z 00538c60 f   bInput:input.obj
 0001:00138840       ?biStartPlayback@@YAXPAU_TBInputRecording@@@Z 00538c80 f   bInput:input.obj
 0001:00138900       ?biPlaybackInputs@@YAHPAU_TBInputRecording@@PAX@Z 00538d40 f   bInput:input.obj
 0001:00138970       ?bShutdownInput@@YAXXZ     00538db0 f   bInput:input.obj
 0001:00138980       ?bProcessRumble@@YAXXZ     00538dc0 f   bInput:input.obj
 0001:00139170       ?bInitInputHAL@@YAXI@Z     005395b0 f   bInput:xbHAL.obj
 0001:001391e0       ?bShutdownInputHAL@@YAXXZ  00539620 f   bInput:xbHAL.obj
 0001:00139220       ?bReadPhysicalInputDevices@@YAXXZ 00539660 f   bInput:xbHAL.obj
 0001:00139270       ?bReadInput@@YAHHHPAH@Z    005396b0 f   bInput:xbHAL.obj
 0001:00139500       ?biFindPad@@YAHH@Z         00539940 f   bInput:xbHAL.obj
 0001:00139520       ?bUpdateRumble@@YAXXZ      00539960 f   bInput:xbHAL.obj
 0001:00139650       ?biFFSetParm@@YAHHHZZ      00539a90 f   bInput:xbHAL.obj
 0001:001396c0       ?biGetPortStatus@@YA?AW4EBPortStatus@@H@Z 00539b00 f   bInput:xbHAL.obj
 0001:001396f0       ?biGameSaveStart@@YAXW4EBGameSaveMode@@PAXPAGHH@Z 00539b30 f   bInput:gamesave.obj
 0001:00139750       ?biGameSaveGetStatus@@YA?AW4EBGameSaveStatus@@PAU_TBGameSaveDirEntry@@HPAHPAU_TBGameSaveInfo@@@Z 00539b90 f   bInput:gamesave.obj
 0001:001397a0       ?biGameSaveSetStatus@@YAXW4EBGameSaveResponse@@PAGHPAU_TBGameSaveInfo@@@Z 00539be0 f   bInput:gamesave.obj
 0001:00139920       ?biGameSaveEnd@@YAXXZ      00539d60 f   bInput:gamesave.obj
 0001:00139930       ?bInitGameSave@@YAHXZ      00539d70 f   bInput:xbSave.obj
 0001:00139f10       ?bGameSaveReset@@YAXXZ     0053a350 f   bInput:xbSave.obj
 0001:00139f20       ?biGameSaveSetActiveCardSlot@@YAHH@Z 0053a360 f   bInput:xbSave.obj
 0001:0013a460       ?bGameSaveSave@@YAXPAXPAGHPAU_TBGameSaveInfo@@H@Z 0053a8a0 f   bInput:xbSave.obj
 0001:0013a7e0       ?bGameSaveLoad@@YAXPAXPAGH@Z 0053ac20 f   bInput:xbSave.obj
 0001:0013aad0       ?bGameSavePoll@@YAXPAXPAG1HPAU_TBGameSaveDirEntry@@HPAHPAU_TBGameSaveInfo@@H@Z 0053af10 f   bInput:xbSave.obj
 0001:0013aca0       ?bActivateHeapCheckerThread@@YAXH@Z 0053b0e0 f   bKernel:xbHeap.obj
 0001:0013ad00       ?bShutdownHeap@@YAXXZ      0053b140 f   bKernel:xbHeap.obj
 0001:0013ae40       ?bkHeapReset@@YAXXZ        0053b280 f   bKernel:xbHeap.obj
 0001:0013af40       ?bkHeapAllocEx@@YAPAXIPADHGIH@Z 0053b380 f   bKernel:xbHeap.obj
 0001:0013b260       ?bkHeapFree@@YAXPAX@Z      0053b6a0 f   bKernel:xbHeap.obj
 0001:0013b360       ?bkHeapGetBlockSize@@YAHPAX@Z 0053b7a0 f   bKernel:xbHeap.obj
 0001:0013b380       ?bkHeapFreeSpace@@YAHPAH@Z 0053b7c0 f   bKernel:xbHeap.obj
 0001:0013b3d0       ?bGetCurrentGroup@@YAIXZ   0053b810 f   bKernel:xbHeap.obj
 0001:0013b3e0       ?bkHeapGroupPush@@YAHQBD@Z 0053b820 f   bKernel:xbHeap.obj
 0001:0013b410       ?bkHeapGroupPop@@YAHXZ     0053b850 f   bKernel:xbHeap.obj
 0001:0013b430       ?bGetFreePhysicalMemory@@YAHXZ 0053b870 f   bKernel:xbHeap.obj
 0001:0013b430       ?bkGetSystemFreeMemory@@YAHXZ 0053b870 f   bKernel:xbHeap.obj
 0001:0013b450       ?bInitHeap@@YAHII@Z        0053b890 f   bKernel:xbHeap.obj
 0001:0013b530       ?bkHeapCallocEx@@YAPAXIHPADHGI@Z 0053b970 f   bKernel:xbHeap.obj
 0001:0013b590       ?bkHeapAlloc@@YAPAXIPADHG@Z 0053b9d0 f   bKernel:xbHeap.obj
 0001:0013b5c0       ?bkHeapCalloc@@YAPAXIHPADHG@Z 0053ba00 f   bKernel:xbHeap.obj
 0001:0013b620       ?bInitCRCTable@@YAXXZ      0053ba60 f   bKernel:file.obj
 0001:0013b6c0       ?bkCRC32@@YAIPBEHI@Z       0053bb00 f   bKernel:file.obj
 0001:0013b700       ?bkStringCRC@@YAIPBD@Z     0053bb40 f   bKernel:file.obj
 0001:0013b740       ?bkStringLwrCRC@@YAIPBD@Z  0053bb80 f   bKernel:file.obj
 0001:0013b790       ?bGetPackageIndexEntry@@YAPAU_TBFileIndex@@PAU_TBPackageIndex@@H@Z 0053bbd0 f   bKernel:file.obj
 0001:0013b7b0       ?bkEnumPackageContents@@YAHPAU_TBPackageIndex@@HIPAIPAU_TBFileTagInfo@@@Z 0053bbf0 f   bKernel:file.obj
 0001:0013b860       ?bkSetLanguage@@YAXW4EBLanguageID@@@Z 0053bca0 f   bKernel:file.obj
 0001:0013b870       ?bkSetFileSearchPath@@YAXHHZZ 0053bcb0 f   bKernel:file.obj
 0001:0013b8b0       ?bkOpenFileReadOnlyWithSearch@@YAHPADPAPAU_iobuf@@0HH@Z 0053bcf0 f   bKernel:file.obj
 0001:0013bba0       ?bkLoadFilenameTable@@YAHPAU_TBPackageIndex@@PAD@Z 0053bfe0 f   bKernel:file.obj
 0001:0013bcf0       ?bkDeleteFilenameTable@@YAHU_TBPackageID@@@Z 0053c130 f   bKernel:file.obj
 0001:0013bda0       ?bkFindFilenameByCRC@@YAPADU_TBPackageID@@I@Z 0053c1e0 f   bKernel:file.obj
 0001:0013be30       ?bFindIndexFileByCRC@@YAPAU_TBFileIndex@@PAU_TBPackageIndex@@I@Z 0053c270 f   bKernel:file.obj
 0001:0013bea0       ?bFindIndexFile@@YAPAU_TBFileIndex@@PAU_TBPackageIndex@@PAD@Z 0053c2e0 f   bKernel:file.obj
 0001:0013bed0       ?bkFileLength@@YAHPADH@Z   0053c310 f   bKernel:file.obj
 0001:0013bf30       ?bkFileLength@@YAHPAU_TBPackageIndex@@PADH@Z 0053c370 f   bKernel:file.obj
 0001:0013c020       ?bLoadSingleFile@@YAPAEPADPAEPAHH@Z 0053c460 f   bKernel:file.obj
 0001:0013c0c0       ?bkLoadFileByCRC@@YAPAEPAU_TBPackageIndex@@IPAEPAHPAU_TBFileTagInfo@@H@Z 0053c500 f   bKernel:file.obj
 0001:0013c1b0       ?bInitEvents@@YAXXZ        0053c5f0 f   bKernel:event.obj
 0001:0013c1e0       ?bkCreateEvent@@YAHPAD@Z   0053c620 f   bKernel:event.obj
 0001:0013c280       ?bkTrapEventCallback@@YAPAU_TBEventClient@@PADP6AX00PAX1@Z1@Z 0053c6c0 f   bKernel:event.obj
 0001:0013c310       ?bkTrapEventQueue@@YAPAU_TBEventClient@@PADHI@Z 0053c750 f   bKernel:event.obj
 0001:0013c3c0       ?bkPopEvent@@YAHPAU_TBEventClient@@PADPAX@Z 0053c800 f   bKernel:event.obj
 0001:0013c550       ?bkDeleteEvent@@YAXPAD@Z   0053c990 f   bKernel:event.obj
 0001:0013c5c0       ?bkDeleteEventClient@@YAXPAU_TBEventClient@@@Z 0053ca00 f   bKernel:event.obj
 0001:0013c610       ?bkGenerateEvent@@YAHPAD0PAXH@Z 0053ca50 f   bKernel:event.obj
 0001:0013c7c0       ?bkHexToInt32@@YAIPAD@Z    0053cc00 f   bKernel:event.obj
 0001:0013c850       ?bkDeleteEventTraps@@YAXPAD@Z 0053cc90 f   bKernel:event.obj
 0001:0013c8e0       ?bShutdownEvents@@YAXXZ    0053cd20 f   bKernel:event.obj
 0001:0013c930       ?bkCreateDebugStream@@YAPAU_TBDebugStream@@PAU1@PADI@Z 0053cd70 f   bKernel:xbDebug.obj
 0001:0013c9e0       ?bkPrintf@@YAXPADZZ        0053ce20 f   bKernel:xbDebug.obj
 0001:0013cb50       ?bVPrintf@@YAXPAD0@Z       0053cf90 f   bKernel:xbDebug.obj
 0001:0013cc20       ?bkStreamPrintf@@YAXPAU_TBDebugStream@@PADZZ 0053d060 f   bKernel:xbDebug.obj
 0001:0013ccf0       ?bkAlert@@YAXPAD@Z         0053d130 f   bKernel:xbDebug.obj
 0001:0013cd10       ?bInitDebug@@YAXXZ         0053d150 f   bKernel:xbDebug.obj
 0001:0013ce10       ?bInitResources@@YAXXZ     0053d250 f   bKernel:resources.obj
 0001:0013ce50       ?bAddGlobalResource@@YAXPAU_TBResourceInfo@@PAU_TBPackageIndex@@HH@Z 0053d290 f   bKernel:resources.obj
 0001:0013cec0       ?bkListResources@@YAXI@Z   0053d300 f   bKernel:resources.obj
 0001:0013cf80       ?bDeleteResource@@YAXPAX@Z 0053d3c0 f   bKernel:resources.obj
 0001:0013cfc0       ?bLoadResourceByCRC@@YAPAU_TBResourceInfo@@PAU_TBPackageIndex@@IW4EBResourceType@@H@Z 0053d400 f   bKernel:resources.obj
 0001:0013d040       ?bkFindResourceByCRC@@YAPAU_TBResourceInfo@@W4EBResourceType@@IU_TBPackageID@@II@Z 0053d480 f   bKernel:resources.obj
 0001:0013d180       ?bkWalkResourceList@@YAPAU_TBResourceInfo@@W4EBResourceType@@PAU1@@Z 0053d5c0 f   bKernel:resources.obj
 0001:0013d1d0       ?bLoadPackageResources@@YAHPAU_TBPackageIndex@@IHI@Z 0053d610 f   bKernel:resources.obj
 0001:0013d330       ?bDeletePackageResources@@YAXU_TBPackageID@@I@Z 0053d770 f   bKernel:resources.obj
 0001:0013d3b0       ?bDeleteResourceGroup@@YAXII@Z 0053d7f0 f   bKernel:resources.obj
 0001:0013d430       ?bDeleteAllResources@@YAXXZ 0053d870 f   bKernel:resources.obj
 0001:0013d480       ?bLoadResource@@YAPAU_TBResourceInfo@@PAU_TBPackageIndex@@PADW4EBResourceType@@H@Z 0053d8c0 f   bKernel:resources.obj
 0001:0013d500       ?bkFixStringTableCRC@@YAII@Z 0053d940 f   bKernel:stringtable.obj
 0001:0013d550       ?bLoadStringTableByCRC@@YAPAU_TBStringTable@@PAU_TBPackageIndex@@I@Z 0053d990 f   bKernel:stringtable.obj
 0001:0013d5c0       ?bkString16to8@@YAPADPADPBG@Z 0053da00 f   bKernel:stringtable.obj
 0001:0013d5f0       ?bkString8to16@@YAPAGPAGPBD@Z 0053da30 f   bKernel:stringtable.obj
 0001:0013d640       ?bkStringLength16@@YAHPBG@Z 0053da80 f   bKernel:stringtable.obj
 0001:0013d660       ?bkStringCopy16@@YAPAGPAGPBG@Z 0053daa0 f   bKernel:stringtable.obj
 0001:0013d690       ?bkStringCompare16@@YAHPBG0H@Z 0053dad0 f   bKernel:stringtable.obj
 0001:0013d710       ?bkStringFindLetterReverse16@@YAPAGPBGG@Z 0053db50 f   bKernel:stringtable.obj
 0001:0013e190       ?bkStringVSprintf16@@YAHPAGPBGPAD@Z 0053e5d0 f   bKernel:stringtable.obj
 0001:0013e440       ?bkReadClock@@YAHPAU_TBClock@@@Z 0053e880 f   bKernel:xbClock.obj
 0001:0013e490       ?bInitTimer@@YAXXZ         0053e8d0 f   bKernel:xbTimer.obj
 0001:0013e570       ?bkTimerRead@@YA_JXZ       0053e9b0 f   bKernel:xbTimer.obj
 0001:0013e5a0       ?bkTimerToFPS@@YAM_J@Z     0053e9e0 f   bKernel:xbTimer.obj
 0001:0013e5f0       ?bkTimerToScanlines@@YAM_JHH@Z 0053ea30 f   bKernel:xbTimer.obj
 0001:0013e620       ?bkTimerDelta@@YA_J_J0@Z   0053ea60 f   bKernel:xbTimer.obj
 0001:0013e650       ?bkSleep@@YAXH@Z           0053ea90 f   bKernel:xbTimer.obj
 0001:0013e660       ?bkOpenPackage@@YAPAU_TBPackageIndex@@PAD@Z 0053eaa0 f   bKernel:xbPackage.obj
 0001:0013e670       ?bkLoadPackage@@YAPAU_TBPackageIndex@@PAU1@PADPAE@Z 0053eab0 f   bKernel:xbPackage.obj
 0001:0013e680       ?bkClosePackage@@YAXPAU_TBPackageIndex@@@Z 0053eac0 f   bKernel:xbPackage.obj
 0001:0013e690       ?bkInit@@YAHIII@Z          0053ead0 f   bKernel:xbBabel.obj
 0001:0013e760       ?bkShutdown@@YAXXZ         0053eba0 f   bKernel:xbBabel.obj
 0001:0013e790       ?bkUpdate@@YAXH@Z          0053ebd0 f   bKernel:xbBabel.obj
 0001:0013e7d0       ?bOpenPackage@@YAPAU_TBPackageIndex@@PAD@Z 0053ec10 f   bKernel:package.obj
 0001:0013ea50       ?bClosePackage@@YAXPAU_TBPackageIndex@@H@Z 0053ee90 f   bKernel:package.obj
 0001:0013ead0       ?bkPackageFileLength@@YAHPADH@Z 0053ef10 f   bKernel:package.obj
 0001:0013eb10       ?bkPackageFileLength@@YAHPAU_TBPackageIndex@@PADH@Z 0053ef50 f   bKernel:package.obj
 0001:0013eb50       ?bFixupPackage@@YAPAU_TBPackageIndex@@PADHPAE@Z 0053ef90 f   bKernel:package.obj
 0001:0013ec30       ?bLoadPackage@@YAPAU_TBPackageIndex@@PAU1@PADPAE@Z 0053f070 f   bKernel:package.obj
 0001:0013ed30       ?bIsBkgChannelBusy@@YAHW4EBBkgChannel@@@Z 0053f170 f   bKernel:xbBkgload.obj
 0001:0013ed50       ?bIsBkgChannelQueueEmpty@@YAHW4EBBkgChannel@@@Z 0053f190 f   bKernel:xbBkgload.obj
 0001:0013ef80       ?bKernelInitBkgLoad@@YAHXZ 0053f3c0 f   bKernel:xbBkgload.obj
 0001:0013f610       ?bPauseBackgroundFileAccess@@YAHH@Z 0053fa50 f   bKernel:xbBkgload.obj
 0001:0013f810       ?bQueueBackgroundLoad@@YAHW4EBBkgChannel@@PADPAX1IHHH1H@Z 0053fc50 f   bKernel:xbBkgload.obj
 0001:0013f960       ?bQueueBackgroundWrite@@YAHW4EBBkgChannel@@PADPAXHHH1H@Z 0053fda0 f   bKernel:xbBkgload.obj
 0001:0013fb60       ?bkLoadPackageBkg@@YAPAU_TBPackageIndex@@PAU1@PAD1PAHPAE@Z 0053ffa0 f   bKernel:xbBkgload.obj
 0001:0013fd30       ?bkInitStopwatch@@YAXPAU_TBStopwatch@@H@Z 00540170 f   bKernel:timer.obj
 0001:0013fd50       ?bkStartStopwatch@@YAXPAU_TBStopwatch@@@Z 00540190 f   bKernel:timer.obj
 0001:0013fd60       ?bkStopStopwatch@@YAHPAU_TBStopwatch@@@Z 005401a0 f   bKernel:timer.obj
 0001:0013fdd0       ?bInitKernel@@YAHXZ        00540210 f   bKernel:xbKernel.obj
 0001:0013fe00       ?bShutdownKernel@@YAXXZ    00540240 f   bKernel:xbKernel.obj
 0001:0013fe70       ?bAddOSEvent@@YAPAXP6AHPAX@Z0PAD@Z 005402b0 f   bKernel:xbKernel.obj
 0001:0013ff30       ?bDeleteOSEvent@@YAXPAX@Z  00540370 f   bKernel:xbKernel.obj
 0001:0013ffc0       ?bHandleOSEvents@@YAXXZ    00540400 f   bKernel:xbKernel.obj
 0001:00140020       ?bkRun@@YAXP6AXPAX@Z0@Z    00540460 f   bKernel:xbKernel.obj
 0001:00140030       ?bkCreateMutex@@YAPAPAXPAPAX@Z 00540470 f   bKernel:xbKernel.obj
 0001:00140050       ?bkWaitMutex@@YAHPAPAX@Z   00540490 f   bKernel:xbKernel.obj
 0001:00140070       ?bkReleaseMutex@@YAHPAPAX@Z 005404b0 f   bKernel:xbKernel.obj
 0001:00140090       ?bkDeleteMutex@@YAHPAPAX@Z 005404d0 f   bKernel:xbKernel.obj
 0001:001401a0       ?bInitCommandLine@@YAHXZ   005405e0 f   bKernel:xbKernel.obj
 0001:00140230       ?bShutdownCommandLine@@YAXXZ 00540670 f   bKernel:xbKernel.obj
 0001:00140290       ?bFlushCPUCache@@YAXXZ     005406d0 f   bKernel:xbKernel.obj
 0001:001402a0       ?bFlushWrites@@YAXPAIH@Z   005406e0 f   bKernel:xbKernel.obj
 0001:00140300       ?bPrepareDiskEvents@@YAXXZ 00540740 f   bKernel:xbFile.obj
 0001:00140310       ?bkLoadFile@@YAPAEPAU_TBPackageIndex@@PADPAEPAHPAU_TBFileTagInfo@@H@Z 00540750 f   bKernel:xbFile.obj
 0001:00140370       ?bkOpenFileReadOnly@@YAHPADPAPAU_iobuf@@@Z 005407b0 f   bKernel:xbFile.obj
 0001:001403a0       ?bkHostReadFromFile@@YAHPAU_iobuf@@PAXH@Z 005407e0 f   bKernel:xbFile.obj
 0001:001403a0       ?bkReadFromFile@@YAHPAU_iobuf@@PAXH@Z 005407e0 f   bKernel:xbFile.obj
 0001:001403c0       ?bkSeekFile@@YAXPAU_iobuf@@HW4EBHostSeekMode@@@Z 00540800 f   bKernel:xbFile.obj
 0001:00140400       ?bkCloseFile@@YAXPAU_iobuf@@@Z 00540840 f   bKernel:xbFile.obj
 0001:00140400       ?bkHostCloseFile@@YAXPAU_iobuf@@@Z 00540840 f   bKernel:xbFile.obj
 0001:00140410       ?bFileLength@@YAHPAU_iobuf@@@Z 00540850 f   bKernel:xbFile.obj
 0001:00140450       ?bkHostOpenFileReadOnly@@YAHPADPAPAU_iobuf@@@Z 00540890 f   bKernel:xbFile.obj
 0001:001404b0       ?bkHostCreateFile@@YAHPADPAPAU_iobuf@@@Z 005408f0 f   bKernel:xbFile.obj
 0001:00140510       ?bkHostWriteToFile@@YAHPAU_iobuf@@PAXH@Z 00540950 f   bKernel:xbFile.obj
 0001:00140530       ?bCheckSignature@@YAXXZ    00540970 f   bKernel:xbEncryption.obj
 0001:00140660       ?bkDataToSafeString@@YAPADPAEHPADH@Z 00540aa0 f   bKernel:debug.obj
 0001:00140790       ?bDumpFileCacheContents@@YAXH@Z 00540bd0 f   bKernel:xbCache.obj
 0001:00140a80       ?bShutdownCache@@YAXXZ     00540ec0 f   bKernel:xbCache.obj
 0001:00140d90       ?bCacheUpdate@@YAXXZ       005411d0 f   bKernel:xbCache.obj
 0001:00141010       ?bCacheLoadingFileNotification@@YAXPAD@Z 00541450 f   bKernel:xbCache.obj
 0001:001410b0       ?bCacheOpenFileFromCache@@YAHPADPAPAU_iobuf@@0H@Z 005414f0 f   bKernel:xbCache.obj
 0001:00141180       ?bInitCache@@YAXXZ         005415c0 f   bKernel:xbCache.obj
 0001:001412b0       ?bmVectorLerp@@YAXQAMQBM1M@Z 005416f0 f   bMaths:xbVector.obj
 0001:00141300       ?bmVectorCalcNormal@@YAXQAMQBM11@Z 00541740 f   bMaths:xbVector.obj
 0001:001413d0       ?bmVectorRotateY@@YAXQAMQBMM@Z 00541810 f   bMaths:xbVector.obj
 0001:00141430       ?bmVectorRotateZ@@YAXQAMQBMM@Z 00541870 f   bMaths:xbVector.obj
 0001:00141480       ?bmVectorRotateXY@@YAXQAMQBMMM@Z 005418c0 f   bMaths:xbVector.obj
 0001:00141500       ?bmVectorRotateXYZ@@YAXQAMQBMMMM@Z 00541940 f   bMaths:xbVector.obj
 0001:001415a0       ?bmVectorNorm@@YAMQAMQBM@Z 005419e0 f   bMaths:xbVector.obj
 0001:00141600       ?bmVectorNorm4@@YAMQAMQBM@Z 00541a40 f   bMaths:xbVector.obj
 0001:00141670       ?bmVectorDistance@@YAMQBM0@Z 00541ab0 f   bMaths:xbVector.obj
 0001:001416b0       ?bmVectorDistanceApprox@@YAMQBM0@Z 00541af0 f   bMaths:xbVector.obj
 0001:001416f0       ?bmVectorSquaredDistance@@YAMQBM0@Z 00541b30 f   bMaths:xbVector.obj
 0001:00141720       ?bmVectorScaleToLength@@YAXQAMQBMM@Z 00541b60 f   bMaths:xbVector.obj
 0001:00141790       ?bmSRand@@YAXI@Z           00541bd0 f   bMaths:xbMaths.obj
 0001:001417a0       ?bmSqrtApprox@@YAMM@Z      00541be0 f   bMaths:xbMaths.obj
 0001:001417c0       ?bmQuatToEulerYXZ@@YAXQAMPAM11@Z 00541c00 f   bMaths:quaternion.obj
 0001:001417f0       ?bmQuatSlerpAtFixedSpeed@@YAMQAMQBM1M@Z 00541c30 f   bMaths:quaternion.obj
 0001:001418a0       ?bmQuatToRotation@@YAXQAMQBM@Z 00541ce0 f   bMaths:quaternion.obj
 0001:00141990       ?bmRotationToQuat@@YAXQAMQBM@Z 00541dd0 f   bMaths:quaternion.obj
 0001:001419d0       ?bmDirectionToQuat@@YAXQAMQBMM@Z 00541e10 f   bMaths:quaternion.obj
 0001:00141a90       ?bmEulerToQuatZXY@@YAXQAMMMM@Z 00541ed0 f   bMaths:quaternion.obj
 0001:00141b60       ?bmMatMultiplyUnaligned@@YAXQAY03MQAY03$$CBM1@Z 00541fa0 f   bMaths:xbMatrix.obj
 0001:00141d80       ?bmMatMultiplyAligned@@YAXQAY03MQAY03$$CBM1@Z 005421c0 f   bMaths:xbMatrix.obj
 0001:00141e80       ?bmMatTranslate@@YAXQAY03MMMM@Z 005422c0 f   bMaths:xbMatrix.obj
 0001:00141ed0       ?bmMatScale@@YAXQAY03MMMM@Z 00542310 f   bMaths:xbMatrix.obj
 0001:00141f20       ?bmMatInverse@@YAHQAY03MQAY03$$CBM@Z 00542360 f   bMaths:xbMatrix.obj
 0001:00142160       ?bmMatMultiplyVector@@YAXQAY03$$CBMQAM@Z 005425a0 f   bMaths:xbMatrix.obj
 0001:001421f0       ?bmMatMultiplyVector2@@YAXQAMQAY03$$CBMQBM@Z 00542630 f   bMaths:xbMatrix.obj
 0001:00142280       ?bmMatTranspose@@YAXQAY03MQAY03$$CBM@Z 005426c0 f   bMaths:xbMatrix.obj
 0001:001422f0       ?bmMatDecompose@@YAXQAY03MQAM11@Z 00542730 f   bMaths:xbMatrix.obj
 0001:00142650       ?bmMatTransOrScale@@YAXQAY03MMMM0MMM@Z 00542a90 f   bMaths:xbMatrix.obj
 0001:001426e0       ?bmMatTransOr@@YAXQAY03MMMM0@Z 00542b20 f   bMaths:xbMatrix.obj
 0001:00142760       ?bmMatXRotation@@YAXQAY03MM@Z 00542ba0 f   bMaths:xbMatrix.obj
 0001:001427b0       ?bmMatYRotation@@YAXQAY03MM@Z 00542bf0 f   bMaths:xbMatrix.obj
 0001:00142800       ?bmMatZRotation@@YAXQAY03MM@Z 00542c40 f   bMaths:xbMatrix.obj
 0001:00142850       ?bmMatXYZRotation@@YAXQAY03MMMM@Z 00542c90 f   bMaths:xbMatrix.obj
 0001:00142920       ?bmMatXZYRotation@@YAXQAY03MMMM@Z 00542d60 f   bMaths:xbMatrix.obj
 0001:001429d0       ?bmMatYXZRotation@@YAXQAY03MMMM@Z 00542e10 f   bMaths:xbMatrix.obj
 0001:00142aa0       ?bmMatYZXRotation@@YAXQAY03MMMM@Z 00542ee0 f   bMaths:xbMatrix.obj
 0001:00142b50       ?bmMatZXYRotation@@YAXQAY03MMMM@Z 00542f90 f   bMaths:xbMatrix.obj
 0001:00142c00       ?bmMatZYXRotation@@YAXQAY03MMMM@Z 00543040 f   bMaths:xbMatrix.obj
 0001:00142cb0       ?bmQuatToMatrix@@YAXQAY03MQBM@Z 005430f0 f   bMaths:xbQuaternion.obj
 0001:00142df0       ?bmMatrixToQuat@@YAXQAMQAY03$$CBM@Z 00543230 f   bMaths:xbQuaternion.obj
 0001:00142f50       ?bmQuatSlerp@@YAXQAMQBM1M@Z 00543390 f   bMaths:xbQuaternion.obj
 0001:00143170       ?bmQuatMultiply@@YAXQAMQBM1@Z 005435b0 f   bMaths:xbQuaternion.obj
 0001:00143200       ?bmQuatDot@@YAMQBM0@Z      00543640 f   bMaths:xbQuaternion.obj
 0001:001432b0       ?bmQuatXRotation@@YAXQAMM@Z 005436f0 f   bMaths:xbQuaternion.obj
 0001:001432e0       ?bmQuatYRotation@@YAXQAMM@Z 00543720 f   bMaths:xbQuaternion.obj
 0001:00143310       ?bmQuatZRotation@@YAXQAMM@Z 00543750 f   bMaths:xbQuaternion.obj
 0001:00143340       ?bmGeomDistanceFromLine@@YAMQBU_TBCollisionLine@@QBMQAM@Z 00543780 f   bMaths:geometry.obj
 0001:001434f0       ?bmGeomDistanceFromInfiniteLine@@YAMQBU_TBCollisionLine@@QBMQAM@Z 00543930 f   bMaths:geometry.obj
 0001:00143630       ?bmCollideRayTriangle@@YAHQBU_TBCollisionRay@@QBU_TBCollisionTriangle@@QAU_TBCollisionInfo@@@Z 00543a70 f   bMaths:pcxbCollision.obj
 0001:00143a00       ?bmCollideLineLine2D@@YAHQBU_TBCollisionLine2D@@0QAU_TBCollisionInfo2D@@@Z 00543e40 f   bMaths:collision2d.obj
 0001:00143e90       ?bLoadCollisionMeshByCRC@@YAPAU_TBCollisionMesh@@PAU_TBPackageIndex@@I@Z 005442d0 f   bMaths:collision.obj
 0001:00143f10       ?bmCollideRayAABB@@YAHQBU_TBCollisionRay@@QBU_TBCollisionAABB@@QAU_TBCollisionInfo@@@Z 00544350 f   bMaths:collision.obj
 0001:001441c0       ?bmIntersectRaySphere_Unit@@YAHQBU_TBCollisionRay@@QBU_TBCollisionSphere@@@Z 00544600 f   bMaths:collision.obj
 0001:00144340       ?bLoadAnimatingCollisionMeshByCRC@@YAPAU_TBACMesh@@PAU_TBPackageIndex@@I@Z 00544780 f   bMaths:animatingCollision.obj
 0001:00144380       ?bmMatFactorYXZ@@YAHQAY03$$CBMPAM11@Z 005447c0 f   bMaths:matrix.obj
 0001:00144440       ?bInitGenericWave@@YAHXZ   00544880 f   bSound:wave.obj
 0001:00144460       ?bsGetMaxSampleChannel@@YAHXZ 005448a0 f   bSound:wave.obj
 0001:00144470       ?bsReserveChannel@@YAXHH@Z 005448b0 f   bSound:wave.obj
 0001:001444a0       ?bsSetGlobalSampleVolume@@YAXH@Z 005448e0 f   bSound:wave.obj
 0001:001444f0       ?bsStopChannel@@YAXH@Z     00544930 f   bSound:wave.obj
 0001:00144540       ?bsStopAllChannels@@YAXXZ  00544980 f   bSound:wave.obj
 0001:001445b0       ?bsStopSample@@YAXQBU_TBSample@@@Z 005449f0 f   bSound:wave.obj
 0001:00144610       ?bsPauseAllChannels@@YAXH@Z 00544a50 f   bSound:wave.obj
 0001:001446b0       ?bsSetChannelVolume@@YAXHH@Z 00544af0 f   bSound:wave.obj
 0001:001446e0       ?bsGetChannelStatus@@YA?AW4EBSoundChannelStatus@@H@Z 00544b20 f   bSound:wave.obj
 0001:00144710       ?bShutdownGenericWave@@YAXXZ 00544b50 f   bSound:wave.obj
 0001:001449d0       ?bsPlaySample@@YAHPAU_TBSample@@HHHI@Z 00544e10 f   bSound:wave.obj
 0001:00144a60       ?bsPlayPositionalSample@@YAHPAU_TBSample@@QAMHHIMM@Z 00544ea0 f   bSound:wave.obj
 0001:00144c30       ?bsPlayTrackingSample@@YAHPAU_TBSample@@QAMHHIP6AX1HPAX@Z2MM@Z 00545070 f   bSound:wave.obj
 0001:00144e10       ?bsUpdate@@YAXH@Z          00545250 f   bSound:wave.obj
 0001:00144f60       ?bLoadSampleByCRC@@YAPAU_TBSample@@PAU_TBPackageIndex@@I@Z 005453a0 f   bSound:xbWave.obj
 0001:00144fb0       ?bDeleteSample@@YAXPAU_TBSample@@@Z 005453f0 f   bSound:xbWave.obj
 0001:00145010       ?bShutdownSpecificWave@@YAXXZ 00545450 f   bSound:xbWave.obj
 0001:00145040       ?bPlaySample@@YAHPAU_TBSample@@HHHIH@Z 00545480 f   bSound:xbWave.obj
 0001:00145170       ?bUpdateChannelVolume@@YAXH@Z 005455b0 f   bSound:xbWave.obj
 0001:001451b0       ?bsSetChannelFrequency@@YAXHH@Z 005455f0 f   bSound:xbWave.obj
 0001:001451d0       ?bStopChannel@@YAXH@Z      00545610 f   bSound:xbWave.obj
 0001:00145210       ?bUpdateSoundChannelStatus@@YAXH@Z 00545650 f   bSound:xbWave.obj
 0001:00145280       ?bPauseChannel@@YAXHH@Z    005456c0 f   bSound:xbWave.obj
 0001:001452c0       ?bPlaySample3D@@YAHPAU_TBSample@@QAMHHIHMM@Z 00545700 f   bSound:xbWave.obj
 0001:00145450       ?bUpdate3DSoundPosition@@YAXHQAM0@Z 00545890 f   bSound:xbWave.obj
 0001:00145560       ?bsSet3DDistanceFactor@@YAXM@Z 005459a0 f   bSound:xbWave.obj
 0001:00145580       ?bsGetSoundMode@@YA?AW4EBSoundMode@@XZ 005459c0 f   bSound:xbWave.obj
 0001:001455e0       ?bInitSpecificWave@@YAHXZ  00545a20 f   bSound:xbWave.obj
 0001:001456c0       ?bFinaliseUpdated3DSounds@@YAXXZ 00545b00 f   bSound:xbWave.obj
 0001:00145800       ?bDeleteAudioStreamWMA@@YAXPAU_TBAudioStream@@@Z 00545c40 f   bSound:xbAudioStreamWMA.obj
 0001:00145a10       ?bStopAudioStreamWMA@@YAXPAU_TBAudioStream@@@Z 00545e50 f   bSound:xbAudioStreamWMA.obj
 0001:00145c20       ?bPlayAudioStreamWMA@@YAHPAU_TBAudioStream@@IIHIP6AX0W4EBSoundStreamCallbackReason@@@ZPAX@Z 00546060 f   bSound:xbAudioStreamWMA.obj
 0001:00145ee0       ?DecodeStream@@YAXPAU_TBAudioStream@@@Z 00546320 f   bSound:xbAudioStreamWMA.obj
 0001:00146310       ?bDecodeWMA@@YAXXZ         00546750 f   bSound:xbAudioStreamWMA.obj
 0001:00146370       ?bInitSpecificMusic@@YAHXZ 005467b0 f   bSound:xbAudioStream.obj
 0001:001463e0       ?bLoadAudioStreamByCRC@@YAPAU_TBAudioStream@@PAU_TBPackageIndex@@I@Z 00546820 f   bSound:xbAudioStream.obj
 0001:00146460       ?bDeleteAudioStream@@YAXPAU_TBAudioStream@@@Z 005468a0 f   bSound:xbAudioStream.obj
 0001:00146490       ?bsPlayAudioStream@@YAHPAU_TBAudioStream@@IIHIP6AX0W4EBSoundStreamCallbackReason@@@ZPAX@Z 005468d0 f   bSound:xbAudioStream.obj
 0001:00146510       ?bsStopAudioStream@@YAXPAU_TBAudioStream@@@Z 00546950 f   bSound:xbAudioStream.obj
 0001:00146540       ?bsGetAudioStreamFlags@@YAHPAU_TBAudioStream@@I@Z 00546980 f   bSound:xbAudioStream.obj
 0001:00146560       ?bsGetAudioStreamInfo@@YAXPAU_TBAudioStream@@PAH1111PAPAH@Z 005469a0 f   bSound:xbAudioStream.obj
 0001:001465c0       ?bsGetAudioStreamStatus@@YA?AW4EBSoundStreamStatus@@PAU_TBAudioStream@@PAH11@Z 00546a00 f   bSound:xbAudioStream.obj
 0001:00146600       ?bUpdateSound@@YAXXZ       00546a40 f   bSound:xbAudioStream.obj
 0001:00146610       ?bsSetAudioStreamVolume@@YAHPAU_TBAudioStream@@IHH@Z 00546a50 f   bSound:xbAudioStream.obj
 0001:001466c0       ?bsSetGlobalAudioStreamVolume@@YAXH@Z 00546b00 f   bSound:xbAudioStream.obj
 0001:00146750       ?bsSetAudioStreamFlags@@YAHPAU_TBAudioStream@@I@Z 00546b90 f   bSound:xbAudioStream.obj
 0001:001467c0       ?bsClearAudioStreamFlags@@YAHPAU_TBAudioStream@@I@Z 00546c00 f   bSound:xbAudioStream.obj
 0001:00146840       ?bLoadLipSyncByCRC@@YAPAU_TBLipSync@@PAU_TBPackageIndex@@I@Z 00546c80 f   bSound:lipSync.obj
 0001:00146860       ?bDeleteCollisionMesh@@YAXPAU_TBCollisionMesh@@@Z 00546ca0 f   bMaths:collision.obj
 0001:00146860       ?bDeleteAnimatingCollisionMesh@@YAXPAU_TBACMesh@@@Z 00546ca0 f   bMaths:animatingCollision.obj
 0001:00146860       ?bDeleteLipSync@@YAXPAU_TBLipSync@@@Z 00546ca0 f   bSound:lipSync.obj
 0001:00146860       ?bDeleteStringTable@@YAXPAU_TBStringTable@@@Z 00546ca0 f   bKernel:stringtable.obj
 0001:00146880       ?bInitSound@@YAHXZ         00546cc0 f   bSound:bSound.obj
 0001:001468b0       ?bShutdownSound@@YAXXZ     00546cf0 f   bSound:bSound.obj
 0001:001468c0       ?bsPlayListFlagsSet@@YAHPAU_TBPlayList@@I@Z 00546d00 f   bSound:xbPlayList.obj
 0001:00146920       ?bsPlayListPlay@@YAHPAU_TBPlayList@@HIIHI@Z 00546d60 f   bSound:xbPlayList.obj
 0001:00146ad0       ?bPlayListUpdate@@YAXXZ    00546f10 f   bSound:xbPlayList.obj
 0001:00146ba0       ?bDeleteAudioStreamADPCM@@YAXPAU_TBAudioStream@@@Z 00546fe0 f   bSound:xbAudioStreamADPCM.obj
 0001:00146e40       ?CreateSoundBuffer@@YAHPAU_TBAudioStream@@@Z 00547280 f   bSound:xbAudioStreamADPCM.obj
 0001:00147160       ?bPlayAudioStreamADPCM@@YAHPAU_TBAudioStream@@IIHIP6AX0W4EBSoundStreamCallbackReason@@@Z@Z 005475a0 f   bSound:xbAudioStreamADPCM.obj
 0001:001474d0       ?bStopAudioStreamADPCM@@YAXPAU_TBAudioStream@@@Z 00547910 f   bSound:xbAudioStreamADPCM.obj
 0001:001475e0       ?bNotifyADPCM@@YAXXZ       00547a20 f   bSound:xbAudioStreamADPCM.obj
 0001:00147690       __fpclear                  00547ad0 f   LIBCMT:fpinit.obj
 0001:00147691       __cfltcvt_init             00547ad1 f   LIBCMT:fpinit.obj
 0001:001476c9       __fpmath                   00547b09 f   LIBCMT:fpinit.obj
 0001:001476d6       _vsprintf                  00547b16 f   LIBCMT:vsprintf.obj
 0001:0014772d       ?_JumpToContinuation@@YGXPAXPAUEHRegistrationNode@@@Z 00547b6d f   LIBCMT:trnsctrl.obj
 0001:0014775d       ?_CallMemberFunction2@@YGXPAX00H@Z 00547b9d f   LIBCMT:trnsctrl.obj
 0001:0014775d       ?_CallMemberFunction1@@YGXPAX00@Z 00547b9d f   LIBCMT:trnsctrl.obj
 0001:0014775d       ?_CallMemberFunction0@@YGXPAX0@Z 00547b9d f   LIBCMT:trnsctrl.obj
 0001:00147764       ?_UnwindNestedFrames@@YGXPAUEHRegistrationNode@@PAUEHExceptionRecord@@@Z 00547ba4 f   LIBCMT:trnsctrl.obj
 0001:001477b6       ___CxxFrameHandler         00547bf6 f   LIBCMT:trnsctrl.obj
 0001:00147881       ?_GetRangeOfTrysToCheck@@YAPBU_s_TryBlockMapEntry@@PBU_s_FuncInfo@@HHPAI1@Z 00547cc1 f   LIBCMT:trnsctrl.obj
 0001:001478fb       ?_CreateFrameInfo@@YAPAUFrameInfo@@PAU1@PAX@Z 00547d3b f   LIBCMT:trnsctrl.obj
 0001:00147923       ?IsExceptionObjectToBeDestroyed@@YAHPAX@Z 00547d63 f   LIBCMT:trnsctrl.obj
 0001:00147944       ?_FindAndUnlinkFrame@@YAXPAUFrameInfo@@@Z 00547d84 f   LIBCMT:trnsctrl.obj
 0001:00147990       ?_CallCatchBlock2@@YAPAXPAUEHRegistrationNode@@PBU_s_FuncInfo@@PAXHK@Z 00547dd0 f   LIBCMT:trnsctrl.obj
 0001:001479e1       ?_CallSETranslator@@YAHPAUEHExceptionRecord@@PAUEHRegistrationNode@@PAX2PBU_s_FuncInfo@@H1@Z 00547e21 f   LIBCMT:trnsctrl.obj
 0001:00147a90       __global_unwind2           00547ed0 f   LIBCMT:exsup.obj
 0001:00147ad2       __local_unwind2            00547f12 f   LIBCMT:exsup.obj
 0001:00147b2a       __NLG_Return2              00547f6a     LIBCMT:exsup.obj
 0001:00147b3a       __abnormal_termination     00547f7a f   LIBCMT:exsup.obj
 0001:00147b5d       __NLG_Notify1              00547f9d f   LIBCMT:exsup.obj
 0001:00147b66       __NLG_Notify               00547fa6 f   LIBCMT:exsup.obj
 0001:00147b79       __NLG_Dispatch             00547fb9     LIBCMT:exsup.obj
 0001:00147b7e       _sprintf                   00547fbe f   LIBCMT:sprintf.obj
 0001:00147bd8       __ftol2                    00548018 f   LIBCMT:ftol2.obj
 0001:00147c4d       _sscanf                    0054808d f   LIBCMT:sscanf.obj
 0001:00147c87       _atol                      005480c7 f   LIBCMT:atox.obj
 0001:00147cdf       _atoi                      0054811f f   LIBCMT:atox.obj
 0001:00147cf0       _strstr                    00548130 f   LIBCMT:strstr.obj
 0001:00147d78       __CIacos                   005481b8 f   LIBCMT:acos.obj
 0001:00147d8c       _acos                      005481cc     LIBCMT:acos.obj
 0001:00147e44       _fmod                      00548284 f   LIBCMT:87fmod.obj
 0001:00147e4e       __CIfmod                   0054828e f   LIBCMT:87fmod.obj
 0001:00147e70       _strncpy                   005482b0 f   LIBCMT:strncpy.obj
 0001:00148014       ___onexitinit              00548454 f   LIBCMT:onexit.obj
 0001:0014803c       __onexit                   0054847c f   LIBCMT:onexit.obj
 0001:00148074       _atexit                    005484b4 f   LIBCMT:onexit.obj
 0001:00148088       __CIasin                   005484c8 f   LIBCMT:asin.obj
 0001:0014809c       _asin                      005484dc     LIBCMT:asin.obj
 0001:00148160       __chkstk                   005485a0 f   LIBCMT:chkstk.obj
 0001:00148160       __alloca_probe             005485a0     LIBCMT:chkstk.obj
 0001:001481a1       __lockexit                 005485e1 f   LIBCMT:crt0dat.obj
 0001:001481aa       __unlockexit               005485ea f   LIBCMT:crt0dat.obj
 0001:0014825d       __exit                     0054869d f   LIBCMT:crt0dat.obj
 0001:0014826f       _atof                      005486af f   LIBCMT:atof.obj
 0001:001482d0       __alldiv                   00548710 f   LIBCMT:lldiv.obj
 0001:0014837a       __fread_lk                 005487ba f   LIBCMT:fread.obj
 0001:00148472       _fread                     005488b2 f   LIBCMT:fread.obj
 0001:001484be       __fclose_lk                005488fe f   LIBCMT:fclose.obj
 0001:0014850a       _fclose                    0054894a f   LIBCMT:fclose.obj
 0001:0014855b       __ftell_lk                 0054899b f   LIBCMT:ftell.obj
 0001:001486bd       _ftell                     00548afd f   LIBCMT:ftell.obj
 0001:001486fe       __fseek_lk                 00548b3e f   LIBCMT:fseek.obj
 0001:0014878d       _fseek                     00548bcd f   LIBCMT:fseek.obj
 0001:001487d6       __fsopen                   00548c16 f   LIBCMT:fopen.obj
 0001:00148832       _fopen                     00548c72 f   LIBCMT:fopen.obj
 0001:00148860       _strchr                    00548ca0 f   LIBCMT:strchr.obj
 0001:00148866       ___from_strstr_to_strchr   00548ca6     LIBCMT:strchr.obj
 0001:0014891e       _fprintf                   00548d5e f   LIBCMT:fprintf.obj
 0001:0014897c       ??_L@YGXPAXIHP6EX0@Z1@Z    00548dbc f   LIBCMT:ehvecctr.obj
 0001:001489de       ?__ArrayUnwind@@YGXPAXIHP6EX0@Z@Z 00548e1e f   LIBCMT:ehvecdtr.obj
 0001:00148a3c       ??_M@YGXPAXIHP6EX0@Z@Z     00548e7c f   LIBCMT:ehvecdtr.obj
 0001:00148a9c       _floor                     00548edc f   LIBCMT:floor.obj
 0001:00148b6a       __wcsupr                   00548faa f   LIBCMT:wcsupr.obj
 0001:00148b96       __wcslwr                   00548fd6 f   LIBCMT:wcslwr.obj
 0001:00148bd0       _strrchr                   00549010 f   LIBCMT:strrchr.obj
 0001:00148c00       __allmul                   00549040 f   LIBCMT:llmul.obj
 0001:00148c40       _memmove                   00549080 f   LIBCMT:memmove.obj
 0001:00148f80       __SEH_prolog               005493c0 f   LIBCMT:sehprolg.obj
 0001:00148fbb       __SEH_epilog               005493fb f   LIBCMT:sehprolg.obj
 0001:00148fcc       __snprintf                 0054940c f   LIBCMT:snprintf.obj
 0001:00149023       __snwprintf                00549463 f   LIBCMT:snwprint.obj
 0001:00149093       _wcscmp                    005494d3 f   LIBCMT:wcscmp.obj
 0001:001490c5       _wcslen                    00549505 f   LIBCMT:wcslen.obj
 0001:001490db       _strcmpi                   0054951b f   LIBCMT:stricmp.obj
 0001:001490db       __stricmp                  0054951b f   LIBCMT:stricmp.obj
 0001:001490db       __strcmpi                  0054951b f   LIBCMT:stricmp.obj
 0001:001490db       _stricmp                   0054951b f   LIBCMT:stricmp.obj
 0001:00149120       __aulldiv                  00549560 f   LIBCMT:ulldiv.obj
 0001:00149188       __fpclass                  005495c8 f   LIBCMT:ieeemisc.obj
 0001:00149222       __purecall                 00549662 f   LIBCMT:purevirt.obj
 0001:00149230       _strncat                   00549670 f   LIBCMT:strncat.obj
 0001:00149365       __fwrite_lk                005497a5 f   LIBCMT:fwrite.obj
 0001:0014947c       _fwrite                    005498bc f   LIBCMT:fwrite.obj
 0001:001494c8       _fputc                     00549908 f   LIBCMT:fputc.obj
 0001:00149640       __control87                00549a80 f   LIBCMT:ieee87.obj
 0001:00149672       __controlfp                00549ab2 f   LIBCMT:ieee87.obj
 0001:00149690       __allrem                   00549ad0 f   LIBCMT:llrem.obj
 0001:00149742       __heap_alloc               00549b82 f   LIBCMT:malloc.obj
 0001:00149769       __nh_malloc                00549ba9 f   LIBCMT:malloc.obj
 0001:00149795       _malloc                    00549bd5 f   LIBCMT:malloc.obj
 0001:001497a7       _free                      00549be7 f   LIBCMT:free.obj
 0001:001497ff       _realloc                   00549c3f f   LIBCMT:realloc.obj
 0001:001498ec       __forcdecpt                00549d2c f   LIBCMT:cvt.obj
 0001:00149944       __cropzeros                00549d84 f   LIBCMT:cvt.obj
 0001:0014998f       __positive                 00549dcf f   LIBCMT:cvt.obj
 0001:001499a9       __fassign                  00549de9 f   LIBCMT:cvt.obj
 0001:00149ab3       __cftoe                    00549ef3 f   LIBCMT:cvt.obj
 0001:00149bba       __cftof                    00549ffa f   LIBCMT:cvt.obj
 0001:00149c0c       __cftog                    0054a04c f   LIBCMT:cvt.obj
 0001:00149c99       __cfltcvt                  0054a0d9 f   LIBCMT:cvt.obj
 0001:00149cea       __setdefaultprecision      0054a12a f   LIBCMT:fp8.obj
 0001:00149cfc       __flsbuf                   0054a13c f   LIBCMT:_flsbuf.obj
 0001:00149ea3       __output                   0054a2e3 f   LIBCMT:output.obj
 0001:0014a6b7       ___FrameUnwindToState      0054aaf7 f   LIBCMT:frame.obj
 0001:0014a77e       ___DestructExceptionObject 0054abbe f   LIBCMT:frame.obj
 0001:0014ae0c       ___InternalCxxFrameHandler 0054b24c f   LIBCMT:frame.obj
 0001:0014aeae       ?terminate@@YAXXZ          0054b2ee f   LIBCMT:hooks.obj
 0001:0014aeea       ?_inconsistency@@YAXXZ     0054b32a f   LIBCMT:hooks.obj
 0001:0014af17       __getptd                   0054b357 f   LIBCMT:tidtable.obj
 0001:0014af99       __freeptd                  0054b3d9 f   LIBCMT:tidtable.obj
 0001:0014b0ae       __mtinit                   0054b4ee f   LIBCMT:tidtable.obj
 0001:0014b130       __CallSettingFrame@12      0054b570 f   LIBCMT:lowhelpr.obj
 0001:0014b157       __NLG_Return               0054b597     LIBCMT:lowhelpr.obj
 0001:0014b1c4       __input                    0054b604 f   LIBCMT:input.obj
 0001:0014bd5e       __ismbcspace               0054c19e f   LIBCMT:ismbspc.obj
 0001:0014bd90       __trandisp1                0054c1d0 f   LIBCMT:87disp.obj
 0001:0014bdf7       __trandisp2                0054c237 f   LIBCMT:87disp.obj
 0001:0014be83       __rttospopde               0054c2c3     LIBCMT:87disp.obj
 0001:0014be88       __rttospop                 0054c2c8     LIBCMT:87disp.obj
 0001:0014be8a       __rtnospop                 0054c2ca     LIBCMT:87disp.obj
 0001:0014be8c       __rttosnpop                0054c2cc     LIBCMT:87disp.obj
 0001:0014be8d       __rtnospopde               0054c2cd     LIBCMT:87disp.obj
 0001:0014be94       __rtzeropop                0054c2d4     LIBCMT:87disp.obj
 0001:0014be96       __rtzeronpop               0054c2d6     LIBCMT:87disp.obj
 0001:0014be9b       __rtonepop                 0054c2db     LIBCMT:87disp.obj
 0001:0014be9d       __rtonenpop                0054c2dd     LIBCMT:87disp.obj
 0001:0014bea2       __tosnan1                  0054c2e2     LIBCMT:87disp.obj
 0001:0014becd       __nosnan2                  0054c30d     LIBCMT:87disp.obj
 0001:0014becf       __tosnan2                  0054c30f     LIBCMT:87disp.obj
 0001:0014bef7       __nan2                     0054c337     LIBCMT:87disp.obj
 0001:0014bf36       __rtindfpop                0054c376     LIBCMT:87disp.obj
 0001:0014bf38       __rtindfnpop               0054c378     LIBCMT:87disp.obj
 0001:0014bf49       __rttosnpopde              0054c389     LIBCMT:87disp.obj
 0001:0014bf53       __rtchsifneg               0054c393     LIBCMT:87disp.obj
 0001:0014bf5c       __startTwoArgErrorHandling 0054c39c f   LIBCMT:genexcep.obj
 0001:0014bf73       __startOneArgErrorHandling 0054c3b3 f   LIBCMT:genexcep.obj
 0001:0014bfb0       __twoToTOS                 0054c3f0 f   LIBCMT:common.obj
 0001:0014bfc5       __load_CW                  0054c405 f   LIBCMT:common.obj
 0001:0014bfdc       __convertTOStoQNaN         0054c41c f   LIBCMT:common.obj
 0001:0014bff5       __fload_withFB             0054c435 f   LIBCMT:common.obj
 0001:0014c038       __checkTOS_withFB          0054c478 f   LIBCMT:common.obj
 0001:0014c04e       __fast_exit                0054c48e f   LIBCMT:common.obj
 0001:0014c05b       __math_exit                0054c49b f   LIBCMT:common.obj
 0001:0014c085       __check_overflow_exit      0054c4c5 f   LIBCMT:common.obj
 0001:0014c099       __check_range_exit         0054c4d9 f   LIBCMT:common.obj
 0001:0014c13c       __cintrindisp2             0054c57c f   LIBCMT:87cdisp.obj
 0001:0014c17a       __cintrindisp1             0054c5ba f   LIBCMT:87cdisp.obj
 0001:0014c1b7       __ctrandisp2               0054c5f7 f   LIBCMT:87cdisp.obj
 0001:0014c34d       __ctrandisp1               0054c78d f   LIBCMT:87cdisp.obj
 0001:0014c380       __fload                    0054c7c0 f   LIBCMT:87cdisp.obj
 0001:0014c3bc       __msize                    0054c7fc f   LIBCMT:msize.obj
 0001:0014c415       __mtinitlocks              0054c855 f   LIBCMT:mlock.obj
 0001:0014c45e       __mtdeletelocks            0054c89e f   LIBCMT:mlock.obj
 0001:0014c487       __unlock                   0054c8c7 f   LIBCMT:mlock.obj
 0001:0014c499       __mtinitlocknum            0054c8d9 f   LIBCMT:mlock.obj
 0001:0014c515       __lock                     0054c955 f   LIBCMT:mlock.obj
 0001:0014c543       __fltin2                   0054c983 f   LIBCMT:cfin.obj
 0001:0014c5c8       __isctype                  0054ca08 f   LIBCMT:isctype.obj
 0001:0014c5e9       __filbuf                   0054ca29 f   LIBCMT:_filbuf.obj
 0001:0014c6ca       __read_lk                  0054cb0a f   LIBCMT:read.obj
 0001:0014c893       __read                     0054ccd3 f   LIBCMT:read.obj
 0001:0014c93e       ___initstdio               0054cd7e f   LIBCMT:_file.obj
 0001:0014c9e7       ___endstdio                0054ce27 f   LIBCMT:_file.obj
 0001:0014c9fb       __lock_file                0054ce3b f   LIBCMT:_file.obj
 0001:0014ca2a       __lock_file2               0054ce6a f   LIBCMT:_file.obj
 0001:0014ca4d       __unlock_file              0054ce8d f   LIBCMT:_file.obj
 0001:0014ca7c       __unlock_file2             0054cebc f   LIBCMT:_file.obj
 0001:0014ca9f       __close_lk                 0054cedf f   LIBCMT:close.obj
 0001:0014cb20       __close                    0054cf60 f   LIBCMT:close.obj
 0001:0014cbbb       __freebuf                  0054cffb f   LIBCMT:_freebuf.obj
 0001:0014cbe6       __flush                    0054d026 f   LIBCMT:fflush.obj
 0001:0014cc43       __fflush_lk                0054d083 f   LIBCMT:fflush.obj
 0001:0014cd46       __flushall                 0054d186 f   LIBCMT:fflush.obj
 0001:0014cd4f       __errno                    0054d18f f   LIBCMT:dosmap.obj
 0001:0014cd58       ___doserrno                0054d198 f   LIBCMT:dosmap.obj
 0001:0014cd61       __dosmaperr                0054d1a1 f   LIBCMT:dosmap.obj
 0001:0014cdd4       __ioinit                   0054d214 f   LIBCMT:ioinit.obj
 0001:0014ce39       __lseek_lk                 0054d279 f   LIBCMT:lseek.obj
 0001:0014ceab       __lseek                    0054d2eb f   LIBCMT:lseek.obj
 0001:0014cf56       __openfile                 0054d396 f   LIBCMT:_open.obj
 0001:0014d0be       __getstream                0054d4fe f   LIBCMT:stream.obj
 0001:0014d1e0       __stbuf                    0054d620 f   LIBCMT:_sftbuf.obj
 0001:0014d268       __ftbuf                    0054d6a8 f   LIBCMT:_sftbuf.obj
 0001:0014d292       __raise_exc                0054d6d2 f   LIBCMT:fpexcept.obj
 0001:0014d536       __handle_exc               0054d976 f   LIBCMT:fpexcept.obj
 0001:0014d721       __set_errno                0054db61 f   LIBCMT:fpexcept.obj
 0001:0014d749       __errcode                  0054db89 f   LIBCMT:fpexcept.obj
 0001:0014d776       __umatherr                 0054dbb6 f   LIBCMT:fpexcept.obj
 0001:0014d814       __handle_qnan1             0054dc54 f   LIBCMT:fpexcept.obj
 0001:0014d867       __except1                  0054dca7 f   LIBCMT:fpexcept.obj
 0001:0014d907       __frnd                     0054dd47 f   LIBCMT:frnd.obj
 0001:0014d91a       __set_exp                  0054dd5a f   LIBCMT:util.obj
 0001:0014d944       __sptype                   0054dd84 f   LIBCMT:util.obj
 0001:0014d99f       __decomp                   0054dddf f   LIBCMT:util.obj
 0001:0014da51       __statfp                   0054de91 f   LIBCMT:fpctrl.obj
 0001:0014da5e       __clrfp                    0054de9e f   LIBCMT:fpctrl.obj
 0001:0014da6c       __ctrlfp                   0054deac f   LIBCMT:fpctrl.obj
 0001:0014da90       __set_statfp               0054ded0 f   LIBCMT:fpctrl.obj
 0001:0014daf4       __except_handler3          0054df34 f   LIBCMT:exsup3.obj
 0001:0014dbb1       __seh_longjmp_unwind@4     0054dff1 f   LIBCMT:exsup3.obj
 0001:0014dc53       __woutput                  0054e093 f   LIBCMT:woutput.obj
 0001:0014e417       _tolower                   0054e857 f   LIBCMT:tolower.obj
 0001:0014e450       ___ascii_stricmp           0054e890 f   LIBCMT:_stricmp.obj
 0001:0014e49e       __amsg_exit                0054e8de f   LIBCMT:crt0.obj
 0001:0014e4ba       __write_lk                 0054e8fa f   LIBCMT:write.obj
 0001:0014e645       __write                    0054ea85 f   LIBCMT:write.obj
 0001:0014e6f0       __callnewh                 0054eb30 f   LIBCMT:handler.obj
 0001:0014e70b       __ZeroTail                 0054eb4b f   LIBCMT:intrncvt.obj
 0001:0014e73d       __IncMan                   0054eb7d f   LIBCMT:intrncvt.obj
 0001:0014e78a       __RoundMan                 0054ebca f   LIBCMT:intrncvt.obj
 0001:0014e7fc       __CopyMan                  0054ec3c f   LIBCMT:intrncvt.obj
 0001:0014e817       __IsZeroMan                0054ec57 f   LIBCMT:intrncvt.obj
 0001:0014e830       __ShrMan                   0054ec70 f   LIBCMT:intrncvt.obj
 0001:0014e8ab       __ld12cvt                  0054eceb f   LIBCMT:intrncvt.obj
 0001:0014ea03       __ld12tod                  0054ee43 f   LIBCMT:intrncvt.obj
 0001:0014ea19       __ld12tof                  0054ee59 f   LIBCMT:intrncvt.obj
 0001:0014ea2f       __atodbl                   0054ee6f f   LIBCMT:intrncvt.obj
 0001:0014ea5c       __atoflt                   0054ee9c f   LIBCMT:intrncvt.obj
 0001:0014ea89       __fptostr                  0054eec9 f   LIBCMT:_fptostr.obj
 0001:0014eb08       ___dtold                   0054ef48 f   LIBCMT:cfout.obj
 0001:0014ebc2       __fltout2                  0054f002 f   LIBCMT:cfout.obj
 0001:0014ec28       __fptrap                   0054f068 f   LIBCMT:crt0fp.obj
 0001:0014ec31       __getbuf                   0054f071 f   LIBCMT:_getbuf.obj
 0001:0014ec75       __isatty                   0054f0b5 f   LIBCMT:isatty.obj
 0001:0014ec9f       _wctomb                    0054f0df f   LIBCMT:wctomb.obj
 0001:0014ecd0       __aulldvrm                 0054f110 f   LIBCMT:ulldvrm.obj
 0001:0014ed65       ?__CxxUnhandledExceptionFilter@@YGJPAU_EXCEPTION_POINTERS@@@Z 0054f1a5 f   LIBCMT:unhandld.obj
 0001:0014edab       ?__CxxSetUnhandledExceptionFilter@@YAHXZ 0054f1eb f   LIBCMT:unhandld.obj
 0001:0014edbd       ?__CxxRestoreUnhandledExceptionFilter@@YAXXZ 0054f1fd f   LIBCMT:unhandld.obj
 0001:0014edc9       ?_ValidateRead@@YAHPBXI@Z  0054f209 f   LIBCMT:validate.obj
 0001:0014ede4       ?_ValidateWrite@@YAHPAXI@Z 0054f224 f   LIBCMT:validate.obj
 0001:0014edff       ?_ValidateExecute@@YAHP6GHXZ@Z 0054f23f f   LIBCMT:validate.obj
 0001:0014ee16       _calloc                    0054f256 f   LIBCMT:calloc.obj
 0001:0014ef9d       __setmbcp                  0054f3dd f   LIBCMT:mbctype.obj
 0001:0014f0be       ___initmbctable            0054f4fe f   LIBCMT:mbctype.obj
 0001:0014f0e6       __mtxthreadnotification@4  0054f526 f   LIBCMT:thread.obj
 0001:0014f110       __ungetc_lk                0054f550 f   LIBCMT:ungetc.obj
 0001:0014f17c       _isalpha                   0054f5bc f   LIBCMT:_ctype.obj
 0001:0014f1aa       _isdigit                   0054f5ea f   LIBCMT:_ctype.obj
 0001:0014f1d3       _isspace                   0054f613 f   LIBCMT:_ctype.obj
 0001:0014f1fc       _isalnum                   0054f63c f   LIBCMT:_ctype.obj
 0001:0014f22a       _mbtowc                    0054f66a f   LIBCMT:mbtowc.obj
 0001:0014f261       __87except                 0054f6a1 f   LIBCMT:87except.obj
 0001:0014f34e       ___crtInitCritSecAndSpinCount 0054f78e f   LIBCMT:initcrit.obj
 0001:0014f3af       ___strgtold12              0054f7ef f   LIBCMT:strgtold.obj
 0001:0014f826       __set_osfhnd               0054fc66 f   LIBCMT:osfinfo.obj
 0001:0014f86c       __free_osfhnd              0054fcac f   LIBCMT:osfinfo.obj
 0001:0014f8b5       __get_osfhandle            0054fcf5 f   LIBCMT:osfinfo.obj
 0001:0014f8f6       __lock_fhandle             0054fd36 f   LIBCMT:osfinfo.obj
 0001:0014f969       __unlock_fhandle           0054fda9 f   LIBCMT:osfinfo.obj
 0001:0014f98b       __alloc_osfhnd             0054fdcb f   LIBCMT:osfinfo.obj
 0001:0014fad8       __fcloseall                0054ff18 f   LIBCMT:closeall.obj
 0001:0014fb5c       __commit                   0054ff9c f   LIBCMT:commit.obj
 0001:0014feac       __sopen                    005502ec f   LIBCMT:open.obj
 0001:0014ff01       __matherr                  00550341 f   LIBCMT:matherr.obj
 0001:0014ff04       __putwc_lk                 00550344 f   LIBCMT:fputwc.obj
 0001:0014ffc9       __NMSG_WRITE               00550409 f   LIBCMT:crt0msg.obj
 0001:0014fff5       __FF_MSGBANNER             00550435 f   LIBCMT:crt0msg.obj
 0001:00150017       __lseeki64_lk              00550457 f   LIBCMT:lseeki64.obj
 0001:00150098       ___addl                    005504d8 f   LIBCMT:mantold.obj
 0001:001500b9       ___add_12                  005504f9 f   LIBCMT:mantold.obj
 0001:00150117       ___shl_12                  00550557 f   LIBCMT:mantold.obj
 0001:00150145       ___shr_12                  00550585 f   LIBCMT:mantold.obj
 0001:00150172       ___mtold12                 005505b2 f   LIBCMT:mantold.obj
 0001:00150240       _$I10_OUTPUT               00550680 f   LIBCMT:x10fout.obj
 0001:001504b7       ___ld12mul                 005508f7 f   LIBCMT:tenpow.obj
 0001:001506d9       ___multtenpow12            00550b19 f   LIBCMT:tenpow.obj
 0001:0015074f       __chsize_lk                00550b8f f   LIBCMT:chsize.obj
 0001:00150872       __flswbuf                  00550cb2 f   LIBCMT:_flswbuf.obj
 0001:0015099a       __setmode_lk               00550dda f   LIBCMT:setmode.obj
 0001:00150a00       _ReadFile@20               00550e40 f   xapilib:filehops.obj
 0001:00150aed       _WriteFile@20              00550f2d f   xapilib:filehops.obj
 0001:00150bc3       _SetEndOfFile@4            00551003 f   xapilib:filehops.obj
 0001:00150c47       _SetFilePointer@16         00551087 f   xapilib:filehops.obj
 0001:00150d41       _GetFileInformationByHandle@8 00551181 f   xapilib:filehops.obj
 0001:00150e19       _FlushFileBuffers@4        00551259 f   xapilib:filehops.obj
 0001:00150e40       _GetFileSizeEx@8           00551280 f   xapilib:filehops.obj
 0001:00150e7e       _ReadFileEx@20             005512be f   xapilib:filehops.obj
 0001:00150ecf       _WriteFileEx@20            0055130f f   xapilib:filehops.obj
 0001:00150f20       _GetFileSize@8             00551360 f   xapilib:filehops.obj
 0001:00150f5b       _CreateFileA@28            0055139b f   xapilib:fileopcr.obj
 0001:001510e6       _DebugBreak@0              00551526 f   xapilib:kthunks.obj
 0001:001510eb       _GetSystemTimeAsFileTime@4 0055152b f   xapilib:kthunks.obj
 0001:001510f1       _XPhysicalAlloc@16         00551531 f   xapilib:physical.obj
 0001:00151134       _XPhysicalProtect@12       00551574 f   xapilib:physical.obj
 0001:00151144       _XPhysicalFree@4           00551584 f   xapilib:physical.obj
 0001:0015114a       _XboxTimeZoneNameToWstr@8  0055158a f i xapilib:datetime.obj
 0001:0015116b       _XboxTimeZoneDateToSystemTime@8 005515ab f i xapilib:datetime.obj
 0001:001511a3       _XapipQueryTimeZoneInformation@8 005515e3 f   xapilib:datetime.obj
 0001:0015124d       _GetTickCount@0            0055168d f   xapilib:datetime.obj
 0001:00151255       _FileTimeToSystemTime@8    00551695 f   xapilib:datetime.obj
 0001:001512c0       _SystemTimeToFileTime@8    00551700 f   xapilib:datetime.obj
 0001:00151335       _RtlpCutoverTimeToSystemTime@16 00551775 f   xapilib:datetime.obj
 0001:0015153f       _GetTimeZoneInformation@4  0055197f f   xapilib:datetime.obj
 0001:0015169b       _XapipGetTimeZoneBias@4    00551adb f   xapilib:datetime.obj
 0001:001516f1       _GetLocalTime@4            00551b31 f   xapilib:datetime.obj
 0001:00151770       _FileTimeToLocalFileTime@8 00551bb0 f   xapilib:datetime.obj
 0001:0015179b       _XShaHmacInitialize@12     00551bdb f   xapilib:xcalcsig.obj
 0001:001517fd       _XShaHmacComputeFinal@16   00551c3d f   xapilib:xcalcsig.obj
 0001:0015186f       _XapiConvertSignatureToNonRoamable@12 00551caf f   xapilib:xcalcsig.obj
 0001:001518aa       _XCalculateSignatureBeginEx@8 00551cea f   xapilib:xcalcsig.obj
 0001:00151925       _XCalculateSignatureUpdate@12 00551d65 f   xapilib:xcalcsig.obj
 0001:0015193f       _XCalculateSignatureEnd@8  00551d7f f   xapilib:xcalcsig.obj
 0001:0015199c       _XCalculateSignatureBegin@4 00551ddc f   xapilib:xcalcsig.obj
 0001:001519b0       _HexDigitToChar@4          00551df0 f i xapilib:xsaveapi.obj
 0001:001519c4       _XapiSaveGameHashEncode@12 00551e04 f   xapilib:xsaveapi.obj
 0001:00151a56       _XapiValidateAndSkipUnicodeSignature@4 00551e96 f   xapilib:xsaveapi.obj
 0001:00151a9a       _XapiFindValueInMetaFile@16 00551eda f   xapilib:xsaveapi.obj
 0001:00151c25       _XapiFillInSaveGameData@12 00552065 f   xapilib:xsaveapi.obj
 0001:00151d25       _XapiVerifyGameName@8      00552165 f   xapilib:xsaveapi.obj
 0001:00151da3       _XapiTouchDirectoryTimestamp@4 005521e3 f   xapilib:xsaveapi.obj
 0001:00151dff       _XCreateSaveGame@24        0055223f f   xapilib:xsaveapi.obj
 0001:00152062       _XDeleteSaveGame@8         005524a2 f   xapilib:xsaveapi.obj
 0001:00152131       _XFindFirstSaveGame@8      00552571 f   xapilib:xsaveapi.obj
 0001:00152238       _XFindNextSaveGame@8       00552678 f   xapilib:xsaveapi.obj
 0001:0015227f       _XFindClose@4              005526bf f   xapilib:xsaveapi.obj
 0001:001522cb       _VirtualAlloc@16           0055270b f   xapilib:virtual.obj
 0001:001522f9       _VirtualFree@12            00552739 f   xapilib:virtual.obj
 0001:00152335       _GlobalMemoryStatus@4      00552775 f   xapilib:virtual.obj
 0001:00152384       _OutputDebugStringA@4      005527c4 f   xapilib:debug.obj
 0001:001523b6       _QueryPerformanceCounter@4 005527f6 f   xapilib:perfctr.obj
 0001:001523c7       _QueryPerformanceFrequency@4 00552807 f   xapilib:perfctr.obj
 0001:001523db       _XapiDirectoryInformationToFindData@8 0055281b f   xapilib:filefind.obj
 0001:00152447       _FindFirstFileA@8          00552887 f   xapilib:filefind.obj
 0001:00152554       _FindNextFileA@8           00552994 f   xapilib:filefind.obj
 0001:001525a5       _MoveFileA@8               005529e5 f   xapilib:filemisc.obj
 0001:0015263b       _DeleteFileA@4             00552a7b f   xapilib:filemisc.obj
 0001:001526c9       _XOpenSoundtrackSong@8     00552b09 f   xapilib:xsndtrk.obj
 0001:00152759       _IsBadReadPtr@8            00552b99 f   xapilib:process.obj
 0001:001527be       _IsBadWritePtr@8           00552bfe f   xapilib:process.obj
 0001:00152827       _IsBadCodePtr@4            00552c67 f   xapilib:process.obj
 0001:00152835       _CreateDirectoryA@8        00552c75 f   xapilib:dir.obj
 0001:001528a1       _RemoveDirectoryA@4        00552ce1 f   xapilib:dir.obj
 0001:0015292f       _XapiNukeDirectoryFromHandle@8 00552d6f f   xapilib:xclndrv.obj
 0001:00152aac       _XapiNukeDirectory@4       00552eec f   xapilib:xclndrv.obj
 0001:00152b19       _XGWriteSurfaceOrTextureToXPR@12 00552f59 f   xgraphics:writexpr.obj
 0001:00155783       ?CodeRGBBlock@@YGXPAU_RGBBlock@@@Z 00555bc3 f   xgraphics:s3_quant.obj
 0001:00156707       ?CodeAlphaBlock@@YGXPAU_AlphaBlock@@@Z 00556b47 f   xgraphics:s3_quant.obj
 0001:00156a62       _prvAdaptTrigToSubframeConfig_XDS@4 00556ea2 f   dsound:float.obj
 0001:00156bf5       _prvInverseQuantizeLowRate_XDS@12 00557035 f   dsound:float.obj
 0001:00156f94       _RtlUnwind@16              005573d4 f   xboxkrnl:xboxkrnl.exe
 0001:00156f9a       _DbgBreakPoint@0           005573da f   xboxkrnl:xboxkrnl.exe
 0001:00156fa0       _XcSHAUpdate@12            005573e0 f   xboxkrnl:xboxkrnl.exe
 0001:00156fa6       _XcSHAInit@4               005573e6 f   xboxkrnl:xboxkrnl.exe
 0001:00156fac       _XcSHAFinal@8              005573ec f   xboxkrnl:xboxkrnl.exe
 0001:00156fc0       _strlwr                    00557400 f   LIBCMT:strlwr.obj
 0001:00156fc0       __strlwr                   00557400 f   LIBCMT:strlwr.obj
 0001:00156fe3       __vsnprintf                00557423 f   LIBCMT:vsnprint.obj
 0001:00157040       __aullshr                  00557480 f   LIBCMT:ullshr.obj
 0001:00157060       __aullrem                  005574a0 f   LIBCMT:ullrem.obj
 0001:001570d5       _wcsncpy                   00557515 f   LIBCMT:wcsncpy.obj
 0001:00157112       _wcsstr                    00557552 f   LIBCMT:wcsstr.obj
 0001:00157170       __allshr                   005575b0 f   LIBCMT:llshr.obj
 0001:001571a0       _strncmp                   005575e0 f   LIBCMT:strncmp.obj
 0001:00157217       __itoa                     00557657 f   LIBCMT:xtoa.obj
 0001:00157244       _pow                       00557684 f   LIBCMT:pow.obj
 0001:00157248       __CIpow                    00557688 f   LIBCMT:pow.obj
 0001:0015724a       __CIpow_default            0055768a f   LIBCMT:pow.obj
 0001:00157263       __pow_default              005576a3     LIBCMT:pow.obj
 0001:0015746d       __fFEXP                    005578ad     LIBCMT:87tran.obj
 0001:001574c4       __rtinfpopse               00557904     LIBCMT:87tran.obj
 0001:001574c6       __rtinfnpopse              00557906     LIBCMT:87tran.obj
 0001:001574d6       __fFLN                     00557916     LIBCMT:87tran.obj
 0001:0015758b       __rtinfpop                 005579cb     LIBCMT:87tran.obj
 0001:0015758d       __rtinfnpop                005579cd     LIBCMT:87tran.obj
 0001:001575aa       __ffexpm1                  005579ea     LIBCMT:87tran.obj
 0001:00157653       __d_inttype                00557a93 f   LIBCMT:powhlp.obj
 0001:001576b4       __powhlp                   00557af4 f   LIBCMT:powhlp.obj
 0002:00000000       _D3DDevice_SetRenderState_MultiSampleMode@4 0055e480 f   d3d8:state.obj
 0002:00000030       _D3DDevice_SetRenderState_MultiSampleRenderTargetMode@4 0055e4b0 f   d3d8:state.obj
 0002:00000060       _D3DDevice_SetRenderState_PSTextureModes@4 0055e4e0 f   d3d8:state.obj
 0002:00000090       @D3DDevice_SetRenderState_Simple@8 0055e510 f   d3d8:state.obj
 0002:000000c0       _D3DDevice_SetRenderStateNotInline@8 0055e540 f   d3d8:state.obj
 0002:00000120       _D3DDevice_GetViewportOffsetAndScale@8 0055e5a0 f   d3d8:state.obj
 0002:00000250       ?UpdateProjectionViewportTransform@D3D@@YGXXZ 0055e6d0 f   d3d8:state.obj
 0002:00000390       _D3DDevice_SetRenderState_EdgeAntiAlias@4 0055e810 f   d3d8:state.obj
 0002:000003d0       _D3DDevice_SetRenderState_ShadowFunc@4 0055e850 f   d3d8:state.obj
 0002:00000410       _D3DDevice_SetRenderState_FogColor@4 0055e890 f   d3d8:state.obj
 0002:00000460       _D3DDevice_SetRenderState_CullMode@4 0055e8e0 f   d3d8:state.obj
 0002:000004d0       _D3DDevice_SetRenderState_FrontFace@4 0055e950 f   d3d8:state.obj
 0002:00000510       _D3DDevice_SetRenderState_NormalizeNormals@4 0055e990 f   d3d8:state.obj
 0002:00000550       _D3DDevice_SetRenderState_TextureFactor@4 0055e9d0 f   d3d8:state.obj
 0002:000005b0       _D3DDevice_SetRenderState_LineWidth@4 0055ea30 f   d3d8:state.obj
 0002:00000620       _D3DDevice_SetRenderState_Dxt1NoiseEnable@4 0055eaa0 f   d3d8:state.obj
 0002:000006a0       _D3DDevice_SetRenderState_ZBias@4 0055eb20 f   d3d8:state.obj
 0002:00000720       _D3DDevice_SetRenderState_LogicOp@4 0055eba0 f   d3d8:state.obj
 0002:00000780       _D3DDevice_SetRenderState_FillMode@4 0055ec00 f   d3d8:state.obj
 0002:000007d0       _D3DDevice_SetRenderState_BackFillMode@4 0055ec50 f   d3d8:state.obj
 0002:00000830       _D3DDevice_SetRenderState_TwoSidedLighting@4 0055ecb0 f   d3d8:state.obj
 0002:000008a0       _D3DDevice_SetRenderState_VertexBlend@4 0055ed20 f   d3d8:state.obj
 0002:000008f0       _D3DDevice_SetTextureState_TexCoordIndex@8 0055ed70 f   d3d8:state.obj
 0002:00000a10       _D3DDevice_SetTextureState_BumpEnv@12 0055ee90 f   d3d8:state.obj
 0002:00000a80       _D3DDevice_SetTextureState_BorderColor@8 0055ef00 f   d3d8:state.obj
 0002:00000ac0       _D3DDevice_SetTextureState_ColorKeyColor@8 0055ef40 f   d3d8:state.obj
 0002:00000b00       _D3DDevice_SetTextureStageStateNotInline@12 0055ef80 f   d3d8:state.obj
 0002:00000bf0       ?CommonSetTextureBumpEnv@D3D@@YIPCKPAVCDevice@1@PCK@Z 0055f070 f   d3d8:state.obj
 0002:00000c40       ?CommonSetViewport@D3D@@YIPCKPAVCDevice@1@PCK@Z 0055f0c0 f   d3d8:state.obj
 0002:00000e30       ?CommonSetControl0@D3D@@YIPCKPAVCDevice@1@PCK@Z 0055f2b0 f   d3d8:state.obj
 0002:00000e90       ?CommonSetDebugRegisters@D3D@@YIXXZ 0055f310 f   d3d8:state.obj
 0002:00000f60       _D3DDevice_SetRenderState_ZEnable@4 0055f3e0 f   d3d8:state.obj
 0002:00000ff0       _D3DDevice_SetRenderState_StencilEnable@4 0055f470 f   d3d8:state.obj
 0002:00001080       _D3DDevice_SetRenderState_StencilFail@4 0055f500 f   d3d8:state.obj
 0002:000010f0       _D3DDevice_SetRenderState_YuvEnable@4 0055f570 f   d3d8:state.obj
 0002:00001120       _D3DDevice_SetRenderState_OcclusionCullEnable@4 0055f5a0 f   d3d8:state.obj
 0002:00001190       _D3DDevice_SetRenderState_StencilCullEnable@4 0055f610 f   d3d8:state.obj
 0002:00001200       _D3DDevice_SetRenderState_RopZCmpAlwaysRead@4 0055f680 f   d3d8:state.obj
 0002:00001220       _D3DDevice_SetRenderState_RopZRead@4 0055f6a0 f   d3d8:state.obj
 0002:00001240       _D3DDevice_SetRenderState_DoNotCullUncompressed@4 0055f6c0 f   d3d8:state.obj
 0002:00001260       _D3DDevice_SetRenderState_MultiSampleAntiAlias@4 0055f6e0 f   d3d8:state.obj
 0002:000012c0       _D3DDevice_SetRenderState_MultiSampleMask@4 0055f740 f   d3d8:state.obj
 0002:00001320       _D3DDevice_GetDeviceCaps@4 0055f7a0 f   d3d8:d3dbase.obj
 0002:00001340       _D3DDevice_CreateTexture@28 0055f7c0 f   d3d8:d3dbase.obj
 0002:00001370       _D3DDevice_SetTransform@8  0055f7f0 f   d3d8:d3dbase.obj
 0002:00001480       _D3DDevice_SetMaterial@4   0055f900 f   d3d8:d3dbase.obj
 0002:000014b0       _D3DDevice_Release@0       0055f930 f   d3d8:d3dbase.obj
 0002:000014f0       _D3DDevice_BlockUntilVerticalBlank@0 0055f970 f   d3d8:d3dbase.obj
 0002:00001520       _D3DDevice_SetFlickerFilter@4 0055f9a0 f   d3d8:d3dbase.obj
 0002:00001570       _D3DDevice_SetSoftDisplayFilter@4 0055f9f0 f   d3d8:d3dbase.obj
 0002:000015d0       ?GetPitch@PixelJar@D3D@@YGKPAUD3DPixelContainer@@@Z 0055fa50 f i d3d8:d3dbase.obj
 0002:00001630       _D3DDevice_SetRenderTarget@8 0055fab0 f   d3d8:d3dbase.obj
 0002:00001b60       _D3DDevice_GetBackBuffer@12 0055ffe0 f   d3d8:d3dbase.obj
 0002:00001ba0       _D3DDevice_GetDepthStencilSurface@4 00560020 f   d3d8:d3dbase.obj
 0002:00001bd0       _D3DDevice_SetViewport@4   00560050 f   d3d8:d3dbase.obj
 0002:00001d30       _D3DDevice_SetLight@8      005601b0 f   d3d8:d3dbase.obj
 0002:00001f10       _D3DDevice_LightEnable@8   00560390 f   d3d8:d3dbase.obj
 0002:00002000       _D3DDevice_SetTexture@8    00560480 f   d3d8:d3dbase.obj
 0002:00002180       _D3DDevice_SetPalette@8    00560600 f   d3d8:d3dbase.obj
 0002:00002210       _D3DDevice_IsBusy@0        00560690 f   d3d8:d3dbase.obj
 0002:00002250       ?SetTileNoWait@D3D@@YGXKPBU_D3DTILE@@@Z 005606d0 f   d3d8:d3dbase.obj
 0002:00002310       _D3DDevice_SetScissors@12  00560790 f   d3d8:d3dbase.obj
 0002:000024b0       _D3DDevice_SetScreenSpaceOffset@8 00560930 f   d3d8:d3dbase.obj
 0002:00002530       _Direct3D_CreateDevice@24  005609b0 f   d3d8:d3ddev.obj
 0002:000025f0       ?BusyLoop@D3D@@YGXXZ       00560a70 f   d3d8:pusher.obj
 0002:00002610       ?DumpMatrixTransposed@D3D@@YGXPCKKPBU_D3DMATRIX@@@Z 00560a90 f   d3d8:pusher.obj
 0002:00002680       ?InitializePushBuffer@CDevice@D3D@@QAEJXZ 00560b00 f   d3d8:pusher.obj
 0002:00002730       ?UninitializePushBuffer@CDevice@D3D@@QAEXXZ 00560bb0 f   d3d8:pusher.obj
 0002:00002750       ?ComputeGap@D3D@@YIKPAVCDevice@1@PAUFence@1@@Z 00560bd0 f   d3d8:pusher.obj
 0002:000028e0       ?FlushWCCache@D3D@@YGXXZ   00560d60 f   d3d8:pusher.obj
 0002:00002910       ?KickOff@CDevice@D3D@@QAEXXZ 00560d90 f   d3d8:pusher.obj
 0002:00002a00       ?SetFence@D3D@@YGKK@Z      00560e80 f   d3d8:pusher.obj
 0002:00002ab0       ?BlockOnTime@D3D@@YGXKH@Z  00560f30 f   d3d8:pusher.obj
 0002:00002ba0       ?MakeRequestedSpace@D3D@@YGPCKKK@Z 00561020 f   d3d8:pusher.obj
 0002:00002d20       ?MakeSpace@D3D@@YGPCKXZ    005611a0 f   d3d8:pusher.obj
 0002:00002d30       _XMETAL_StartPushCount@8   005611b0 f   d3d8:pusher.obj
 0002:00002d80       ?KickOffAndWaitForIdle@D3D@@YGXXZ 00561200 f   d3d8:pusher.obj
 0002:00002da0       ?BlockOnResource@D3D@@YGXPAUD3DResource@@@Z 00561220 f   d3d8:pusher.obj
 0002:00002e20       ?BlockOnNonSurfaceResource@D3D@@YGXPAUD3DResource@@@Z 005612a0 f   d3d8:pusher.obj
 0002:00002e60       ?ScaleVector3@D3D@@YGXPAU_D3DVECTOR@@PBU2@M@Z 005612e0 f   d3d8:math.obj
 0002:00002e90       ?AddVectors3@D3D@@YGXPAU_D3DVECTOR@@PBU2@1@Z 00561310 f   d3d8:math.obj
 0002:00002ec0       ?XformBy4x3@D3D@@YGXPAU_D3DVECTOR@@PBU2@MPBU_D3DMATRIX@@@Z 00561340 f   d3d8:math.obj
 0002:00002f20       ?MatrixProduct4x4@D3D@@YGXPAU_D3DMATRIX@@PBU2@1@Z 005613a0 f   d3d8:math.obj
 0002:00003020       ?Explut@D3D@@YGXMPAM0@Z    005614a0 f   d3d8:math.obj
 0002:00003100       ?JBInvSqrt@D3D@@YGMM@Z     00561580 f   d3d8:math.obj
 0002:00003170       ?nvInv@D3D@@YGMM@Z         005615f0 f   d3d8:math.obj
 0002:000031b0       ?NormalizeVector3@D3D@@YGXPAU_D3DVECTOR@@@Z 00561630 f   d3d8:math.obj
 0002:00003200       ?Inverse4x4@D3D@@YGHPAU_D3DMATRIX@@PBU2@H@Z 00561680 f   d3d8:math.obj
 0002:00003760       ?FloatToLong@D3D@@YGJM@Z   00561be0 f   d3d8:floatmath.obj
 0002:00003770       ?Cos@D3D@@YGMM@Z           00561bf0 f   d3d8:floatmath.obj
 0002:00003780       ?Exp@D3D@@YGMM@Z           00561c00 f   d3d8:floatmath.obj
 0002:000037e0       ?Log@D3D@@YGMM@Z           00561c60 f   d3d8:floatmath.obj
 0002:000037f0       ?InitializeVertexShaderFromFvf@D3D@@YGXPAUVertexShader@1@K@Z 00561c70 f   d3d8:vshader.obj
 0002:00003930       ?ShadowVertexShaderState@D3D@@YGXPAUVertexShader@1@K@Z 00561db0 f   d3d8:vshader.obj
 0002:000039e0       ?ParseProgram@D3D@@YGPCKPCKPBKK@Z 00561e60 f   d3d8:vshader.obj
 0002:00003a50       ?ParseDeclarationStream@D3D@@YGXPAUVertexShader@1@PBKH@Z 00561ed0 f   d3d8:vshader.obj
 0002:00003bf0       ?ParseDeclarationConstants@D3D@@YGKPBKPCK@Z 00562070 f   d3d8:vshader.obj
 0002:00003cf0       _D3DDevice_CreateVertexShader@16 00562170 f   d3d8:vshader.obj
 0002:00003e30       _D3DDevice_SetStreamSource@12 005622b0 f   d3d8:vshader.obj
 0002:00003ec0       _D3DDevice_LoadVertexShader@8 00562340 f   d3d8:vshader.obj
 0002:00003f20       _D3DDevice_SelectVertexShader@8 005623a0 f   d3d8:vshader.obj
 0002:00003fa0       _D3DDevice_SetShaderConstantMode@4 00562420 f   d3d8:vshader.obj
 0002:000040a0       ?RestoreVertexShaders@D3D@@YGXPBKK@Z 00562520 f   d3d8:vshader.obj
 0002:000040e0       _D3DDevice_DeleteVertexShader@4 00562560 f   d3d8:vshader.obj
 0002:00004100       ?CommonSetPassthroughProgram@D3D@@YIXPAVCDevice@1@@Z 00562580 f   d3d8:vshader.obj
 0002:000041f0       _D3DDevice_SetVertexShader@4 00562670 f   d3d8:vshader.obj
 0002:00004350       _D3DDevice_SetVertexShaderConstant@12 005627d0 f   d3d8:vshader.obj
 0002:000043f0       ?DacProgramVideoStart@CMiniport@D3D@@QAEXK@Z 00562870 f   d3d8:mpdac.obj
 0002:00004472       ?DacProgramGammaRamp@CMiniport@D3D@@QAEXPAU_D3DGAMMARAMP@@@Z 005628f2 f   d3d8:mpdac.obj
 0002:000044c0       _D3DTexture_GetLevelDesc@12 00562940 f   d3d8:texture.obj
 0002:000044d0       _D3DTexture_GetSurfaceLevel@12 00562950 f   d3d8:texture.obj
 0002:00004520       _D3DTexture_LockRect@20    005629a0 f   d3d8:texture.obj
 0002:00004550       ?CreateTexture@D3D@@YGJKKKKKW4_D3DFORMAT@@_N1PAPAUD3DBaseTexture@@@Z 005629d0 f   d3d8:texture.obj
 0002:00004610       _D3DSurface_GetDesc@8      00562a90 f   d3d8:surface.obj
 0002:00004630       _D3DSurface_LockRect@16    00562ab0 f   d3d8:surface.obj
 0002:00004650       ?CreateSurfaceOfTexture@D3D@@YGJKKPAUD3DBaseTexture@@PAXPAPAUD3DSurface@@@Z 00562ad0 f   d3d8:surface.obj
 0002:000046b0       ?InitializeSurface@D3D@@YGXPAUD3DSurface@@KKPAX@Z 00562b30 f   d3d8:surface.obj
 0002:000046e0       ?InitializeKelvin@D3D@@YGXXZ 00562b60 f   d3d8:dxgcreate.obj
 0002:000047d0       ?InitializeHardware@D3D@@YGXXZ 00562c50 f   d3d8:dxgcreate.obj
 0002:000048b0       ?InitializeD3dState@D3D@@YGXXZ 00562d30 f   d3d8:dxgcreate.obj
 0002:00004970       ?FreeFrameBuffers@CDevice@D3D@@QAEXXZ 00562df0 f   d3d8:dxgcreate.obj
 0002:00004a90       ?InitializeFrameBuffers@CDevice@D3D@@QAEJPAU_D3DPRESENT_PARAMETERS_@@@Z 00562f10 f   d3d8:dxgcreate.obj
 0002:00004fd0       ?Init@CDevice@D3D@@QAEJPAU_D3DPRESENT_PARAMETERS_@@@Z 00563450 f   d3d8:dxgcreate.obj
 0002:00005510       ?UnInit@CDevice@D3D@@QAEXXZ 00563990 f   d3d8:dxgcreate.obj
 0002:000056b0       ?CleanPrivateData@D3D@@YGXPAX@Z 00563b30 f   d3d8:resource.obj
 0002:00005700       _D3DResource_GetType@4     00563b80 f   d3d8:resource.obj
 0002:00005790       _D3DResource_BlockUntilNotBusy@4 00563c10 f   d3d8:resource.obj
 0002:000057a0       ?GetDataFromResource@D3D@@YGPAEPAUD3DResource@@@Z 00563c20 f   d3d8:resource.obj
 0002:000057b0       ?DestroyResource@D3D@@YGXPAUD3DResource@@@Z 00563c30 f   d3d8:resource.obj
 0002:00005850       ?IsResourceSetInDevice@D3D@@YGHPAUD3DResource@@@Z 00563cd0 f   d3d8:resource.obj
 0002:00005890       ?InternalAddRefSurface@D3D@@YGXPAUD3DResource@@@Z 00563d10 f   d3d8:resource.obj
 0002:000058d0       _D3DResource_AddRef@4      00563d50 f   d3d8:resource.obj
 0002:00005910       _D3DResource_Release@4     00563d90 f   d3d8:resource.obj
 0002:00005960       _D3DResource_IsBusy@4      00563de0 f   d3d8:resource.obj
 0002:000059f0       _D3DResource_Register@8    00563e70 f   d3d8:resource.obj
 0002:00005a20       ?InternalReleaseSurface@D3D@@YGXPAUD3DResource@@@Z 00563ea0 f   d3d8:resource.obj
 0002:00005a90       ?Log2@D3D@@YIKK@Z          00563f10 f   d3d8:pixeljar.obj
 0002:00005aa0       ?MapToLinearD3DFORMAT@D3D@@YG?AW4_D3DFORMAT@@W42@@Z 00563f20 f   d3d8:pixeljar.obj
 0002:00005b60       ?VideoBitsPerPixelOfD3DFORMAT@D3D@@YGKK@Z 00563fe0 f   d3d8:pixeljar.obj
 0002:00005b90       ?CalcTilePitch@D3D@@YGKKW4_D3DFORMAT@@@Z 00564010 f   d3d8:pixeljar.obj
 0002:00005bd0       ?GetSurfaceFormat@PixelJar@D3D@@YGKPAUD3DPixelContainer@@0@Z 00564050 f   d3d8:pixeljar.obj
 0002:00005cf0       ?GetDepthBufferScale@PixelJar@D3D@@YGXPAUD3DPixelContainer@@PAM@Z 00564170 f   d3d8:pixeljar.obj
 0002:00005d60       ?GetSize@PixelJar@D3D@@YGXPAUD3DPixelContainer@@KPAK1111@Z 005641e0 f   d3d8:pixeljar.obj
 0002:00005eb0       ?Get2DSurfaceDesc@PixelJar@D3D@@YGXPAUD3DPixelContainer@@IPAU_D3DSURFACE_DESC@@@Z 00564330 f   d3d8:pixeljar.obj
 0002:00005f70       ?FindSurfaceWithinTexture@PixelJar@D3D@@YGXPAUD3DPixelContainer@@W4_D3DCUBEMAP_FACES@@IPAPAEPAK333@Z 005643f0 f   d3d8:pixeljar.obj
 0002:000061a0       ?Lock2DSurface@PixelJar@D3D@@YGXPAUD3DPixelContainer@@W4_D3DCUBEMAP_FACES@@IPAU_D3DLOCKED_RECT@@PBUtagRECT@@K@Z 00564620 f   d3d8:pixeljar.obj
 0002:00006240       ?EncodeFormat@PixelJar@D3D@@YGKKKKKW4_D3DFORMAT@@K_N1PAK2@Z 005646c0 f   d3d8:pixeljar.obj
 0002:00006440       ?GetDisplayCapabilities@CMiniport@D3D@@SGKXZ 005648c0 f   d3d8:mpmode.obj
 0002:0000645f       ?GetTableForCurrentAvInfo@D3D@@YGPBUDISPLAYMODE@1@XZ 005648df f   d3d8:mpmode.obj
 0002:000064d8       ?SetVideoMode@CMiniport@D3D@@QAEXKKKKW4_D3DFORMAT@@KK@Z 00564958 f   d3d8:mpmode.obj
 0002:000066b0       _D3DDevice_Clear@24        00564b30 f   d3d8:clear.obj
 0002:00006aa0       ?IsFlipPending@CMiniport@D3D@@QAEHXZ 00564f20 f   d3d8:mpintr.obj
 0002:00006ac0       ?GetTime@CMiniport@D3D@@QAEKXZ 00564f40 f i d3d8:mpintr.obj
 0002:00006ad0       ?Isr@CMiniport@D3D@@SGEPAU_KINTERRUPT@@PAX@Z 00564f50 f   d3d8:mpintr.obj
 0002:00006bf0       ?VBlankFlip@CMiniport@D3D@@AAEXKK@Z 00565070 f   d3d8:mpintr.obj
 0002:00006c70       ?VBlank@CMiniport@D3D@@AAEKXZ 005650f0 f   d3d8:mpintr.obj
 0002:00006e10       ?FixupPushBuffer@CMiniport@D3D@@QAEXPAUPUSHBUFFERFIXUPINFO@12@K@Z 00565290 f   d3d8:mpintr.obj
 0002:00006e90       ?SoftwareMethod@CMiniport@D3D@@AAEXKK@Z 00565310 f   d3d8:mpintr.obj
 0002:00007100       ?ShutdownNotification@CMiniport@D3D@@SGXPAU_HAL_SHUTDOWN_REGISTRATION@@@Z 00565580 f   d3d8:mpintr.obj
 0002:00007140       ?ServiceGrInterrupt@CMiniport@D3D@@AAEKXZ 005655c0 f   d3d8:mpintr.obj
 0002:00007230       ?ServiceFifoInterrupt@CMiniport@D3D@@AAEKXZ 005656b0 f   d3d8:mpintr.obj
 0002:000073b0       ?Dpc@CMiniport@D3D@@SGXPAU_KDPC@@PAX11@Z 00565830 f   d3d8:mpintr.obj
 0002:00007460       ?ReserveInstMem@CMiniport@D3D@@AAEKK@Z 005658e0 f   d3d8:mpcore.obj
 0002:00007473       ?InitGammaRamp@CMiniport@D3D@@AAEXK@Z 005658f3 f   d3d8:mpcore.obj
 0002:000074b3       ?InitDMAChannel@CMiniport@D3D@@QAEHKPAUOBJECTINFO@12@0KPAPAX@Z 00565933 f   d3d8:mpcore.obj
 0002:00007516       ?BindToChannel@CMiniport@D3D@@QAEHPAUOBJECTINFO@12@@Z 00565996 f   d3d8:mpcore.obj
 0002:0000754a       ?MapRegisters@CMiniport@D3D@@AAEHXZ 005659ca f   d3d8:mpcore.obj
 0002:00007575       ?GetGeneralInfo@CMiniport@D3D@@AAEHXZ 005659f5 f   d3d8:mpcore.obj
 0002:000075b6       ?InitEngines@CMiniport@D3D@@AAEHXZ 00565a36 f   d3d8:mpcore.obj
 0002:000076c0       ?LoadEngines@CMiniport@D3D@@AAEHXZ 00565b40 f   d3d8:mpcore.obj
 0002:000077f9       ?GetAddressInfo@CMiniport@D3D@@AAEXPAXPAPAXPAKH@Z 00565c79 f   d3d8:mpcore.obj
 0002:00007853       ?CreateCtxDmaObject@CMiniport@D3D@@QAEHKKPAXKPAUOBJECTINFO@12@@Z 00565cd3 f   d3d8:mpcore.obj
 0002:00007922       ?CreateGrObject@CMiniport@D3D@@QAEHKKPAUOBJECTINFO@12@@Z 00565da2 f   d3d8:mpcore.obj
 0002:000079b2       ?TilingUpdateIdle@CMiniport@D3D@@QAEXPAK@Z 00565e32 f   d3d8:mpcore.obj
 0002:00007a1d       ?InitHardware@CMiniport@D3D@@QAEHXZ 00565e9d f   d3d8:mpcore.obj
 0002:00007b7f       ?CreateTile@CMiniport@D3D@@QAEHKKKKKKK@Z 00565fff f   d3d8:mpcore.obj
 0002:00007d6d       ?DestroyTile@CMiniport@D3D@@QAEHKK@Z 005661ed f   d3d8:mpcore.obj
 0002:00007e2f       ?ShutdownEngines@CMiniport@D3D@@QAEXXZ 005662af f   d3d8:mpcore.obj
 0002:00007fe0       ?GetColorMaterial@D3D@@YGKXZ 00566460 f   d3d8:lazy.obj
 0002:00008080       ?LazySetPointParams@D3D@@YGXPAVCDevice@1@@Z 00566500 f   d3d8:lazy.obj
 0002:000081f0       ?LazySetShaderStageProgram@D3D@@YGXPAVCDevice@1@@Z 00566670 f   d3d8:lazy.obj
 0002:00008370       ?LazySetTextureState@D3D@@YGXPAVCDevice@1@@Z 005667f0 f   d3d8:lazy.obj
 0002:00008560       ?LazySetSpecFogCombiner@D3D@@YGXPAVCDevice@1@@Z 005669e0 f   d3d8:lazy.obj
 0002:00008740       ?LazySetTextureTransform@D3D@@YGXPAVCDevice@1@@Z 00566bc0 f   d3d8:lazy.obj
 0002:00008b00       ?SetLightColors@D3D@@YGPCKPCKPBULight@1@KK@Z 00566f80 f   d3d8:lazy.obj
 0002:00008c00       ?SetSceneAmbientAndMaterialEmission@D3D@@YGPCKPCKK@Z 00567080 f   d3d8:lazy.obj
 0002:00008da0       ?SetSpecularParameters@D3D@@YGPCKPCK@Z 00567220 f   d3d8:lazy.obj
 0002:00008ee0       ?LazySetLights@D3D@@YGXPAVCDevice@1@@Z 00567360 f   d3d8:lazy.obj
 0002:00009220       ?LazySetTransform@D3D@@YGXPAVCDevice@1@@Z 005676a0 f   d3d8:lazy.obj
 0002:00009420       ?SetState@D3D@@YGXXZ       005678a0 f   d3d8:lazy.obj
 0002:000094a0       ?SetStateVB@CDevice@D3D@@QAEXK@Z 00567920 f   d3d8:lazy.obj
 0002:00009640       ?SetStateUP@CDevice@D3D@@QAEXXZ 00567ac0 f   d3d8:lazy.obj
 0002:00009780       ?HalMcControlInit@CMiniport@D3D@@AAEXXZ 00567c00 f   d3d8:mphal.obj
 0002:000098e7       ?HalFbControlInit@CMiniport@D3D@@AAEXXZ 00567d67 f   d3d8:mphal.obj
 0002:000099e5       ?HalDacControlInit@CMiniport@D3D@@AAEXXZ 00567e65 f   d3d8:mphal.obj
 0002:00009ab4       ?HalVideoControlInit@CMiniport@D3D@@AAEXXZ 00567f34 f   d3d8:mphal.obj
 0002:00009aea       ?HalGrControlInit@CMiniport@D3D@@AAEXXZ 00567f6a f   d3d8:mphal.obj
 0002:00009b1a       ?HalFifoControlInit@CMiniport@D3D@@AAEXXZ 00567f9a f   d3d8:mphal.obj
 0002:00009b8b       ?HalGrIdle@CMiniport@D3D@@AAEXXZ 0056800b f   d3d8:mphal.obj
 0002:00009bca       ?HalGrUnloadChannelContext@CMiniport@D3D@@AAEXK@Z 0056804a f   d3d8:mphal.obj
 0002:00009c03       ?HalFifoContextSwitch@CMiniport@D3D@@AAEXK@Z 00568083 f   d3d8:mphal.obj
 0002:00009e00       ?HalDacLoad@CMiniport@D3D@@AAEXXZ 00568280 f   d3d8:mphal.obj
 0002:00009e12       ?HalFifoAllocDMA@CMiniport@D3D@@AAEXKKKPAUOBJECTINFO@12@@Z 00568292 f   d3d8:mphal.obj
 0002:00009f9f       ?HalFifoHashAdd@CMiniport@D3D@@AAEXKKKKK@Z 0056841f f   d3d8:mphal.obj
 0002:00009fd8       ?HalGrInitObjectContext@CMiniport@D3D@@AAEXKK@Z 00568458 f   d3d8:mphal.obj
 0002:0000a04d       ?HalGrInit3d@CMiniport@D3D@@AAEXXZ 005684cd f   d3d8:mphal.obj
 0002:0000aa2c       ?HalGrLoadChannelContext@CMiniport@D3D@@AAEXK@Z 00568eac f   d3d8:mphal.obj
 0002:0000ab4f       ?HalFifoControlLoad@CMiniport@D3D@@AAEXXZ 00568fcf f   d3d8:mphal.obj
 0002:0000abd0       ?HalGrControlLoad@CMiniport@D3D@@AAEXXZ 00569050 f   d3d8:mphal.obj
 0002:0000af10       ?LazySetCombiners@D3D@@YGXPAVCDevice@1@@Z 00569390 f   d3d8:combiner.obj
 0002:0000b4a0       ?FastCopyToWC@D3D@@YGXPCKPAKK@Z 00569920 f   d3d8:drawprim.obj
 0002:0000b530       _D3DDevice_DrawVerticesUP@16 005699b0 f   d3d8:drawprim.obj
 0002:0000b690       _D3DDevice_DrawVertices@12 00569b10 f   d3d8:drawprim.obj
 0002:0000c1a0       _D3DDevice_Swap@4          0056a620 f   d3d8:present.obj
 0002:0000c260       _Direct3DCreate8@4         0056a6e0 f   d3d8:enum.obj
 0002:0000c270       _Direct3D_GetDeviceCaps@12 0056a6f0 f   d3d8:enum.obj
 0002:0000c2a0       _D3DPalette_Lock@12        0056a720 f   d3d8:buffer.obj
 0002:0000c2d0       _D3DVertexBuffer_Lock@20   0056a750 f   d3d8:buffer.obj
 0002:0000c330       _D3DDevice_UpdateOverlay@20 0056a7b0 f   d3d8:overlay.obj
 0002:0000c4b0       _D3DDevice_EnableOverlay@4 0056a930 f   d3d8:overlay.obj
 0002:0000c520       _D3DDevice_SetPixelShader@4 0056a9a0 f   d3d8:pshader.obj
 0002:0000c6f0       ?g_TextureFormat@D3D@@3QBEB 0056ab70     d3d8:state.obj
 0002:0000c738       ?g_ComplexRenderStateFunctionTable@D3D@@3QBQ6GXK@ZB 0056abb8     d3d8:state.obj
 0002:0000c7b0       ?g_MinFilter@D3D@@3QAY02$$CBKA 0056ac30     d3d8:precomp.obj
 0002:0000c7c8       ?g_BytesPerUnit@D3D@@3QBEB 0056ac48     d3d8:precomp.obj
 0002:0000c7d0       ?g_UnitsOfElement@D3D@@3QBEB 0056ac50     d3d8:precomp.obj
 0002:0000c7d8       ?g_TilePitches@D3D@@3QBKB  0056ac58     d3d8:precomp.obj
 0002:0000c840       ?g_IdentityMatrix@D3D@@3U_D3DMATRIX@@B 0056acc0     d3d8:precomp.obj
 0002:0000c894       ?g_TransformDirtyTable@D3D@@3QBKB 0056ad14     d3d8:d3dbase.obj
 0002:0000c8bc       ?g_LODBias2x@D3D@@3QBMB    0056ad3c     d3d8:d3dbase.obj
 0002:0000c8d8       ?g_Mar@D3D@@3QBMB          0056ad58     d3d8:math.obj
 0002:0000c958       ?g_Lar@D3D@@3QBMB          0056add8     d3d8:math.obj
 0002:0000c9d8       ?g_FixedFunctionPipelineConstants@D3D@@3QBKB 0056ae58     d3d8:vshader.obj
 0002:0000ca08       ?g_PassthruProgramWFog@D3D@@3QBKB 0056ae88     d3d8:vshader.obj
 0002:0000cac8       ?g_PassthruProgramZFog@D3D@@3QBKB 0056af48     d3d8:vshader.obj
 0002:0000cb78       ?g_PassthruProgramSpecularFog@D3D@@3QBKB 0056aff8     d3d8:vshader.obj
 0002:0000cc38       ?g_TextureCount@D3D@@3QBKB 0056b0b8     d3d8:vshader.obj
 0002:0000cc48       ?g_InitialTextureStates@D3D@@3QBEB 0056b0c8     d3d8:dxgcreate.obj
 0002:0000cc68       ?g_InitialRenderStates@D3D@@3QBKB 0056b0e8     d3d8:dxgcreate.obj
 0002:0000cdd0       ?g_DisplayModes@D3D@@3QBUDISPLAYMODE@1@B 0056b250     d3d8:mpmode.obj
 0002:0000d6e0       ??_C@_0HG@FBJOLOBL@Graphics?5hardware?5error?5informat@ 0056bb60     d3d8:mpintr.obj
 0002:0000d758       ??_C@_0EB@CBFHLLBF@Graphics?5Parse?5error?5information@ 0056bbd8     d3d8:mpintr.obj
 0002:0000d7b0       ?g_EyeDirection@D3D@@3U_D3DVECTOR@@B 0056bc30     d3d8:lazy.obj
 0002:0000d7c0       ?g_AntiAliasedTextureStates@D3D@@3QBKB 0056bc40     d3d8:present.obj
 0002:0000d818       ?g_AntiAliasedRenderStates@D3D@@3QBKB 0056bc98     d3d8:present.obj
 0002:0000d8b0       _D3D__AvInfo               0056bd30     d3d8:globals.obj
 0002:0000d8b4       _D3D__GpuReg               0056bd34     d3d8:globals.obj
 0002:0000d8b8       ?g_NullHardwareGetPut@@3PAKA 0056bd38     d3d8:globals.obj
 0002:0000d8c0       _D3D__NullHardware         0056bd40     d3d8:globals.obj
 0002:0000d8c4       _D3D__IndexData            0056bd44     d3d8:globals.obj
 0002:0000d8c8       _D3D__DirtyFlags           0056bd48     d3d8:globals.obj
 0002:0000d8d0       _D3D__TextureState         0056bd50     d3d8:globals.obj
 0002:0000dad0       _D3D__RenderState          0056bf50     d3d8:globals.obj
 0002:0000dd1c       ?g_OverscanColor@D3D@@3KA  0056c19c     d3d8:d3dbase.obj
 0002:0000dd20       ?g_SoftDisplayFilterValue@D3D@@3HA 0056c1a0     d3d8:d3dbase.obj
 0002:0000dd24       ?g_FlickerFilterValue@D3D@@3KA 0056c1a4     d3d8:d3dbase.obj
 0002:0000dd28       ?g_SoftDisplayFilterSet@D3D@@3HA 0056c1a8     d3d8:d3dbase.obj
 0002:0000dd2c       ?g_FlickerFilterSet@D3D@@3HA 0056c1ac     d3d8:d3dbase.obj
 0002:0000dd30       ?g_Device@D3D@@3VCDevice@1@A 0056c1b0     d3d8:d3ddev.obj
 0002:00010830       ?g_pDevice@D3D@@3PAVCDevice@1@A 0056ecb0     d3d8:d3ddev.obj
 0002:00010834       _g_pPushBuffer             0056ecb4     d3d8:d3ddev.obj
 0002:00010838       ?g_Stream@D3D@@3PAUStream@1@A 0056ecb8     d3d8:vshader.obj
 0002:000108f8       ?g_DirectVertexShader@D3D@@3UVertexShader@1@A 0056ed78     d3d8:vshader.obj
 0002:00010a10       ?g_FvfVertexShader@D3D@@3UVertexShader@1@A 0056ee90     d3d8:vshader.obj
 0002:00010b28       ?m_PushSegmentSize@CDevice@D3D@@2KA 0056efa8     d3d8:dxgcreate.obj
 0002:00010b2c       ?m_PushBufferSize@CDevice@D3D@@2KA 0056efac     d3d8:dxgcreate.obj
 0002:00010b34       ?g_VideoOffset@D3D@@3KA    0056efb4     d3d8:mpintr.obj
 0003:00000000       ?RemoveEntryList@@YGPAU_LIST_ENTRY@@PAU1@@Z 0056efc0 f i dsound:dsapi.obj
 0003:00000030       ?Save@CFpState@DirectSound@@QAEXXZ 0056eff0 f i dsound:dsapi.obj
 0003:00000055       ?Restore@CFpState@DirectSound@@QAEXXZ 0056f015 f i dsound:dsapi.obj
 0003:00000073       ?AddRef@CRefCount@DirectSound@@UAGKXZ 0056f033 f i dsound:dsapi.obj
 0003:00000080       ?Release@CRefCount@DirectSound@@UAGKXZ 0056f040 f i dsound:dsapi.obj
 0003:000000a7       ?SetAlgorithm_FullHrtf@CHrtfSource@DirectSound@@SGXXZ 0056f067 f i dsound:dsapi.obj
 0003:000000c3       ?DirectSoundEnterCriticalSection@@YGHXZ 0056f083 f i dsound:dsapi.obj
 0003:000000e1       ?DownloadEffectsImage@CMcpxAPU@DirectSound@@QAEJPBXKPAPAU_DSEFFECTIMAGEDESC@@@Z 0056f0a1 f i dsound:dsapi.obj
 0003:00000110       ?GetLowWatermark@CMcpxStream@DirectSound@@QAEKXZ 0056f0d0 f i dsound:dsapi.obj
 0003:00000133       _IDirectSound_AddRef@4     0056f0f3 f   dsound:dsapi.obj
 0003:00000149       _IDirectSound_Release@4    0056f109 f   dsound:dsapi.obj
 0003:0000015f       _IDirectSoundBuffer_Release@4 0056f11f f   dsound:dsapi.obj
 0003:00000175       _DirectSoundUseFullHRTF@0  0056f135 f   dsound:dsapi.obj
 0003:0000019d       _XAudioCalculatePitch@4    0056f15d f   dsound:dsapi.obj
 0003:000001e8       ?SetEffectImageLocations@CDirectSoundSettings@DirectSound@@QAEXPBU_DSEFFECTIMAGELOC@@@Z 0056f1a8 f   dsound:dsapi.obj
 0003:0000020a       ??0CDirectSound@DirectSound@@QAE@XZ 0056f1ca f   dsound:dsapi.obj
 0003:00000227       ??1CDirectSound@DirectSound@@UAE@XZ 0056f1e7 f   dsound:dsapi.obj
 0003:00000261       ?GetCaps@CDirectSound@DirectSound@@QAGJPAU_DSCAPS@@@Z 0056f221 f   dsound:dsapi.obj
 0003:000002cd       ?GetSpeakerConfig@CDirectSound@DirectSound@@QAGJPAK@Z 0056f28d f   dsound:dsapi.obj
 0003:0000031e       ?DownloadEffectsImage@CDirectSound@DirectSound@@QAGJPBXKPBU_DSEFFECTIMAGELOC@@PAPAU_DSEFFECTIMAGEDESC@@@Z 0056f2de f   dsound:dsapi.obj
 0003:00000382       ?GetTime@CDirectSound@DirectSound@@QAGJPA_J@Z 0056f342 f   dsound:dsapi.obj
 0003:00000391       ?DoWork@CDirectSound@DirectSound@@QAGXXZ 0056f351 f   dsound:dsapi.obj
 0003:000003c2       ?SetMixBins@CDirectSoundVoiceSettings@DirectSound@@QAEXPBU_DSMIXBINS@@@Z 0056f382 f   dsound:dsapi.obj
 0003:00000477       ??1CDirectSoundVoice@DirectSound@@UAE@XZ 0056f437 f   dsound:dsapi.obj
 0003:000004c4       ?SetPitch@CDirectSoundVoice@DirectSound@@QAGJJ@Z 0056f484 f   dsound:dsapi.obj
 0003:000004dd       ?SetVolume@CDirectSoundVoice@DirectSound@@QAGJJ@Z 0056f49d f   dsound:dsapi.obj
 0003:000004f9       ?CommitDeferredSettings@CDirectSoundVoice@DirectSound@@QAGJXZ 0056f4b9 f   dsound:dsapi.obj
 0003:00000532       ?SetNotificationPositions@CDirectSoundBufferSettings@DirectSound@@QAEJKPBU_DSBPOSITIONNOTIFY@@@Z 0056f4f2 f   dsound:dsapi.obj
 0003:00000607       ??1CDirectSoundBuffer@DirectSound@@UAE@XZ 0056f5c7 f   dsound:dsapi.obj
 0003:0000063a       ?AddRef@CDirectSoundBuffer@DirectSound@@UAGKXZ 0056f5fa f i dsound:dsapi.obj
 0003:0000063a       ?AddRef@CDirectSound@DirectSound@@UAGKXZ 0056f5fa f i dsound:dsapi.obj
 0003:00000681       ?Release@CDirectSoundBuffer@DirectSound@@UAGKXZ 0056f641 f i dsound:dsapi.obj
 0003:000006cb       ?Play@CDirectSoundBuffer@DirectSound@@QAGJKKK@Z 0056f68b f   dsound:dsapi.obj
 0003:0000071c       ?Stop@CDirectSoundBuffer@DirectSound@@QAGJXZ 0056f6dc f   dsound:dsapi.obj
 0003:0000076b       ?GetStatus@CDirectSoundBuffer@DirectSound@@QAGJPAK@Z 0056f72b f   dsound:dsapi.obj
 0003:000007bc       ?GetCurrentPosition@CDirectSoundBuffer@DirectSound@@QAGJPAK0@Z 0056f77c f   dsound:dsapi.obj
 0003:00000811       ?SetNotificationPositions@CDirectSoundBuffer@DirectSound@@QAGJKPBU_DSBPOSITIONNOTIFY@@@Z 0056f7d1 f   dsound:dsapi.obj
 0003:00000876       ??1CDirectSoundStream@DirectSound@@UAE@XZ 0056f836 f   dsound:dsapi.obj
 0003:000008b7       ?AddRef@CDirectSoundStream@DirectSound@@UAGKXZ 0056f877 f i dsound:dsapi.obj
 0003:000008fe       ?Release@CDirectSoundStream@DirectSound@@UAGKXZ 0056f8be f i dsound:dsapi.obj
 0003:0000094c       ?GetInfo@CDirectSoundStream@DirectSound@@UAGJPAU_XMEDIAINFO@@@Z 0056f90c f   dsound:dsapi.obj
 0003:000009b3       ?Discontinuity@CDirectSoundStream@DirectSound@@UAGJXZ 0056f973 f   dsound:dsapi.obj
 0003:00000a00       ?Flush@CDirectSoundStream@DirectSound@@UAGJXZ 0056f9c0 f   dsound:dsapi.obj
 0003:00000a4d       ?GetStatus@CDirectSoundStream@DirectSound@@UAGJPAK@Z 0056fa0d f   dsound:dsapi.obj
 0003:00000a9e       ?Process@CDirectSoundStream@DirectSound@@UAGJPBU_XMEDIAPACKET@@0@Z 0056fa5e f   dsound:dsapi.obj
 0003:00000b15       ?Pause@CDirectSoundStream@DirectSound@@QAGJK@Z 0056fad5 f   dsound:dsapi.obj
 0003:00000b66       ?__AddRef@DirectSound@@YGPAVCMcpxVoiceClient@1@PAV21@@Z 0056fb26 f i dsound:dsapi.obj
 0003:00000b66       ?__AddRef@DirectSound@@YGPAVCDirectSoundBufferSettings@1@PAV21@@Z 0056fb26 f i dsound:mcpbuf.obj
 0003:00000b66       ?__AddRef@DirectSound@@YGPAVCDirectSoundBuffer@1@PAV21@@Z 0056fb26 f i dsound:dsapi.obj
 0003:00000b66       ?__AddRef@DirectSound@@YGPAVCDirectSoundSettings@1@PAV21@@Z 0056fb26 f i dsound:mcpxcore.obj
 0003:00000b66       ?__AddRef@DirectSound@@YGPAVCMcpxSlopMemoryHeap@1@PAV21@@Z 0056fb26 f i dsound:mcpxcore.obj
 0003:00000b66       ?__AddRef@DirectSound@@YGPAVCDirectSoundStreamSettings@1@PAV21@@Z 0056fb26 f i dsound:mcpstrm.obj
 0003:00000b66       ?__AddRef@DirectSound@@YGPAVCMcpxAPU@1@PAV21@@Z 0056fb26 f i dsound:mcpvoice.obj
 0003:00000b66       ?__AddRef@DirectSound@@YGPAVCDirectSoundVoiceSettings@1@PAV21@@Z 0056fb26 f i dsound:dsapi.obj
 0003:00000b66       ?__AddRef@DirectSound@@YGPAVCDirectSound@1@PAV21@@Z 0056fb26 f i dsound:dsapi.obj
 0003:00000b7b       ?AddRef@CDirectSoundStream@DirectSound@@W3AGKXZ 0056fb3b f i dsound:dsapi.obj
 0003:00000b85       ?Release@CDirectSoundStream@DirectSound@@W3AGKXZ 0056fb45 f i dsound:dsapi.obj
 0003:00000b8f       ??_ECRefCount@DirectSound@@UAEPAXI@Z 0056fb4f f i dsound:dsapi.obj
 0003:00000b8f       ??_GCRefCount@DirectSound@@UAEPAXI@Z 0056fb4f f i dsound:dsapi.obj
 0003:00000b8f       ??_ECDirectSoundSettings@DirectSound@@UAEPAXI@Z 0056fb4f f i dsound:dsapi.obj
 0003:00000b8f       ??_GCDirectSoundSettings@DirectSound@@UAEPAXI@Z 0056fb4f f i dsound:dsapi.obj
 0003:00000bab       ?SetVolume@CDirectSoundBuffer@DirectSound@@QAGJJ@Z 0056fb6b f i dsound:dsapi.obj
 0003:00000bf9       _IDirectSound_GetCaps@8    0056fbb9 f   dsound:dsapi.obj
 0003:00000c15       _IDirectSound_GetSpeakerConfig@8 0056fbd5 f   dsound:dsapi.obj
 0003:00000c31       _IDirectSound_DownloadEffectsImage@20 0056fbf1 f   dsound:dsapi.obj
 0003:00000c58       _IDirectSound_GetTime@8    0056fc18 f   dsound:dsapi.obj
 0003:00000c74       _IDirectSoundBuffer_SetVolume@8 0056fc34 f   dsound:dsapi.obj
 0003:00000c90       _IDirectSoundBuffer_Play@16 0056fc50 f   dsound:dsapi.obj
 0003:00000cb4       _IDirectSoundBuffer_Stop@4 0056fc74 f   dsound:dsapi.obj
 0003:00000ccc       _IDirectSoundBuffer_GetStatus@8 0056fc8c f   dsound:dsapi.obj
 0003:00000ce8       _IDirectSoundBuffer_GetCurrentPosition@12 0056fca8 f   dsound:dsapi.obj
 0003:00000d08       _IDirectSoundBuffer_SetNotificationPositions@12 0056fcc8 f   dsound:dsapi.obj
 0003:00000d28       _IDirectSoundStream_Pause@8 0056fce8 f   dsound:dsapi.obj
 0003:00000d2d       _DirectSoundDoWork@0       0056fced f   dsound:dsapi.obj
 0003:00000d56       ??_GCDirectSound@DirectSound@@UAEPAXI@Z 0056fd16 f i dsound:dsapi.obj
 0003:00000d56       ??_ECDirectSound@DirectSound@@UAEPAXI@Z 0056fd16 f i dsound:dsapi.obj
 0003:00000d71       ?CommitDeferredSettings@CDirectSound@DirectSound@@QAGJXZ 0056fd31 f   dsound:dsapi.obj
 0003:00000ded       ?SetFormat@CDirectSoundVoiceSettings@DirectSound@@QAEHPBUtWAVEFORMATEX@@H@Z 0056fdad f   dsound:dsapi.obj
 0003:00000e70       ?SetOutputBuffer@CDirectSoundVoiceSettings@DirectSound@@QAEXPAVCDirectSoundBuffer@2@@Z 0056fe30 f   dsound:dsapi.obj
 0003:00000eb7       ??0CDirectSoundVoice@DirectSound@@QAE@PAVCDirectSound@1@@Z 0056fe77 f   dsound:dsapi.obj
 0003:00000ee1       ??_GCDirectSoundVoice@DirectSound@@UAEPAXI@Z 0056fea1 f i dsound:dsapi.obj
 0003:00000ee1       ??_ECDirectSoundVoice@DirectSound@@UAEPAXI@Z 0056fea1 f i dsound:dsapi.obj
 0003:00000efc       ?Initialize@CDirectSoundVoice@DirectSound@@QAGXPAVCMcpxVoiceClient@2@PAVCDirectSoundVoiceSettings@2@@Z 0056febc f   dsound:dsapi.obj
 0003:00000f3b       ?SetFrequency@CDirectSoundVoice@DirectSound@@QAGJK@Z 0056fefb f   dsound:dsapi.obj
 0003:00000f5f       ?SetMaxDistance@CDirectSoundVoice@DirectSound@@QAGJMK@Z 0056ff1f f   dsound:dsapi.obj
 0003:00000f92       ?SetMinDistance@CDirectSoundVoice@DirectSound@@QAGJMK@Z 0056ff52 f   dsound:dsapi.obj
 0003:00000fc5       ?SetPosition@CDirectSoundVoice@DirectSound@@QAGJMMMK@Z 0056ff85 f   dsound:dsapi.obj
 0003:00001017       ?SetVelocity@CDirectSoundVoice@DirectSound@@QAGJMMMK@Z 0056ffd7 f   dsound:dsapi.obj
 0003:00001069       ?SetPlayRegion@CDirectSoundBufferSettings@DirectSound@@QAEXKK@Z 00570029 f   dsound:dsapi.obj
 0003:0000108d       ??0CDirectSoundBuffer@DirectSound@@QAE@PAVCDirectSound@1@@Z 0057004d f   dsound:dsapi.obj
 0003:000010a5       ??_GCDirectSoundBuffer@DirectSound@@UAEPAXI@Z 00570065 f i dsound:dsapi.obj
 0003:000010a5       ??_ECDirectSoundBuffer@DirectSound@@UAEPAXI@Z 00570065 f i dsound:dsapi.obj
 0003:000010c0       ??_ECDirectSoundStream@DirectSound@@UAEPAXI@Z 00570080 f i dsound:dsapi.obj
 0003:000010c0       ??_GCDirectSoundStream@DirectSound@@UAEPAXI@Z 00570080 f i dsound:dsapi.obj
 0003:000010df       ?SetFrequency@CDirectSoundBuffer@DirectSound@@QAGJK@Z 0057009f f i dsound:dsapi.obj
 0003:0000112d       ?SetMaxDistance@CDirectSoundBuffer@DirectSound@@QAGJMK@Z 005700ed f i dsound:dsapi.obj
 0003:00001183       ?SetMinDistance@CDirectSoundBuffer@DirectSound@@QAGJMK@Z 00570143 f i dsound:dsapi.obj
 0003:000011d9       ?SetPosition@CDirectSoundBuffer@DirectSound@@QAGJMMMK@Z 00570199 f i dsound:dsapi.obj
 0003:00001240       ?SetVelocity@CDirectSoundBuffer@DirectSound@@QAGJMMMK@Z 00570200 f i dsound:dsapi.obj
 0003:000012a7       _IDirectSound_CommitDeferredSettings@4 00570267 f   dsound:dsapi.obj
 0003:000012bf       _IDirectSoundBuffer_SetFrequency@8 0057027f f   dsound:dsapi.obj
 0003:000012db       _IDirectSoundBuffer_SetMaxDistance@12 0057029b f   dsound:dsapi.obj
 0003:000012ff       _IDirectSoundBuffer_SetMinDistance@12 005702bf f   dsound:dsapi.obj
 0003:00001323       _IDirectSoundBuffer_SetPosition@20 005702e3 f   dsound:dsapi.obj
 0003:00001358       _IDirectSoundBuffer_SetVelocity@20 00570318 f   dsound:dsapi.obj
 0003:0000138d       ??0CDirectSoundSettings@DirectSound@@QAE@XZ 0057034d f   dsound:dsapi.obj
 0003:000013fd       ?Release@CDirectSound@DirectSound@@UAGKXZ 005703bd f   dsound:dsapi.obj
 0003:000014b3       ?SetAllParameters@CDirectSound@DirectSound@@QAGJPBU_DS3DLISTENER@@K@Z 00570473 f   dsound:dsapi.obj
 0003:0000159b       ?SetDistanceFactor@CDirectSound@DirectSound@@QAGJMK@Z 0057055b f   dsound:dsapi.obj
 0003:000015fd       ?SetI3DL2Listener@CDirectSound@DirectSound@@QAGJPBU_DSI3DL2LISTENER@@K@Z 005705bd f   dsound:dsapi.obj
 0003:000016f9       ??1CDirectSoundVoiceSettings@DirectSound@@UAE@XZ 005706b9 f   dsound:dsapi.obj
 0003:00001731       ?Initialize@CDirectSoundVoiceSettings@DirectSound@@QAEJKPBUtWAVEFORMATEX@@PBU_DSMIXBINS@@@Z 005706f1 f   dsound:dsapi.obj
 0003:000017ec       ?SetBufferData@CDirectSoundBufferSettings@DirectSound@@QAEJPAXK@Z 005707ac f   dsound:dsapi.obj
 0003:00001878       ?SetBufferData@CDirectSoundBuffer@DirectSound@@QAGJPAXK@Z 00570838 f   dsound:dsapi.obj
 0003:00001926       ?Initialize@CDirectSoundStreamSettings@DirectSound@@QAEJPBU_DSSTREAMDESC@@@Z 005708e6 f   dsound:dsapi.obj
 0003:0000195f       ??0CDirectSoundStream@DirectSound@@QAE@PAVCDirectSound@1@@Z 0057091f f   dsound:dsapi.obj
 0003:00001984       ?Initialize@CDirectSoundStream@DirectSound@@QAGJPBU_DSSTREAMDESC@@@Z 00570944 f   dsound:dsapi.obj
 0003:00001a2e       _IDirectSound_SetAllParameters@12 005709ee f   dsound:dsapi.obj
 0003:00001a4e       _IDirectSound_SetDistanceFactor@12 00570a0e f   dsound:dsapi.obj
 0003:00001a72       _IDirectSound_SetI3DL2Listener@12 00570a32 f   dsound:dsapi.obj
 0003:00001a92       _IDirectSoundBuffer_SetBufferData@12 00570a52 f   dsound:dsapi.obj
 0003:00001ab2       ?CreateSoundStream@CDirectSound@DirectSound@@QAGJPBU_DSSTREAMDESC@@PAPAUIDirectSoundStream@@PAUIUnknown@@@Z 00570a72 f   dsound:dsapi.obj
 0003:00001b43       ??_GCDirectSoundVoiceSettings@DirectSound@@UAEPAXI@Z 00570b03 f i dsound:dsapi.obj
 0003:00001b43       ??_ECDirectSoundVoiceSettings@DirectSound@@UAEPAXI@Z 00570b03 f i dsound:dsapi.obj
 0003:00001b5e       ??1CDirectSoundBufferSettings@DirectSound@@UAE@XZ 00570b1e f   dsound:dsapi.obj
 0003:00001b83       ?Initialize@CDirectSoundBufferSettings@DirectSound@@QAEJPBU_DSBUFFERDESC@@@Z 00570b43 f   dsound:dsapi.obj
 0003:00001be8       ?Initialize@CDirectSoundBuffer@DirectSound@@QAGJPBU_DSBUFFERDESC@@@Z 00570ba8 f   dsound:dsapi.obj
 0003:00001cd0       ??_ECDirectSoundStreamSettings@DirectSound@@UAEPAXI@Z 00570c90 f i dsound:dsapi.obj
 0003:00001cd0       ??_GCDirectSoundStreamSettings@DirectSound@@UAEPAXI@Z 00570c90 f i dsound:dsapi.obj
 0003:00001cf1       ?CreateSoundBuffer@CDirectSound@DirectSound@@QAGJPBU_DSBUFFERDESC@@PAPAUIDirectSoundBuffer@@PAUIUnknown@@@Z 00570cb1 f   dsound:dsapi.obj
 0003:00001d8d       ??_GCDirectSoundBufferSettings@DirectSound@@UAEPAXI@Z 00570d4d f i dsound:dsapi.obj
 0003:00001d8d       ??_ECDirectSoundBufferSettings@DirectSound@@UAEPAXI@Z 00570d4d f i dsound:dsapi.obj
 0003:00001da8       _IDirectSound_CreateSoundBuffer@16 00570d68 f   dsound:dsapi.obj
 0003:00001dcc       ?Initialize@CDirectSound@DirectSound@@QAGJXZ 00570d8c f   dsound:dsapi.obj
 0003:00001ef5       ?DirectSoundCreateInternal@@YGJPAPAVCDirectSound@DirectSound@@@Z 00570eb5 f   dsound:dsapi.obj
 0003:00001f62       _DirectSoundCreate@12      00570f22 f   dsound:dsapi.obj
 0003:00001fa9       _DirectSoundCreateStream@8 00570f69 f   dsound:dsapi.obj
 0003:00002000       ?PoolAlloc@CMemoryManager@DirectSound@@SGPAXW4DSOUND_POOL_TAG@@KH@Z 00570fc0 f   dsound:dscommon.obj
 0003:00002047       ?PoolFree@CMemoryManager@DirectSound@@SGXPAX@Z 00571007 f   dsound:dscommon.obj
 0003:0000205f       ?PhysicalAlloc@CMemoryManager@DirectSound@@SGPAXKKKH@Z 0057101f f   dsound:dscommon.obj
 0003:000020ae       ?PhysicalFree@CMemoryManager@DirectSound@@SGXPAX@Z 0057106e f   dsound:dscommon.obj
 0003:000020c6       ?MemAlloc@CMemoryManager@DirectSound@@SGPAXW4DSOUND_POOL_TAG@@KH@Z 00571086 f   dsound:dscommon.obj
 0003:0000212e       ?MemFree@CMemoryManager@DirectSound@@SGXPAX@Z 005710ee f   dsound:dscommon.obj
 0003:00002162       ?PcmToInternalFormat@WaveFormat@DirectSound@@YGXPAUDSWAVEFORMAT@@PBUtWAVEFORMATEX@@@Z 00571122 f   dsound:dscommon.obj
 0003:0000218b       ?AdpcmToInternalFormat@WaveFormat@DirectSound@@YGXPAUDSWAVEFORMAT@@PBUxbox_adpcmwaveformat_tag@@@Z 0057114b f   dsound:dscommon.obj
 0003:000021b2       ?ExtensibleToInternalFormat@WaveFormat@DirectSound@@YGKPAUDSWAVEFORMAT@@PBUWAVEFORMATEXTENSIBLE@@@Z 00571172 f   dsound:dscommon.obj
 0003:000021fb       ?CreateInternalFormat@WaveFormat@DirectSound@@YGKPAUDSWAVEFORMAT@@PBUtWAVEFORMATEX@@@Z 005711bb f   dsound:dscommon.obj
 0003:0000225d       ?MagnitudeVector3@Math@DirectSound@@YGMPBU_D3DVECTOR@@@Z 0057121d f i dsound:hrtf.obj
 0003:00002284       ?MetersToVolume@Math@DirectSound@@YGJM@Z 00571244 f i dsound:hrtf.obj
 0003:000022bb       ?PowerToVolume@Math@DirectSound@@YGJM@Z 0057127b f i dsound:hrtf.obj
 0003:00002302       ?AmplitudeToVolume@Math@DirectSound@@YGJM@Z 005712c2 f i dsound:hrtf.obj
 0003:00002349       ??0CHrtfListener@DirectSound@@QAE@ABU_DS3DLISTENER@@@Z 00571309 f   dsound:hrtf.obj
 0003:00002384       ??1CHrtfListener@DirectSound@@QAE@XZ 00571344 f   dsound:hrtf.obj
 0003:00002398       ?Calculate3d@CHrtfListener@DirectSound@@QAEXK@Z 00571358 f   dsound:hrtf.obj
 0003:00002475       ??0CHrtfSource@DirectSound@@QAE@ABVCHrtfListener@1@ABUDS3DSOURCEPARAMS@@@Z 00571435 f   dsound:hrtf.obj
 0003:000024ab       ?Calculate3d@CHrtfSource@DirectSound@@QAEXK@Z 0057146b f   dsound:hrtf.obj
 0003:000024c1       ?CalcNormPos@CFullHrtfSource@DirectSound@@KGXPAVCHrtfSource@2@@Z 00571481 f   dsound:hrtf.obj
 0003:00002514       ?CalcDistanceVolume@CFullHrtfSource@DirectSound@@KGXPAVCHrtfSource@2@@Z 005714d4 f   dsound:hrtf.obj
 0003:00002624       ?CalcDirection@CFullHrtfSource@DirectSound@@KGXPAVCHrtfSource@2@@Z 005715e4 f   dsound:hrtf.obj
 0003:000026bf       ?CalcConeVolume@CFullHrtfSource@DirectSound@@KGXPAVCHrtfSource@2@@Z 0057167f f   dsound:hrtf.obj
 0003:00002759       ?CalcFrontRearGains@CFullHrtfSource@DirectSound@@KGXPAVCHrtfSource@2@@Z 00571719 f   dsound:hrtf.obj
 0003:00002849       ?CalcDoppler@CFullHrtfSource@DirectSound@@KGXPAVCHrtfSource@2@@Z 00571809 f   dsound:hrtf.obj
 0003:0000290b       ?GetHrtfFilterPair@CFullHrtfSource@DirectSound@@SGXPAVCHrtfSource@2@@Z 005718cb f   dsound:hrtf.obj
 0003:00002a42       ?CalcLeftRightGains@CFullHrtfSource@DirectSound@@KGXPAVCHrtfSource@2@@Z 00571a02 f   dsound:hrtf.obj
 0003:00002bb0       ?Calculate3d@CFullHrtfSource@DirectSound@@SGXKPAVCHrtfSource@2@@Z 00571b70 f   dsound:hrtf.obj
 0003:00002c0c       ??0CMcpxGPDspManager@DirectSound@@QAE@XZ 00571bcc f   dsound:gpdsp.obj
 0003:00002c2b       ?Initialize@CMcpxGPDspManager@DirectSound@@QAEXXZ 00571beb f   dsound:gpdsp.obj
 0003:00002ca0       ?ParseEffectImageInfo@CMcpxGPDspManager@DirectSound@@IAEJPBX@Z 00571c60 f   dsound:gpdsp.obj
 0003:00002e15       ?GetEffectMap@CMcpxGPDspManager@DirectSound@@QAEJKPAPBU_DSEFFECTMAP@@@Z 00571dd5 f   dsound:gpdsp.obj
 0003:00002e3c       ?CommitChanges@CMcpxGPDspManager@DirectSound@@QAEXKK@Z 00571dfc f   dsound:gpdsp.obj
 0003:00002ea1       ?AC3SetOutputBuffer@CMcpxGPDspManager@DirectSound@@QAEXPAUMCPX_ALLOC_CONTEXT@@K@Z 00571e61 f   dsound:gpdsp.obj
 0003:00002eb5       ?SetMultipassBuffer@CMcpxGPDspManager@DirectSound@@QAEXPAUMCPX_ALLOC_CONTEXT@@K@Z 00571e75 f   dsound:gpdsp.obj
 0003:00002ecc       ??1CMcpxGPDspManager@DirectSound@@QAE@XZ 00571e8c f   dsound:gpdsp.obj
 0003:00002f0d       ?DownloadEffectsImage@CMcpxGPDspManager@DirectSound@@QAEJPBXKPAPAU_DSEFFECTIMAGEDESC@@@Z 00571ecd f   dsound:gpdsp.obj
 0003:00002fa6       ?SetEffectData@CMcpxGPDspManager@DirectSound@@QAEJKKPBXKK@Z 00571f66 f   dsound:gpdsp.obj
 0003:0000304f       ?GetEffectData@CMcpxGPDspManager@DirectSound@@QAEJKKPAXK@Z 0057200f f   dsound:gpdsp.obj
 0003:00003089       ?MoveEntryTailList@@YGPAU_LIST_ENTRY@@PAU1@0@Z 00572049 f i dsound:mcpapu.obj
 0003:000030b3       ?Raise@CIrql@DirectSound@@QAEXXZ 00572073 f i dsound:mcpapu.obj
 0003:000030e6       ?Lower@CIrql@DirectSound@@QAEXXZ 005720a6 f i dsound:mcpapu.obj
 0003:000030fd       ??0CMcpxAPU@DirectSound@@QAE@PAVCDirectSoundSettings@1@@Z 005720bd f   dsound:mcpapu.obj
 0003:000031c2       ?Terminate@CMcpxAPU@DirectSound@@IAEXXZ 00572182 f   dsound:mcpapu.obj
 0003:00003225       ?AllocateVoices@CMcpxAPU@DirectSound@@QAEJPAVCMcpxVoiceClient@2@@Z 005721e5 f   dsound:mcpapu.obj
 0003:000032b9       ?FreeVoices@CMcpxAPU@DirectSound@@QAEXPAVCMcpxVoiceClient@2@@Z 00572279 f   dsound:mcpapu.obj
 0003:0000332c       ?WaitForMagicWrite@CMcpxAPU@DirectSound@@IAEXXZ 005722ec f   dsound:mcpapu.obj
 0003:0000338f       ?ServiceVoiceInterrupt@CMcpxAPU@DirectSound@@IAEXXZ 0057234f f   dsound:mcpapu.obj
 0003:00003408       ?GetInterruptStatusCallback@CMcpxAPU@DirectSound@@CGEPAX@Z 005723c8 f   dsound:mcpapu.obj
 0003:00003434       ?HandleDeltaPanic@CMcpxAPU@DirectSound@@IAEXXZ 005723f4 f   dsound:mcpapu.obj
 0003:00003492       ?HandleIdleVoice@CMcpxAPU@DirectSound@@IAEXK@Z 00572452 f   dsound:mcpapu.obj
 0003:000034f8       ?Commit3dSettings@CMcpxAPU@DirectSound@@QAEKXZ 005724b8 f   dsound:mcpapu.obj
 0003:000035af       ?ScheduleDeferredCommandLow@CMcpxAPU@DirectSound@@IAEHPAUMCPX_DEFERRED_COMMAND@@@Z 0057256f f   dsound:mcpapu.obj
 0003:000035d4       ?RemoveDeferredCommandHigh@CMcpxAPU@DirectSound@@IAEXPAUMCPX_DEFERRED_COMMAND@@@Z 00572594 f   dsound:mcpapu.obj
 0003:00003636       ?ServiceDeferredCommandsHigh@CMcpxAPU@DirectSound@@IAEXXZ 005725f6 f   dsound:mcpapu.obj
 0003:000036b8       ?ServiceDeferredCommandsLow@CMcpxAPU@DirectSound@@IAEXXZ 00572678 f   dsound:mcpapu.obj
 0003:0000374d       ?SetHrtfHeadroom@CMcpxAPU@DirectSound@@QAEJK@Z 0057270d f   dsound:mcpapu.obj
 0003:00003784       ?SetMixBinHeadroom@CMcpxAPU@DirectSound@@QAEJK@Z 00572744 f   dsound:mcpapu.obj
 0003:000037c9       ?DeferredCommandDpcRoutine@CMcpxAPU@DirectSound@@CGXPAU_KDPC@@PAX11@Z 00572789 f i dsound:mcpapu.obj
 0003:000037d5       ?ApuShutdownNotifier@CMcpxAPU@DirectSound@@CGXPAU_HAL_SHUTDOWN_REGISTRATION@@@Z 00572795 f i dsound:mcpapu.obj
 0003:000037f1       ??1CMcpxAPU@DirectSound@@UAE@XZ 005727b1 f   dsound:mcpapu.obj
 0003:000038ad       ?ServiceApuInterruptDpc@CMcpxAPU@DirectSound@@IAEXXZ 0057286d f   dsound:mcpapu.obj
 0003:000038ef       ?HandleSoftwareMethod@CMcpxAPU@DirectSound@@IAEXKK@Z 005728af f   dsound:mcpapu.obj
 0003:00003905       ?RemoveDeferredCommand@CMcpxAPU@DirectSound@@QAEXPAUMCPX_DEFERRED_COMMAND@@@Z 005728c5 f   dsound:mcpapu.obj
 0003:00003949       ?ApuInterruptDpcRoutine@CMcpxAPU@DirectSound@@CGXPAU_KDPC@@PAX11@Z 00572909 f i dsound:mcpapu.obj
 0003:00003955       ??_GCMcpxAPU@DirectSound@@UAEPAXI@Z 00572915 f i dsound:mcpapu.obj
 0003:00003955       ??_ECMcpxAPU@DirectSound@@UAEPAXI@Z 00572915 f i dsound:mcpapu.obj
 0003:00003970       ?HandleFETrap@CMcpxAPU@DirectSound@@IAEXXZ 00572930 f   dsound:mcpapu.obj
 0003:000039b7       ?ScheduleDeferredCommandHigh@CMcpxAPU@DirectSound@@IAEHPAUMCPX_DEFERRED_COMMAND@@@Z 00572977 f   dsound:mcpapu.obj
 0003:00003a8d       ?ServiceApuInterrupt@CMcpxAPU@DirectSound@@IAEHXZ 00572a4d f   dsound:mcpapu.obj
 0003:00003ae2       ?ScheduleDeferredCommand@CMcpxAPU@DirectSound@@QAEHPAUMCPX_DEFERRED_COMMAND@@@Z 00572aa2 f   dsound:mcpapu.obj
 0003:00003b29       ?ApuInterruptServiceRoutine@CMcpxAPU@DirectSound@@CGEPAU_KINTERRUPT@@PAX@Z 00572ae9 f i dsound:mcpapu.obj
 0003:00003b35       ?Initialize@CMcpxAPU@DirectSound@@QAEJXZ 00572af5 f   dsound:mcpapu.obj
 0003:00003c61       ?NormalizeVector3@Math@DirectSound@@YGMPAU_D3DVECTOR@@PBU3@@Z 00572c21 f   dsound:dsmath.obj
 0003:00003cfd       ?NormalizeVector3@Math@DirectSound@@YGMPAU_D3DVECTOR@@@Z 00572cbd f   dsound:dsmath.obj
 0003:00003d6e       ?RatioToPitch@Math@DirectSound@@YGJM@Z 00572d2e f   dsound:dsmath.obj
 0003:00003d8c       ?MatrixRotationAxis@Math@DirectSound@@YGPAU_D3DMATRIX@@PAU3@PBU_D3DVECTOR@@M@Z 00572d4c f   dsound:dsmath.obj
 0003:00003e90       ?Vec3Transform@Math@DirectSound@@YGPAU_VECTOR4@@PAU3@PBU_D3DVECTOR@@PBU_D3DMATRIX@@@Z 00572e50 f   dsound:dsmath.obj
 0003:00003ed9       ?Reset@CMcpxNotifier@DirectSound@@QAEXXZ 00572e99 f i dsound:mcpvoice.obj
 0003:00003ef5       ?SamplesToBytes@CMcpxVoiceClient@DirectSound@@IAEKK@Z 00572eb5 f i dsound:mcpvoice.obj
 0003:00003f16       ?Initialize@CMcpxVoiceClient@DirectSound@@UAEJH@Z 00572ed6 f   dsound:mcpvoice.obj
 0003:00004014       ?SetFormat@CMcpxVoiceClient@DirectSound@@UAEJXZ 00572fd4 f   dsound:mcpvoice.obj
 0003:00004127       ?ReleaseVoiceResources@CMcpxVoiceClient@DirectSound@@IAEXXZ 005730e7 f   dsound:mcpvoice.obj
 0003:000041af       ?ConvertMixBinValues@CMcpxVoiceClient@DirectSound@@IAEXPAK0@Z 0057316f f   dsound:mcpvoice.obj
 0003:00004260       ?ConvertVolumeValues@CMcpxVoiceClient@DirectSound@@IAEXPAUMCPX_VOICE_VOLUME@@@Z 00573220 f   dsound:mcpvoice.obj
 0003:00004447       ?ConvertPitchValue@CMcpxVoiceClient@DirectSound@@IAEXPAK@Z 00573407 f   dsound:mcpvoice.obj
 0003:000044c9       ?GetAntecedentVoice@CMcpxVoiceClient@DirectSound@@AAEXPAEPAPAV12@@Z 00573489 f   dsound:mcpvoice.obj
 0003:0000452c       ?RemoveIdleVoice@CMcpxVoiceClient@DirectSound@@AAEXH@Z 005734ec f   dsound:mcpvoice.obj
 0003:00004713       ?RemoveStuckVoice@CMcpxVoiceClient@DirectSound@@AAEXXZ 005736d3 f   dsound:mcpvoice.obj
 0003:0000476a       ?ReleaseVoice@CMcpxVoiceClient@DirectSound@@IAEXXZ 0057372a f   dsound:mcpvoice.obj
 0003:000047ee       ?CheckStuckVoice@CMcpxVoiceClient@DirectSound@@IAEXXZ 005737ae f   dsound:mcpvoice.obj
 0003:00004848       ?PauseVoice@CMcpxVoiceClient@DirectSound@@IAEXK@Z 00573808 f   dsound:mcpvoice.obj
 0003:000048ef       ?LoadHrtfFilter@CMcpxVoiceClient@DirectSound@@IAEXXZ 005738af f   dsound:mcpvoice.obj
 0003:000049f4       ?SetFilter@CMcpxVoiceClient@DirectSound@@QAEJPBU_DSFILTERDESC@@@Z 005739b4 f   dsound:mcpvoice.obj
 0003:00004b41       ?DisconnectVoice@CMcpxVoiceClient@DirectSound@@QAEJXZ 00573b01 f   dsound:mcpvoice.obj
 0003:00004c37       ?GetSslPosition@CMcpxVoiceClient@DirectSound@@IAEKXZ 00573bf7 f   dsound:mcpvoice.obj
 0003:00004cc2       ?Initialize@CMcpxNotifier@DirectSound@@QAEXKK@Z 00573c82 f i dsound:mcpvoice.obj
 0003:00004ce0       ?Initialize@CMcpxVoiceNotifier@DirectSound@@QAEXG@Z 00573ca0 f i dsound:mcpvoice.obj
 0003:00004cf7       ??1CMcpxVoiceClient@DirectSound@@UAE@XZ 00573cb7 f   dsound:mcpvoice.obj
 0003:00004d51       ?AllocateVoiceResources@CMcpxVoiceClient@DirectSound@@IAEJXZ 00573d11 f   dsound:mcpvoice.obj
 0003:00004ecd       ?SetVolume@CMcpxVoiceClient@DirectSound@@QAEJXZ 00573e8d f   dsound:mcpvoice.obj
 0003:00004f65       ?SetPitch@CMcpxVoiceClient@DirectSound@@QAEJXZ 00573f25 f   dsound:mcpvoice.obj
 0003:00004ff7       ?WaitForVoiceOff@CMcpxVoiceClient@DirectSound@@IAEXXZ 00573fb7 f   dsound:mcpvoice.obj
 0003:00005013       ?Apply3dSettings@CMcpxVoiceClient@DirectSound@@IAEXKKK@Z 00573fd3 f   dsound:mcpvoice.obj
 0003:00005060       ??0CMcpxVoiceClient@DirectSound@@QAE@PAVCMcpxAPU@1@PAVCDirectSoundVoiceSettings@1@@Z 00574020 f   dsound:mcpvoice.obj
 0003:000050c8       ??_ECMcpxVoiceClient@DirectSound@@UAEPAXI@Z 00574088 f i dsound:mcpvoice.obj
 0003:000050c8       ??_GCMcpxVoiceClient@DirectSound@@UAEPAXI@Z 00574088 f i dsound:mcpvoice.obj
 0003:000050e3       ?DeactivateVoice@CMcpxVoiceClient@DirectSound@@IAEXH@Z 005740a3 f   dsound:mcpvoice.obj
 0003:00005207       ?Commit3dSettings@CMcpxVoiceClient@DirectSound@@QAEKXZ 005741c7 f   dsound:mcpvoice.obj
 0003:000052df       ?ActivateVoice@CMcpxVoiceClient@DirectSound@@IAEXXZ 0057429f f   dsound:mcpvoice.obj
 0003:00005493       ?GetStatus@CMcpxNotifier@DirectSound@@QAEHK@Z 00574453 f i dsound:mcpbuf.obj
 0003:000054b1       ?BytesToSamples@CMcpxVoiceClient@DirectSound@@IAEKK@Z 00574471 f i dsound:mcpbuf.obj
 0003:000054ca       ?MapBuffer@CMcpxBuffer@DirectSound@@IAEXK@Z 0057448a f   dsound:mcpbuf.obj
 0003:0000553c       ?UnmapBuffer@CMcpxBuffer@DirectSound@@IAEXXZ 005744fc f   dsound:mcpbuf.obj
 0003:00005582       ?PlayFromCurrent@CMcpxBuffer@DirectSound@@IAEXK@Z 00574542 f   dsound:mcpbuf.obj
 0003:000056c3       ?PlayFromPosition@CMcpxBuffer@DirectSound@@IAEXKK@Z 00574683 f   dsound:mcpbuf.obj
 0003:00005842       ?GetStatus@CMcpxBuffer@DirectSound@@QAEJPAK@Z 00574802 f   dsound:mcpbuf.obj
 0003:0000588b       ?GetCurrentPosition@CMcpxBuffer@DirectSound@@QAEJPAK0@Z 0057484b f   dsound:mcpbuf.obj
 0003:00005964       ?ServiceVoiceInterrupt@CMcpxBuffer@DirectSound@@MAEHXZ 00574924 f   dsound:mcpbuf.obj
 0003:000059ab       ?SetNotificationPositions@CMcpxBuffer@DirectSound@@QAEJXZ 0057496b f   dsound:mcpbuf.obj
 0003:000059ff       ?NotifyToPosition@CMcpxBuffer@DirectSound@@IAEXKH@Z 005749bf f   dsound:mcpbuf.obj
 0003:00005a60       ?NotifyStop@CMcpxBuffer@DirectSound@@IAEXXZ 00574a20 f   dsound:mcpbuf.obj
 0003:00005a9a       ?ScheduleDeferredCommand@CMcpxBuffer@DirectSound@@MAEHK_JK@Z 00574a5a f   dsound:mcpbuf.obj
 0003:00005ac9       ?RemoveDeferredCommand@CMcpxBuffer@DirectSound@@MAEXK@Z 00574a89 f   dsound:mcpbuf.obj
 0003:00005ae3       ??0CMcpxBuffer@DirectSound@@QAE@PAVCMcpxAPU@1@PAVCDirectSoundBufferSettings@1@@Z 00574aa3 f   dsound:mcpbuf.obj
 0003:00005b3e       ?MapInputBuffer@CMcpxBuffer@DirectSound@@IAEJXZ 00574afe f   dsound:mcpbuf.obj
 0003:00005ba6       ?MapEffectsBuffer@CMcpxBuffer@DirectSound@@IAEXXZ 00574b66 f   dsound:mcpbuf.obj
 0003:00005bf8       ?OnPositionDelta@CMcpxBuffer@DirectSound@@IAEXXZ 00574bb8 f   dsound:mcpbuf.obj
 0003:00005c97       ?AllocateBufferResources@CMcpxBuffer@DirectSound@@IAEJXZ 00574c57 f   dsound:mcpbuf.obj
 0003:00005ce5       ?Play@CMcpxBuffer@DirectSound@@QAEJK@Z 00574ca5 f   dsound:mcpbuf.obj
 0003:00005d61       ?Stop@CMcpxBuffer@DirectSound@@QAEJK@Z 00574d21 f   dsound:mcpbuf.obj
 0003:00005df1       ?Initialize@CMcpxBuffer@DirectSound@@QAEJXZ 00574db1 f   dsound:mcpbuf.obj
 0003:00005e15       ?SetBufferData@CMcpxBuffer@DirectSound@@QAEJXZ 00574dd5 f   dsound:mcpbuf.obj
 0003:00005e2f       ?ReleaseBufferResources@CMcpxBuffer@DirectSound@@IAEXXZ 00574def f   dsound:mcpbuf.obj
 0003:00005e7c       ?OnDeferredTerminate@CMcpxBuffer@DirectSound@@IAEXXZ 00574e3c f   dsound:mcpbuf.obj
 0003:00005e97       ??1CMcpxBuffer@DirectSound@@UAE@XZ 00574e57 f   dsound:mcpbuf.obj
 0003:00005ed4       ?ReleaseBufferData@CMcpxBuffer@DirectSound@@QAEJH@Z 00574e94 f   dsound:mcpbuf.obj
 0003:00005f05       ?ServiceDeferredCommand@CMcpxBuffer@DirectSound@@MAEXKK@Z 00574ec5 f   dsound:mcpbuf.obj
 0003:00005f46       ??_GCMcpxBuffer@DirectSound@@UAEPAXI@Z 00574f06 f i dsound:mcpbuf.obj
 0003:00005f46       ??_ECMcpxBuffer@DirectSound@@UAEPAXI@Z 00574f06 f i dsound:mcpbuf.obj
 0003:00005f61       ?XMOAcceptPacket@@YGXPBU_XMEDIAPACKET@@@Z 00574f21 f i dsound:mcpstrm.obj
 0003:00005f7f       ?XMOCompletePacket@@YGXPBU_XMEDIAPACKET@@KP6GXPAX1K@Z1K@Z 00574f3f f i dsound:mcpstrm.obj
 0003:00005fc3       ?MoveHeadTailList@@YGPAU_LIST_ENTRY@@PAU1@0@Z 00574f83 f i dsound:mcpstrm.obj
 0003:00005fde       ?HasPendingData@CMcpxStream@DirectSound@@QAEHXZ 00574f9e f i dsound:mcpstrm.obj
 0003:00005ff6       ?Initialize@CMcpxStream@DirectSound@@QAEJXZ 00574fb6 f   dsound:mcpstrm.obj
 0003:0000609d       ?SetFormat@CMcpxStream@DirectSound@@UAEJXZ 0057505d f   dsound:mcpstrm.obj
 0003:00006167       ?Pause@CMcpxStream@DirectSound@@QAEJK@Z 00575127 f   dsound:mcpstrm.obj
 0003:000061ae       ?Stop@CMcpxStream@DirectSound@@QAEJK@Z 0057516e f   dsound:mcpstrm.obj
 0003:00006210       ?GetStatus@CMcpxStream@DirectSound@@QAEJPAK@Z 005751d0 f   dsound:mcpstrm.obj
 0003:00006288       ?OnEndOfStream@CMcpxStream@DirectSound@@IAEXXZ 00575248 f   dsound:mcpstrm.obj
 0003:000062b5       ?MapPacket@CMcpxStream@DirectSound@@IAEKKPAUMCPX_PACKET_CONTEXT@@@Z 00575275 f   dsound:mcpstrm.obj
 0003:00006418       ?CommitSsl@CMcpxStream@DirectSound@@IAEXK@Z 005753d8 f   dsound:mcpstrm.obj
 0003:000064ed       ?CompletePacket@CMcpxStream@DirectSound@@IAEXPAUMCPX_PACKET_CONTEXT@@K@Z 005754ad f   dsound:mcpstrm.obj
 0003:00006539       ?ReleaseStreamResources@CMcpxStream@DirectSound@@IAEXXZ 005754f9 f   dsound:mcpstrm.obj
 0003:00006579       ?ScheduleDeferredCommand@CMcpxStream@DirectSound@@MAEHK_JK@Z 00575539 f   dsound:mcpstrm.obj
 0003:000065a6       ?RemoveDeferredCommand@CMcpxStream@DirectSound@@MAEXK@Z 00575566 f   dsound:mcpstrm.obj
 0003:000065be       ??0CMcpxStream@DirectSound@@QAE@PAVCMcpxAPU@1@PAVCDirectSoundStreamSettings@1@@Z 0057557e f   dsound:mcpstrm.obj
 0003:00006669       ?MapPackets@CMcpxStream@DirectSound@@IAEHK@Z 00575629 f   dsound:mcpstrm.obj
 0003:000066d0       ?CompletePackets@CMcpxStream@DirectSound@@IAEXPAU_LIST_ENTRY@@K@Z 00575690 f   dsound:mcpstrm.obj
 0003:00006746       ?CompleteDeferredPackets@CMcpxStream@DirectSound@@IAEXXZ 00575706 f   dsound:mcpstrm.obj
 0003:0000676e       ?CompleteSsl@CMcpxStream@DirectSound@@IAEXKK@Z 0057572e f   dsound:mcpstrm.obj
 0003:00006831       ?Flush@CMcpxStream@DirectSound@@QAEJXZ 005757f1 f   dsound:mcpstrm.obj
 0003:00006904       ?OnDeferredFlush@CMcpxStream@DirectSound@@IAEXXZ 005758c4 f   dsound:mcpstrm.obj
 0003:00006912       ?Process@CMcpxStream@DirectSound@@IAEKXZ 005758d2 f   dsound:mcpstrm.obj
 0003:000069c0       ?ServiceVoiceInterrupt@CMcpxStream@DirectSound@@MAEHXZ 00575980 f   dsound:mcpstrm.obj
 0003:00006a2c       ?ServiceDeferredCommand@CMcpxStream@DirectSound@@MAEXKK@Z 005759ec f   dsound:mcpstrm.obj
 0003:00006a77       ??1CMcpxStream@DirectSound@@UAE@XZ 00575a37 f   dsound:mcpstrm.obj
 0003:00006ad2       ?SubmitPacket@CMcpxStream@DirectSound@@QAEJABU_XMEDIAPACKET@@@Z 00575a92 f   dsound:mcpstrm.obj
 0003:00006b93       ?Discontinuity@CMcpxStream@DirectSound@@QAEJXZ 00575b53 f   dsound:mcpstrm.obj
 0003:00006bb8       ??_ECMcpxStream@DirectSound@@UAEPAXI@Z 00575b78 f i dsound:mcpstrm.obj
 0003:00006bb8       ??_GCMcpxStream@DirectSound@@UAEPAXI@Z 00575b78 f i dsound:mcpstrm.obj
 0003:00006bd3       ?CreateMarker@CMcpxBufferSgeHeap@DirectSound@@IAEPAUSGEHEAPRUNMARKER@@PAU3@GGPAU_LIST_ENTRY@@@Z 00575b93 f i dsound:heap.obj
 0003:00006c09       ?CreateMarker@CMcpxSlopMemoryHeap@DirectSound@@IAEPAUSLOPRUNMARKER@@PAXKPAU_LIST_ENTRY@@@Z 00575bc9 f i dsound:heap.obj
 0003:00006c30       ??0CMcpxBufferSgeHeap@DirectSound@@QAE@XZ 00575bf0 f   dsound:heap.obj
 0003:00006c50       ??1CMcpxBufferSgeHeap@DirectSound@@UAE@XZ 00575c10 f   dsound:heap.obj
 0003:00006c72       ?Initialize@CMcpxBufferSgeHeap@DirectSound@@QAEJG@Z 00575c32 f   dsound:heap.obj
 0003:00006cfd       ?AllocRun@CMcpxBufferSgeHeap@DirectSound@@IAEPAUSGEHEAPRUNMARKER@@PAXG@Z 00575cbd f   dsound:heap.obj
 0003:00006dce       ?CoalesceRuns@CMcpxBufferSgeHeap@DirectSound@@IAEPAUSGEHEAPRUNMARKER@@PAU3@0@Z 00575d8e f   dsound:heap.obj
 0003:00006def       ?MapBuffer@CMcpxBufferSgeHeap@DirectSound@@KGXKPAXK@Z 00575daf f   dsound:heap.obj
 0003:00006e5c       ?UnmapBuffer@CMcpxBufferSgeHeap@DirectSound@@KGXPAXK@Z 00575e1c f   dsound:heap.obj
 0003:00006e73       ??0CMcpxSlopMemoryHeap@DirectSound@@QAE@XZ 00575e33 f   dsound:heap.obj
 0003:00006e98       ??1CMcpxSlopMemoryHeap@DirectSound@@UAE@XZ 00575e58 f   dsound:heap.obj
 0003:00006ef9       ?AddRun@CMcpxSlopMemoryHeap@DirectSound@@QAEHPAXKK@Z 00575eb9 f   dsound:heap.obj
 0003:00006f7d       ?Alloc@CMcpxSlopMemoryHeap@DirectSound@@QAEPAXK@Z 00575f3d f   dsound:heap.obj
 0003:00007058       ?CoalesceRuns@CMcpxSlopMemoryHeap@DirectSound@@IAEPAUSLOPRUNMARKER@@PAU3@0@Z 00576018 f   dsound:heap.obj
 0003:00007073       ??_GCMcpxBufferSgeHeap@DirectSound@@UAEPAXI@Z 00576033 f i dsound:heap.obj
 0003:00007073       ??_ECMcpxBufferSgeHeap@DirectSound@@UAEPAXI@Z 00576033 f i dsound:heap.obj
 0003:0000708e       ?Alloc@CMcpxBufferSgeHeap@DirectSound@@QAEPAUSGEHEAPRUNMARKER@@PAXK@Z 0057604e f   dsound:heap.obj
 0003:0000711d       ?FreeRun@CMcpxBufferSgeHeap@DirectSound@@IAEXPAUSGEHEAPRUNMARKER@@@Z 005760dd f   dsound:heap.obj
 0003:00007179       ??_GCMcpxSlopMemoryHeap@DirectSound@@UAEPAXI@Z 00576139 f i dsound:heap.obj
 0003:00007179       ??_ECMcpxSlopMemoryHeap@DirectSound@@UAEPAXI@Z 00576139 f i dsound:heap.obj
 0003:00007194       ?Free@CMcpxSlopMemoryHeap@DirectSound@@QAEXPAX@Z 00576154 f   dsound:heap.obj
 0003:0000722d       ?Free@CMcpxBufferSgeHeap@DirectSound@@QAEXPAUSGEHEAPRUNMARKER@@@Z 005761ed f   dsound:heap.obj
 0003:0000728e       ??0CMcpxDspScratchDma@DirectSound@@QAE@H@Z 0057624e f   dsound:dspdma.obj
 0003:000072a8       ??1CMcpxDspScratchDma@DirectSound@@QAE@XZ 00576268 f   dsound:dspdma.obj
 0003:000072d6       ?Initialize@CMcpxDspScratchDma@DirectSound@@QAEXK@Z 00576296 f   dsound:dspdma.obj
 0003:00007389       ?AddPages@CMcpxDspScratchDma@DirectSound@@QAEXPAUMCPX_ALLOC_CONTEXT@@KPAK@Z 00576349 f   dsound:dspdma.obj
 0003:000073db       ?Copy@CMcpxDspScratchDma@DirectSound@@QAEXKPAXK@Z 0057639b f   dsound:dspdma.obj
 0003:00007403       ?AdjustFxScratch@CMcpxDspScratchDma@DirectSound@@QAEJK@Z 005763c3 f   dsound:dspdma.obj
 0003:000074db       ?lfsr@@YGX_KPAXK@Z         0057649b f   dsound:cipher.obj
 0003:00007554       ?XAudiopUtility_GenerateKey@@YGXPAE@Z 00576514 f   dsound:cipher.obj
 0003:00007581       ?XAudiopUtility_Decode@@YGHPAE0K0H@Z 00576541 f   dsound:cipher.obj
 0003:0000769e       ??0CI3dl2Listener@DirectSound@@QAE@ABU_DSI3DL2LISTENER@@@Z 0057665e f   dsound:i3dl2.obj
 0003:000076a9       ?SetSize@CI3dl2Listener@DirectSound@@AAEXM@Z 00576669 f   dsound:i3dl2.obj
 0003:0000772e       ?SetReflectionsGain@CI3dl2Listener@DirectSound@@AAEXM@Z 005766ee f   dsound:i3dl2.obj
 0003:00007761       ?SetReflectionsDelay@CI3dl2Listener@DirectSound@@AAEXM@Z 00576721 f   dsound:i3dl2.obj
 0003:0000777d       ?SetReverbGain@CI3dl2Listener@DirectSound@@AAEXM@Z 0057673d f   dsound:i3dl2.obj
 0003:000077b2       ?SetReverbDelay@CI3dl2Listener@DirectSound@@AAEXM@Z 00576772 f   dsound:i3dl2.obj
 0003:00007842       ?SetDiffusion@CI3dl2Listener@DirectSound@@AAEXM@Z 00576802 f   dsound:i3dl2.obj
 0003:000078b9       ?Initialize@CI3dl2Listener@DirectSound@@QAEXXZ 00576879 f   dsound:i3dl2.obj
 0003:000078f0       ?Get1PoleLoPass@CI3dl2Listener@DirectSound@@AAEXJJMMPAM0@Z 005768b0 f   dsound:i3dl2.obj
 0003:000079af       ??0CI3dl2Source@DirectSound@@QAE@ABVCI3dl2Listener@1@ABU_DSI3DL2BUFFER@@@Z 0057696f f   dsound:i3dl2.obj
 0003:000079d2       ?Get1PoleLoPass@CI3dl2Source@DirectSound@@AAEHJJMM@Z 00576992 f   dsound:i3dl2.obj
 0003:00007a60       ?SetInputFilter@CI3dl2Listener@DirectSound@@AAEXJM@Z 00576a20 f   dsound:i3dl2.obj
 0003:00007abd       ?SetDecayFilter@CI3dl2Listener@DirectSound@@AAEXPAU_DSFX_I3DL2REVERB_IIR@@KMMM@Z 00576a7d f   dsound:i3dl2.obj
 0003:00007b68       ?CalculateI3dl2@CI3dl2Source@DirectSound@@QAEXM@Z 00576b28 f   dsound:i3dl2.obj
 0003:00007cce       ?SetDecayTimes@CI3dl2Listener@DirectSound@@AAEXMMM@Z 00576c8e f   dsound:i3dl2.obj
 0003:00007da5       ?CalculateI3dl2@CI3dl2Listener@DirectSound@@QAEXXZ 00576d65 f   dsound:i3dl2.obj
 0003:000080bc       ?SetupVoiceProcessor@CMcpxCore@DirectSound@@IAEXXZ 0057707c f   dsound:mcpxcore.obj
 0003:0000818d       ?SetupGlobalProcessor@CMcpxCore@DirectSound@@IAEXXZ 0057714d f   dsound:mcpxcore.obj
 0003:000082b6       ?SetupEncodeProcessor@CMcpxCore@DirectSound@@IAEXXZ 00577276 f   dsound:mcpxcore.obj
 0003:00008439       ?SetupAc97@CMcpxCore@DirectSound@@IAEJXZ 005773f9 f   dsound:mcpxcore.obj
 0003:000084f2       ?SetInterruptState@CMcpxCore@DirectSound@@IAEXH@Z 005774b2 f   dsound:mcpxcore.obj
 0003:00008529       ?SetPrivLockState@CMcpxCore@DirectSound@@IAEXH@Z 005774e9 f   dsound:mcpxcore.obj
 0003:00008560       ?SetFrontEndState@CMcpxCore@DirectSound@@IAEXW4MCPX_FE_STATE@@@Z 00577520 f   dsound:mcpxcore.obj
 0003:000085bb       ?SetSetupEngineState@CMcpxCore@DirectSound@@IAEXW4MCPX_SE_STATE@@@Z 0057757b f   dsound:mcpxcore.obj
 0003:0000861d       ?GetPhysicalMemoryProperties@CMcpxCore@DirectSound@@SGKPAXKPAK1@Z 005775dd f   dsound:mcpxcore.obj
 0003:00008694       ?MapTransfer@CMcpxCore@DirectSound@@SGKPAPAXPAK1@Z 00577654 f   dsound:mcpxcore.obj
 0003:000086d1       ?AllocateContext@CMcpxCore@DirectSound@@SGJPAUMCPX_ALLOC_CONTEXT@@KK@Z 00577691 f   dsound:mcpxcore.obj
 0003:00008710       ?ResetGlobalCounters@CMcpxCore@DirectSound@@IAEXXZ 005776d0 f   dsound:mcpxcore.obj
 0003:0000878a       ?SetupDSPs@CMcpxCore@DirectSound@@IAEXXZ 0057774a f i dsound:mcpxcore.obj
 0003:000087a6       ??0CMcpxCore@DirectSound@@QAE@PAVCDirectSoundSettings@1@@Z 00577766 f   dsound:mcpxcore.obj
 0003:000087c9       ??1CMcpxCore@DirectSound@@UAE@XZ 00577789 f   dsound:mcpxcore.obj
 0003:0000886e       ?SetupFrontEndProcessor@CMcpxCore@DirectSound@@IAEXXZ 0057782e f   dsound:mcpxcore.obj
 0003:00008939       ?AllocateApuMemory@CMcpxCore@DirectSound@@IAEJXZ 005778f9 f   dsound:mcpxcore.obj
 0003:00008ab9       ?IdleVoiceProcessor@CMcpxCore@DirectSound@@QAEHH@Z 00577a79 f   dsound:mcpxcore.obj
 0003:00008b9a       ??_ECMcpxCore@DirectSound@@UAEPAXI@Z 00577b5a f i dsound:mcpxcore.obj
 0003:00008b9a       ??_GCMcpxCore@DirectSound@@UAEPAXI@Z 00577b5a f i dsound:mcpxcore.obj
 0003:00008bb5       ?Reset@CMcpxCore@DirectSound@@IAEXXZ 00577b75 f   dsound:mcpxcore.obj
 0003:00008c35       ?Initialize@CMcpxCore@DirectSound@@QAEJXZ 00577bf5 f   dsound:mcpxcore.obj
 0003:00008c8f       ??0CAc97Device@DirectSound@@QAE@XZ 00577c4f f   dsound:ac97.obj
 0003:00008c97       ?AcquireCodecSemaphore@CAc97Device@DirectSound@@KGHXZ 00577c57 f   dsound:ac97.obj
 0003:00008cc4       ?CodecReady@CAc97Device@DirectSound@@IAEHXZ 00577c84 f   dsound:ac97.obj
 0003:00008d14       ?SynchronizeAciInterrupt@CAc97Device@DirectSound@@IAEXXZ 00577cd4 f   dsound:ac97.obj
 0003:00008d28       ?PokeAc97Register@CAc97Device@DirectSound@@KGHW4AC97REGISTER@@G@Z 00577ce8 f   dsound:ac97.obj
 0003:00008d45       ?PowerUp@CAc97Device@DirectSound@@IAEJXZ 00577d05 f   dsound:ac97.obj
 0003:00008d5d       ?Pause@CAc97Channel@DirectSound@@QAEXXZ 00577d1d f   dsound:ac97.obj
 0003:00008d8c       ?SetPrdIndeces@CAc97Channel@DirectSound@@IAEXEEHH@Z 00577d4c f   dsound:ac97.obj
 0003:00008e1c       ?SetMode@CAc97Channel@DirectSound@@QAEXK@Z 00577ddc f   dsound:ac97.obj
 0003:00008e4d       ?SetPosition@CAc97Channel@DirectSound@@IAEXK@Z 00577e0d f   dsound:ac97.obj
 0003:00008e7b       ?AciSynchronizationRoutine@CAc97Device@DirectSound@@CGEPAX@Z 00577e3b f i dsound:ac97.obj
 0003:00008e89       ?CreateChannel@CAc97Device@DirectSound@@QAEJW4AC97CHANNELTYPE@@PAPAVCAc97Channel@2@@Z 00577e49 f   dsound:ac97.obj
 0003:00008ef1       ?AttachPacket@CAc97Channel@DirectSound@@QAEXKK@Z 00577eb1 f   dsound:ac97.obj
 0003:00008f82       ?Reset@CAc97Channel@DirectSound@@QAEXXZ 00577f42 f   dsound:ac97.obj
 0003:00008ff4       ?Flush@CAc97Channel@DirectSound@@QAEXH@Z 00577fb4 f   dsound:ac97.obj
 0003:00009042       ?Run@CAc97Channel@DirectSound@@QAEXK@Z 00578002 f   dsound:ac97.obj
 0003:0000909c       ?Initialize@CAc97Channel@DirectSound@@QAEJKP6GXPAX@Z0@Z 0057805c f   dsound:ac97.obj
 0003:0000913e       ?Terminate@CAc97Channel@DirectSound@@QAEXXZ 005780fe f   dsound:ac97.obj
 0003:0000918c       ?ServiceInterrupt@CAc97Channel@DirectSound@@IAEXXZ 0057814c f   dsound:ac97.obj
 0003:000091e3       ?ServiceAciInterrupt@CAc97Device@DirectSound@@IAEKXZ 005781a3 f   dsound:ac97.obj
 0003:000092b7       ?ServiceAciInterruptDpc@CAc97Device@DirectSound@@IAEXXZ 00578277 f   dsound:ac97.obj
 0003:00009310       ?AciInterruptServiceRoutine@CAc97Device@DirectSound@@CGEPAU_KINTERRUPT@@PAX@Z 005782d0 f i dsound:ac97.obj
 0003:00009321       ?AciInterruptDpcHandler@CAc97Device@DirectSound@@CGXPAU_KDPC@@PAX11@Z 005782e1 f i dsound:ac97.obj
 0003:0000932d       ?ReleaseChannel@CAc97Device@DirectSound@@QAEXW4AC97CHANNELTYPE@@@Z 005782ed f   dsound:ac97.obj
 0003:0000936c       ?Terminate@CAc97Device@DirectSound@@QAEXXZ 0057832c f   dsound:ac97.obj
 0003:000093db       ?AciShutdownNotifier@CAc97Device@DirectSound@@CGXPAU_HAL_SHUTDOWN_REGISTRATION@@@Z 0057839b f i dsound:ac97.obj
 0003:000093ea       ??1CAc97Device@DirectSound@@QAE@XZ 005783aa f   dsound:ac97.obj
 0003:000093f7       ?Initialize@CAc97Device@DirectSound@@QAEJK@Z 005783b7 f   dsound:ac97.obj
 0003:000094d6       ?AC3GetTotalScratchSize@CMcpxEPDspManager@DirectSound@@SGKXZ 00578496 f   dsound:epdsp.obj
 0003:000094dc       ?AC3GetProgram@CMcpxEPDspManager@DirectSound@@SGXKPAPAXPAK@Z 0057849c f   dsound:epdsp.obj
 0003:0000957a       ??0CMcpxEPDspManager@DirectSound@@QAE@XZ 0057853a f   dsound:epdsp.obj
 0003:00009587       ?GetDolbyConfigTable@CMcpxEPDspManager@DirectSound@@QAEPAUDOLBY_CONFIG_TABLE@@XZ 00578547 f   dsound:epdsp.obj
 0003:0000958b       ?AC3StartGpInput@CMcpxEPDspManager@DirectSound@@AAEXK@Z 0057854b f   dsound:epdsp.obj
 0003:00009602       ?AC3SetAnalogOutput@CMcpxEPDspManager@DirectSound@@QAEXKK@Z 005785c2 f   dsound:epdsp.obj
 0003:0000962a       ?AC3SetDigitalOutput@CMcpxEPDspManager@DirectSound@@QAEXKK@Z 005785ea f   dsound:epdsp.obj
 0003:0000966f       ??1CMcpxEPDspManager@DirectSound@@QAE@XZ 0057862f f   dsound:epdsp.obj
 0003:0000968c       ?Initialize@CMcpxEPDspManager@DirectSound@@QAEXPAVCMcpxGPDspManager@2@@Z 0057864c f   dsound:epdsp.obj
 0003:000097c0       ?m_wfxMixDest@CDirectSoundBufferSettings@DirectSound@@2UtWAVEFORMATEX@@B 00578780     dsound:dsapi.obj
 0003:00009840       ?m_asNextStep@CImaAdpcmCodec@DirectSound@@0QBFB 00578800     dsound:dscommon.obj
 0003:00009860       ?m_asStep@CImaAdpcmCodec@DirectSound@@0QBFB 00578820     dsound:dscommon.obj
 0003:00009918       ?m_vDefaultNormOrient@CHrtfListener@DirectSound@@1U_D3DVECTOR@@B 005788d8     dsound:hrtf.obj
 0003:00009924       ?m_vDefaultNormFrontOrient@CHrtfListener@DirectSound@@1U_D3DVECTOR@@B 005788e4     dsound:hrtf.obj
 0003:00009930       ?m_aDefaultSpeakers@CHrtfListener@DirectSound@@1QBUPAN3DSPEAKER@@B 005788f0     dsound:hrtf.obj
 0003:00009994       ?m_Default3dData@CHrtfSource@DirectSound@@0UHRTFSOURCE@@B 00578954     dsound:hrtf.obj
 0003:000099b0       ?m_Default3dVoiceData@CHrtfSource@DirectSound@@0UHRTFVOICE@@B 00578970     dsound:hrtf.obj
 0003:0001bee8       _KSDATAFORMAT_SUBTYPE_XBOX_ADPCM 0058aea8     dsound:globals.obj
 0003:0001bef8       _KSDATAFORMAT_SUBTYPE_PCM  0058aeb8     dsound:globals.obj
 0003:0001bf08       _DirectSoundI3DL2ListenerPreset_Default 0058aec8     dsound:globals.obj
 0003:0001bf38       _DirectSoundDefault3DListener 0058aef8     dsound:globals.obj
 0003:0001bf78       _DirectSoundDefaultI3DL2Buffer 0058af38     dsound:globals.obj
 0003:0001bfa0       _DirectSoundDefault3DBuffer 0058af60     dsound:globals.obj
 0003:0001bfec       _DirectSoundDefaultMixBins_3D 0058afac     dsound:globals.obj
 0003:0001bff4       _DirectSoundRequiredMixBins_3D 0058afb4     dsound:globals.obj
 0003:0001bffc       _DirectSoundDefaultMixBins_6Channel 0058afbc     dsound:globals.obj
 0003:0001c004       _DirectSoundDefaultMixBins_4Channel 0058afc4     dsound:globals.obj
 0003:0001c00c       _DirectSoundDefaultMixBins_Stereo 0058afcc     dsound:globals.obj
 0003:0001c014       _DirectSoundDefaultMixBins_Mono 0058afd4     dsound:globals.obj
 0003:0001c01c       _DirectSoundDefaultMixBinVolumePairs_3D 0058afdc     dsound:globals.obj
 0003:0001c044       _DirectSoundRequiredMixBinVolumePairs_3D 0058b004     dsound:globals.obj
 0003:0001c064       _DirectSoundDefaultMixBinVolumePairs_6Channel 0058b024     dsound:globals.obj
 0003:0001c094       _DirectSoundDefaultMixBinVolumePairs_4Channel 0058b054     dsound:globals.obj
 0003:0001c0b4       _DirectSoundDefaultMixBinVolumePairs_Stereo 0058b074     dsound:globals.obj
 0003:0001c0c4       _DirectSoundDefaultMixBinVolumePairs_Mono 0058b084     dsound:globals.obj
 0003:0001c120       ?m_dwUsageThreshold@CMcpxSlopMemoryHeap@DirectSound@@2KB 0058b0e0     dsound:heap.obj
 0003:0001c128       ?m_flScale23@CI3dl2Listener@DirectSound@@0MB 0058b0e8     dsound:i3dl2.obj
 0003:0001c12c       ?m_flScale16@CI3dl2Listener@DirectSound@@0MB 0058b0ec     dsound:i3dl2.obj
 0003:0001c130       ?m_aflReflectionData@CI3dl2Listener@DirectSound@@0QAY04$$CBMA 0058b0f0     dsound:i3dl2.obj
 0003:0001c180       ?m_aflShortReverbInputFactor@CI3dl2Listener@DirectSound@@0QAY01$$CBMA 0058b140     dsound:i3dl2.obj
 0003:0001c1a0       ?m_aflShortReverbFeedbackDelay@CI3dl2Listener@DirectSound@@0QBMB 0058b160     dsound:i3dl2.obj
 0003:0001c1b0       ?m_aflLongReverbInputDelay@CI3dl2Listener@DirectSound@@0QAY03$$CBMA 0058b170     dsound:i3dl2.obj
 0003:0001c1d0       ?m_dwSamplesPerSec@CI3dl2Listener@DirectSound@@0KB 0058b190     dsound:i3dl2.obj
 0003:0001c1d4       ?m_DefaultI3dl2Data@CI3dl2Source@DirectSound@@0UI3DL2SOURCE@@B 0058b194     dsound:i3dl2.obj
 0003:0001c1f0       ?m_adwGPOutputBufferSizes@CMcpxCore@DirectSound@@2QBKB 0058b1b0     dsound:mcpxcore.obj
 0003:0001c1f4       ?m_adwEPOutputBufferSizes@CMcpxCore@DirectSound@@2QBKB 0058b1b4     dsound:mcpxcore.obj
 0003:0001c200       ?m_dwAc97RegisterBase@CAc97Device@DirectSound@@2KB 0058b1c0     dsound:ac97.obj
 0003:0001c204       ?m_dwAciRegisterBase@CAc97Device@DirectSound@@2KB 0058b1c4     dsound:ac97.obj
 0003:0001c208       ?m_wfxFormat@CAc97Device@DirectSound@@2UtWAVEFORMATEX@@B 0058b1c8     dsound:ac97.obj
 0003:0001c21c       ?m_adwRegisterOffsets@CAc97Channel@DirectSound@@2QBKB 0058b1dc     dsound:ac97.obj
 0003:0001c224       ?m_dwSilenceSize@CAc97Channel@DirectSound@@2KB 0058b1e4     dsound:ac97.obj
 0003:0001c230       ?m_dwRefCount@CFpState@DirectSound@@0KA 0058b1f0     dsound:dscommon.obj
 0003:0001c234       ?m_pfnCalculate@CHrtfSource@DirectSound@@0P6GXKPAV12@@ZA 0058b1f4     dsound:hrtf.obj
 0003:0001c238       ?m_pfnGetFilterPair@CHrtfSource@DirectSound@@0P6GXPAV12@@ZA 0058b1f8     dsound:hrtf.obj
 0003:0001c23c       ?m_nAlgorithm@CHrtfSource@DirectSound@@1IA 0058b1fc     dsound:hrtf.obj
 0003:0001c240       _g_dwDirectSoundDebugLevel 0058b200     dsound:globals.obj
 0003:0001c244       _g_dwDirectSoundDebugBreakLevel 0058b204     dsound:globals.obj
 0003:0001c248       _g_fDirectSoundDebugBreak  0058b208     dsound:globals.obj
 0003:0001c24c       _g_dwDirectSoundPoolMemoryUsage 0058b20c     dsound:globals.obj
 0003:0001c250       _g_dwDirectSoundPhysicalMemoryUsage 0058b210     dsound:globals.obj
 0003:0001c254       _g_dwDirectSoundPhysicalMemorySlop 0058b214     dsound:globals.obj
 0003:0001c258       _g_dwDirectSoundPhysicalMemoryRecovered 0058b218     dsound:globals.obj
 0003:0001c25c       _g_dwDirectSoundFree2dVoices 0058b21c     dsound:globals.obj
 0003:0001c260       _g_dwDirectSoundFree3dVoices 0058b220     dsound:globals.obj
 0003:0001c264       _g_dwDirectSoundFreeBufferSGEs 0058b224     dsound:globals.obj
 0003:0001c268       _g_dwDirectSoundOverrideSpeakerConfig 0058b228     dsound:globals.obj
 0003:0001c26c       _g_fDirectSoundInFinalRelease 0058b22c     dsound:globals.obj
 0003:0001c270       _g_fDirectSoundDisableBusyWaitWarning 0058b230     dsound:globals.obj
 0003:0001c274       _g_fDirectSoundI3DL2Overdelay 0058b234     dsound:globals.obj
 0003:0001c278       _g_DirectSoundCriticalSection 0058b238     dsound:globals.obj
 0003:0001c864       ?m_dwDeltaWarningCount@CMcpxAPU@DirectSound@@0KA 0058b824     dsound:mcpapu.obj
 0003:0001c868       ?m_dwDeltaPanicCount@CMcpxAPU@DirectSound@@0KA 0058b828     dsound:mcpapu.obj
 0003:0001c870       ?m_dwStuckVoiceCount@CMcpxVoiceClient@DirectSound@@2KA 0058b830     dsound:mcpvoice.obj
 0003:0001c874       ?m_dwGlobalRefCount@CAc97MediaObject@DirectSound@@1KA 0058b834     dsound:ac97xmo.obj
 0003:0001c878       ?m_pDevice@CAc97MediaObject@DirectSound@@1PAVCAc97Device@2@A 0058b838     dsound:ac97xmo.obj
 0003:0001c87c       ?m_pSlopMemoryHeap@CMcpxSlopMemoryHeap@DirectSound@@2PAV12@A 0058b83c     dsound:heap.obj
 0003:0001c880       ?m_pDevice@CAc97Device@DirectSound@@2PAV12@A 0058b840     dsound:ac97.obj
 0003:0001c888       ?m_Interrupt@CAc97Device@DirectSound@@1U_KINTERRUPT@@A 0058b848     dsound:ac97.obj
 0003:0001c8f8       ?m_pDirectSound@CDirectSound@DirectSound@@2PAV12@A 0058b8b8     dsound:dsapi.obj
 0003:0001c8fc       ?m_fps@CFpState@DirectSound@@0U_KFLOATING_SAVE@@A 0058b8bc     dsound:dscommon.obj
 0003:0001c91c       ?m_dwPhysicalMemoryUsage@CMemoryManager@DirectSound@@2AAKA 0058b8dc     dsound:dscommon.obj
 0003:0001c920       ?m_dwPoolMemoryUsage@CMemoryManager@DirectSound@@2AAKA 0058b8e0     dsound:dscommon.obj
 0003:0001c928       ?m_Interrupt@CMcpxAPU@DirectSound@@1U_KINTERRUPT@@A 0058b8e8     dsound:mcpapu.obj
 0003:0001c998       ?m_dwUsed@CMcpxSlopMemoryHeap@DirectSound@@2AAKA 0058b958     dsound:heap.obj
 0003:0001c99c       ?m_dwAvailable@CMcpxSlopMemoryHeap@DirectSound@@2AAKA 0058b95c     dsound:heap.obj
 0003:0001c9a8       ?m_ctxMemory@CMcpxCore@DirectSound@@2PAUMCPX_ALLOC_CONTEXT@@A 0058b968     dsound:mcpxcore.obj
 0004:00000000       ?Epsilon@XGRAPHICS@@YG_NMMM@Z 0058ba80 f   xgraphics:api.obj
 0004:00000031       _XGBuffer_AddRef@4         0058bab1 f   xgraphics:api.obj
 0004:0000003c       _XGBuffer_Release@4        0058babc f   xgraphics:api.obj
 0004:00000065       _XGBuffer_GetBufferPointer@4 0058bae5 f   xgraphics:api.obj
 0004:0000006f       _XGBuffer_GetBufferSize@4  0058baef f   xgraphics:api.obj
 0004:00000079       _XGBufferCreate@8          0058baf9 f   xgraphics:api.obj
 0004:000000bf       ??0Buffer@XGRAPHICS@@QAE@XZ 0058bb3f f   xgraphics:api.obj
 0004:000000cc       ??1Buffer@XGRAPHICS@@QAE@XZ 0058bb4c f   xgraphics:api.obj
 0004:000000d6       ?GrowTo@Buffer@XGRAPHICS@@QAEJK@Z 0058bb56 f   xgraphics:api.obj
 0004:00000147       ?Printf@Buffer@XGRAPHICS@@QAAJPBDZZ 0058bbc7 f   xgraphics:api.obj
 0004:00000198       ?Append@Buffer@XGRAPHICS@@QAEJPBXK@Z 0058bc18 f   xgraphics:api.obj
 0004:000001df       ?Append@Buffer@XGRAPHICS@@QAEJD@Z 0058bc5f f   xgraphics:api.obj
 0004:000001ee       ?Append@Buffer@XGRAPHICS@@QAEJPBD@Z 0058bc6e f   xgraphics:api.obj
 0004:00000211       ?GetText@Buffer@XGRAPHICS@@QAEPADXZ 0058bc91 f   xgraphics:api.obj
 0004:00000215       ?GetTextEnd@Buffer@XGRAPHICS@@QAEPADXZ 0058bc95 f   xgraphics:api.obj
 0004:0000021c       ?GetUsed@Buffer@XGRAPHICS@@QAEKXZ 0058bc9c f   xgraphics:api.obj
 0004:00000220       ?Clear@Buffer@XGRAPHICS@@QAEXXZ 0058bca0 f   xgraphics:api.obj
 0004:0000022f       ?CalculateFinalStall@TLEngineSim@XGRAPHICS@@QAEMAAW4StallType@2@@Z 0058bcaf f i xgraphics:api.obj
 0004:000002c4       ?MacOpType@TLEngineSim@XGRAPHICS@@QAE?AW4OpType@12@PBU_D3DVsInstruction@@@Z 0058bd44 f i xgraphics:api.obj
 0004:000002e6       ?Clear@STRegScoreboard@TLEngineSim@XGRAPHICS@@QAEXXZ 0058bd66 f i xgraphics:api.obj
 0004:0000030b       ?Start@STRegScoreboard@TLEngineSim@XGRAPHICS@@QAEXW4OpType@23@EEH@Z 0058bd8b f i xgraphics:api.obj
 0004:00000349       ?Clear@RegScoreboard@TLEngineSim@XGRAPHICS@@QAEXH@Z 0058bdc9 f i xgraphics:api.obj
 0004:000003c4       ?StartNewInstruction@RegScoreboard@TLEngineSim@XGRAPHICS@@QAEXXZ 0058be44 f i xgraphics:api.obj
 0004:00000440       ?Start@RegScoreboard@TLEngineSim@XGRAPHICS@@QAEXW4OpType@23@EEMW4StallType@3@@Z 0058bec0 f i xgraphics:api.obj
 0004:00000a04       ?Ready@RegScoreboard@TLEngineSim@XGRAPHICS@@QAEMEH_NAAW4StallType@3@@Z 0058c484 f i xgraphics:api.obj
 0004:00000a3e       ?IsMacMovRegNOP@DeadCodeStripper@XGRAPHICS@@SG_NABU_D3DVsInstruction@@@Z 0058c4be f i xgraphics:api.obj
 0004:00000abe       ?IsMacMovConstNOP@DeadCodeStripper@XGRAPHICS@@SG_NABU_D3DVsInstruction@@@Z 0058c53e f i xgraphics:api.obj
 0004:00000b5a       ?IsIluMovRegNOP@DeadCodeStripper@XGRAPHICS@@SG_NABU_D3DVsInstruction@@@Z 0058c5da f i xgraphics:api.obj
 0004:00000bff       ?IsIluMovConstNOP@DeadCodeStripper@XGRAPHICS@@SG_NABU_D3DVsInstruction@@@Z 0058c67f f i xgraphics:api.obj
 0004:00000c9a       ?RemoveNullMoves@DeadCodeStripper@XGRAPHICS@@SGJAAU_D3DVsInstruction@@@Z 0058c71a f i xgraphics:api.obj
 0004:00000ce0       ?IsNOP@DeadCodeStripper@XGRAPHICS@@SG_NABU_D3DVsInstruction@@@Z 0058c760 f i xgraphics:api.obj
 0004:00000d87       ?CalcOutputMasks@DeadCodeStripper@XGRAPHICS@@SGJABU_D3DVsInstruction@@AAUOutRegMaskSet@12@@Z 0058c807 f i xgraphics:api.obj
 0004:00000e73       ?UpdateCode@DeadCodeStripper@XGRAPHICS@@SGJAAU_D3DVsInstruction@@ABUOutRegMaskSet@12@@Z 0058c8f3 f i xgraphics:api.obj
 0004:00000fa3       ?UnswizzleMask@DeadCodeStripper@XGRAPHICS@@SGJAAEEGGGG@Z 0058ca23 f i xgraphics:api.obj
 0004:00000fff       ?CalcInputReg@DeadCodeStripper@XGRAPHICS@@SGJEAAUInRegMaskSet@12@AAEABU_D3DVsInstruction@@GG@Z 0058ca7f f i xgraphics:api.obj
 0004:0000105d       ?NarrowOutputMask@DeadCodeStripper@XGRAPHICS@@QAEJABU_D3DVsInstruction@@AAURegMask@12@@Z 0058cadd f i xgraphics:api.obj
 0004:000010ba       ?RecordOutputMask@DeadCodeStripper@XGRAPHICS@@QAEJABU_D3DVsInstruction@@ABURegMask@12@@Z 0058cb3a f i xgraphics:api.obj
 0004:000010f6       ?RecordInputMask@DeadCodeStripper@XGRAPHICS@@QAEJABU_D3DVsInstruction@@ABURegMask@12@PBD@Z 0058cb76 f i xgraphics:api.obj
 0004:00001158       ?InitRegisters@DeadCodeStripper@XGRAPHICS@@QAEJK@Z 0058cbd8 f i xgraphics:api.obj
 0004:0000119a       ?Clear@RegSet@Reorderer@XGRAPHICS@@QAEXXZ 0058cc1a f i xgraphics:api.obj
 0004:000011c9       ?DirtyConflictTest@RegSet@Reorderer@XGRAPHICS@@QBE_NPBE0K@Z 0058cc49 f i xgraphics:api.obj
 0004:000011f5       ?DirtyOut@RegSet@Reorderer@XGRAPHICS@@QAEJPAU_D3DVsInstruction@@@Z 0058cc75 f i xgraphics:api.obj
 0004:000012d7       ?MuxReadDirty@RegSet@Reorderer@XGRAPHICS@@AAE_NPBU_D3DVsInstruction@@KKKKKKKE@Z 0058cd57 f i xgraphics:api.obj
 0004:0000136f       ?MoveInstruction@Reorderer@XGRAPHICS@@AAEJHH@Z 0058cdef f i xgraphics:api.obj
 0004:000013e4       ?PairInstructions@Reorderer@XGRAPHICS@@AAEJHHPBU_D3DVsInstruction@@@Z 0058ce64 f i xgraphics:api.obj
 0004:0000142d       ?RegisterWriteMask@InstructionDisassembler@XGRAPHICS@@CGPBDK@Z 0058cead f i xgraphics:api.obj
 0004:000014bd       ?ParseOut@InstructionDisassembler@XGRAPHICS@@AAEJPBU_D3DVsInstruction@@_N1@Z 0058cf3d f i xgraphics:api.obj
 0004:00001609       ?ParseMux@InstructionDisassembler@XGRAPHICS@@AAEJDHHHHHHHPBU_D3DVsInstruction@@_N@Z 0058d089 f i xgraphics:api.obj
 0004:000017fd       ?EligableInstructions@Renamer@XGRAPHICS@@AAEJPBU_D3DVertexShaderProgram@@PA_N@Z 0058d27d f i xgraphics:api.obj
 0004:0000188c       ?UpdateInput@Renamer@XGRAPHICS@@AAEXEEEEEEEPAGPBGG@Z 0058d30c f i xgraphics:api.obj
 0004:00001b35       ?UpdateComponentUse@Renamer@XGRAPHICS@@AAEXGGE_N@Z 0058d5b5 f i xgraphics:api.obj
 0004:00001b93       ?IsRegFree@Renamer@XGRAPHICS@@AAE_NPBGEG@Z 0058d613 f i xgraphics:api.obj
 0004:00001c0c       ?AssignReg@Renamer@XGRAPHICS@@AAEJPAGEG@Z 0058d68c f i xgraphics:api.obj
 0004:00001cc2       ?AssignFreeReg@Renamer@XGRAPHICS@@AAEJPAGG_N@Z 0058d742 f i xgraphics:api.obj
 0004:00001d4c       ?RemapVRegs2End@Renamer@XGRAPHICS@@AAEJPAG0G@Z 0058d7cc f i xgraphics:api.obj
 0004:00001dc9       ?CalcSwizzledWriteMask@Renamer@XGRAPHICS@@AAEEEPBUVRegInfo@12@@Z 0058d849 f i xgraphics:api.obj
 0004:00001e01       ?ConvertPackedDWordsToUCode@XGRAPHICS@@YGXPBKPAU_D3DVsInstruction@@@Z 0058d881 f   xgraphics:api.obj
 0004:00001e83       ?ConvertToImv@XGRAPHICS@@YG_NPAU_D3DVsInstruction@@PBU2@@Z 0058d903 f   xgraphics:api.obj
 0004:00001fd9       ?SwapAC@XGRAPHICS@@YG_NPAU_D3DVsInstruction@@PBU2@@Z 0058da59 f   xgraphics:api.obj
 0004:000020ed       ?StripMacInstruction@XGRAPHICS@@YGXPAU_D3DVsInstruction@@@Z 0058db6d f   xgraphics:api.obj
 0004:00002147       ?NullSwizzle@XGRAPHICS@@YG_NKKKKKK@Z 0058dbc7 f   xgraphics:api.obj
 0004:00002186       ?ReadsFromConst@XGRAPHICS@@YG_NPBU_D3DVsInstruction@@@Z 0058dc06 f   xgraphics:api.obj
 0004:000021f4       ?CompatableConstUsage@XGRAPHICS@@YG_NPBU_D3DVsInstruction@@0@Z 0058dc74 f   xgraphics:api.obj
 0004:00002232       ?PairableMasks2@XGRAPHICS@@YG_NPAU_D3DVsInstruction@@PBU2@1@Z 0058dcb2 f   xgraphics:api.obj
 0004:00002351       ?SourcesEqual@XGRAPHICS@@YG_NKKKPBU_D3DVsInstruction@@KKK0@Z 0058ddd1 f   xgraphics:api.obj
 0004:000023b3       ?ComputePostSwizzleUseMasks@XGRAPHICS@@YGXPBU_D3DVsInstruction@@PAE@Z 0058de33 f   xgraphics:api.obj
 0004:00002450       ?ComputeEffectiveSwizzle@XGRAPHICS@@YGXEEEEEPAD@Z 0058ded0 f   xgraphics:api.obj
 0004:000024a0       ?ComputeEffectiveSwizzles@XGRAPHICS@@YGXPBU_D3DVsInstruction@@PAD@Z 0058df20 f   xgraphics:api.obj
 0004:00002547       ?ComputeEffectiveReadMask@XGRAPHICS@@YGEEEEE@Z 0058dfc7 f   xgraphics:api.obj
 0004:0000258f       ?ComputeEffectiveReadMask@XGRAPHICS@@YGEPBU_D3DVsInstruction@@H@Z 0058e00f f   xgraphics:api.obj
 0004:000025fd       ?CanUseXYZW@XGRAPHICS@@YG_NPBD@Z 0058e07d f   xgraphics:api.obj
 0004:0000263a       ?PickDefault@XGRAPHICS@@YGDPBD@Z 0058e0ba f   xgraphics:api.obj
 0004:00002662       ?ChooseBestSwizzle@XGRAPHICS@@YGKDDD@Z 0058e0e2 f   xgraphics:api.obj
 0004:0000267c       ?SetSwizzles@XGRAPHICS@@YGXPAU_D3DVsInstruction@@PBD@Z 0058e0fc f   xgraphics:api.obj
 0004:00002830       ?MergeSwizzles@XGRAPHICS@@YG_NPAU_D3DVsInstruction@@PBU2@1@Z 0058e2b0 f   xgraphics:api.obj
 0004:00002888       ?MacUsesMX@XGRAPHICS@@YG_NPBU_D3DVsInstruction@@K@Z 0058e308 f   xgraphics:api.obj
 0004:000028e7       ?IluUsesMX@XGRAPHICS@@YG_NPBU_D3DVsInstruction@@K@Z 0058e367 f   xgraphics:api.obj
 0004:00002909       ?UsesMX@XGRAPHICS@@YG_NPBU_D3DVsInstruction@@K@Z 0058e389 f   xgraphics:api.obj
 0004:00002935       ?UsesCA@XGRAPHICS@@YG_NPBU_D3DVsInstruction@@@Z 0058e3b5 f   xgraphics:api.obj
 0004:00002943       ?UsesVA@XGRAPHICS@@YG_NPBU_D3DVsInstruction@@@Z 0058e3c3 f   xgraphics:api.obj
 0004:00002951       ?PairableMulAdd@XGRAPHICS@@YG_NPAU_D3DVsInstruction@@PBU2@1@Z 0058e3d1 f   xgraphics:api.obj
 0004:00002c77       ?UsesA@XGRAPHICS@@YG_NPBU_D3DVsInstruction@@@Z 0058e6f7 f   xgraphics:api.obj
 0004:00002c8d       ?UsesB@XGRAPHICS@@YG_NPBU_D3DVsInstruction@@@Z 0058e70d f   xgraphics:api.obj
 0004:00002ca3       ?UsesC@XGRAPHICS@@YG_NPBU_D3DVsInstruction@@@Z 0058e723 f   xgraphics:api.obj
 0004:00002ccc       ?ExpandRegisterOutputMasks@XGRAPHICS@@YGXPAUOutPair@1@PBU_D3DVsInstruction@@@Z 0058e74c f   xgraphics:api.obj
 0004:00002d4a       ?SetRegisterOutputMasks@XGRAPHICS@@YG_NPAU_D3DVsInstruction@@PBUOutPair@1@@Z 0058e7ca f   xgraphics:api.obj
 0004:00002db9       ?MergeRegisterOutputMasks@XGRAPHICS@@YG_NPAU_D3DVsInstruction@@PBU2@1@Z 0058e839 f   xgraphics:api.obj
 0004:00002e63       ?ForcedPair2@XGRAPHICS@@YG_NPAU_D3DVsInstruction@@PBU2@1PAK@Z 0058e8e3 f   xgraphics:api.obj
 0004:00003179       ?ForcedPair@XGRAPHICS@@YG_NPAU_D3DVsInstruction@@PBU2@1PAK@Z 0058ebf9 f   xgraphics:api.obj
 0004:000031ec       ?ListD3DTokens@XGRAPHICS@@YGJPAVBuffer@1@PBKK@Z 0058ec6c f   xgraphics:api.obj
 0004:0000321f       ?Log@MyErrorLog@XGRAPHICS@@UAEJ_NKPBDK1@Z 0058ec9f f i xgraphics:api.obj
 0004:00003268       ??_GBuffer@XGRAPHICS@@QAEPAXI@Z 0058ece8 f i xgraphics:api.obj
 0004:00003288       ?ConvertMicrocodeToVsInstructions@Assembler@XGRAPHICS@@SGJ_NKPBXPAU_D3DVertexShaderProgram@@PAKPAUXD3DXErrorLog@2@@Z 0058ed08 f i xgraphics:api.obj
 0004:000033b9       ?ConvertMicrocodeToVsInstructions@Assembler@XGRAPHICS@@AAEJPAU_D3DVertexShaderProgram@@PAKPAUXD3DXErrorLog@2@@Z 0058ee39 f i xgraphics:api.obj
 0004:000033d9       _XGSUCode_GetVertexShaderType@4 0058ee59 f   xgraphics:api.obj
 0004:00003410       ?BASE_REG@XGRAPHICS@@YGKK@Z 0058ee90 f   xgraphics:api.obj
 0004:00003494       ?MapDX8ToUcode@XGRAPHICS@@YGHK@Z 0058ef14 f   xgraphics:api.obj
 0004:000034b4       ?GetEnumeratedReg@XGRAPHICS@@YG?AW4Register_Enum@@K@Z 0058ef34 f   xgraphics:api.obj
 0004:00003510       ?IsTempReg@XGRAPHICS@@YG_NW4Register_Enum@@@Z 0058ef90 f   xgraphics:api.obj
 0004:0000352e       ?IsConstantReg@XGRAPHICS@@YG_NW4Register_Enum@@@Z 0058efae f   xgraphics:api.obj
 0004:00003549       ?MarkAsUsed@XGRAPHICS@@YGXKPAD@Z 0058efc9 f   xgraphics:api.obj
 0004:0000357a       ?IsScalarIluInstruction@XGRAPHICS@@YG_NH@Z 0058effa f   xgraphics:api.obj
 0004:00003591       ?D3DTokensToUCode@XGRAPHICS@@YGJPBKPAU_D3DVertexShaderProgram@@PAUXD3DXErrorLog@1@@Z 0058f011 f   xgraphics:api.obj
 0004:0000412f       ?Initialize@Buffer@XGRAPHICS@@QAEJK@Z 0058fbaf f   xgraphics:api.obj
 0004:00004138       ?Append@Buffer@XGRAPHICS@@QAEJAAV12@@Z 0058fbb8 f   xgraphics:api.obj
 0004:0000414c       ?Clear@TLEngineSim@XGRAPHICS@@QAEJH@Z 0058fbcc f i xgraphics:api.obj
 0004:00004183       ?STDoOut@TLEngineSim@XGRAPHICS@@AAEJPBU_D3DVsInstruction@@@Z 0058fc03 f i xgraphics:api.obj
 0004:000042cb       ?DoOut@TLEngineSim@XGRAPHICS@@AAEJPBU_D3DVsInstruction@@W4StallType@2@@Z 0058fd4b f i xgraphics:api.obj
 0004:0000440d       ?RegReady@TLEngineSim@XGRAPHICS@@AAEMPBU_D3DVsInstruction@@EEEMAAW4StallType@2@@Z 0058fe8d f i xgraphics:api.obj
 0004:0000448f       ?TakeBypass@STRegScoreboard@TLEngineSim@XGRAPHICS@@QAE_NPBU_D3DVsInstruction@@KEEH@Z 0058ff0f f i xgraphics:api.obj
 0004:00004544       ?CalcInputMasks@DeadCodeStripper@XGRAPHICS@@SGJABU_D3DVsInstruction@@ABUOutRegMaskSet@12@AAUInRegMaskSet@12@@Z 0058ffc4 f i xgraphics:api.obj
 0004:000047c7       ?NarrowOutputMasks@DeadCodeStripper@XGRAPHICS@@QAEJABU_D3DVsInstruction@@AAUOutRegMaskSet@12@@Z 00590247 f i xgraphics:api.obj
 0004:0000482a       ?RecordOutputMasks@DeadCodeStripper@XGRAPHICS@@QAEJABU_D3DVsInstruction@@ABUOutRegMaskSet@12@@Z 005902aa f i xgraphics:api.obj
 0004:0000488d       ?RecordInputMasks@DeadCodeStripper@XGRAPHICS@@QAEJABU_D3DVsInstruction@@ABUInRegMaskSet@12@@Z 0059030d f i xgraphics:api.obj
 0004:000048eb       ?DirtyConflict@RegSet@Reorderer@XGRAPHICS@@QBE_NPBV123@@Z 0059036b f i xgraphics:api.obj
 0004:0000494d       ?ADirty@RegSet@Reorderer@XGRAPHICS@@AAE_NPBU_D3DVsInstruction@@E@Z 005903cd f i xgraphics:api.obj
 0004:0000499e       ?BDirty@RegSet@Reorderer@XGRAPHICS@@AAE_NPBU_D3DVsInstruction@@E@Z 0059041e f i xgraphics:api.obj
 0004:000049f1       ?CDirty@RegSet@Reorderer@XGRAPHICS@@AAE_NPBU_D3DVsInstruction@@E@Z 00590471 f i xgraphics:api.obj
 0004:00004a41       ?DoMac@RegSet@Reorderer@XGRAPHICS@@AAEJPBU_D3DVsInstruction@@AA_N@Z 005904c1 f i xgraphics:api.obj
 0004:00004b98       ?DoILU@RegSet@Reorderer@XGRAPHICS@@AAEJPBU_D3DVsInstruction@@AA_N@Z 00590618 f i xgraphics:api.obj
 0004:00004bf9       ?Disassemble@InstructionDisassembler@XGRAPHICS@@AAEJPBU_D3DVsInstruction@@_N1@Z 00590679 f i xgraphics:api.obj
 0004:00004d8e       ?UpdateOutput@Renamer@XGRAPHICS@@AAEXEEPAG0G_N@Z 0059080e f i xgraphics:api.obj
 0004:00004e42       ?RemapVRegs2Start@Renamer@XGRAPHICS@@AAEJGPAGG@Z 005908c2 f i xgraphics:api.obj
 0004:00004ece       ?RemapCode@Renamer@XGRAPHICS@@AAEJXZ 0059094e f i xgraphics:api.obj
 0004:00005046       ?InputOutputDependency@XGRAPHICS@@YG_NPBU_D3DVsInstruction@@0@Z 00590ac6 f   xgraphics:api.obj
 0004:000053c5       ?Pairable@XGRAPHICS@@YG_NPAU_D3DVsInstruction@@PBU2@1@Z 00590e45 f   xgraphics:api.obj
 0004:00005438       ?PairableMasks1@XGRAPHICS@@YG_NPAU_D3DVsInstruction@@PBU2@1@Z 00590eb8 f   xgraphics:api.obj
 0004:00005677       ?PairableMasks3@XGRAPHICS@@YG_NPAU_D3DVsInstruction@@PBU2@1@Z 005910f7 f   xgraphics:api.obj
 0004:0000586c       ?PairableMasks@XGRAPHICS@@YG_NPAU_D3DVsInstruction@@PBU2@1@Z 005912ec f   xgraphics:api.obj
 0004:0000589e       ?PeepholePairOutputMasks@XGRAPHICS@@YGJPAU_D3DVertexShaderProgram@@@Z 0059131e f   xgraphics:api.obj
 0004:00005920       ?SequentialPairable@XGRAPHICS@@YG_NPAU_D3DVsInstruction@@PBU2@1@Z 005913a0 f   xgraphics:api.obj
 0004:0000596c       ?PeepholePair1@XGRAPHICS@@YGJPAU_D3DVertexShaderProgram@@@Z 005913ec f   xgraphics:api.obj
 0004:000059fb       ?PeepholePair2@XGRAPHICS@@YGJPAU_D3DVertexShaderProgram@@@Z 0059147b f   xgraphics:api.obj
 0004:00005a8a       ?Initialize@MyErrorLog@XGRAPHICS@@QAEJPBD@Z 0059150a f i xgraphics:api.obj
 0004:00005acf       ?XGBufferCreateFromBuffer@XGRAPHICS@@YGJPAVBuffer@1@PAPAUXGBuffer@@@Z 0059154f f   xgraphics:api.obj
 0004:00005b1f       ?StripDebugInfo@Assembler@XGRAPHICS@@AAEJPAUXGBuffer@@@Z 0059159f f i xgraphics:api.obj
 0004:00005ce0       ?Initialize@TLEngineSim@XGRAPHICS@@QAEJKH@Z 00591760 f i xgraphics:api.obj
 0004:00005cfb       ?MuxReady@TLEngineSim@XGRAPHICS@@AAEMPBU_D3DVsInstruction@@KEKKKKKEEMAAW4StallType@2@@Z 0059177b f i xgraphics:api.obj
 0004:00005d50       ?STRegReady@TLEngineSim@XGRAPHICS@@AAE_NPBU_D3DVsInstruction@@EEEH@Z 005917d0 f i xgraphics:api.obj
 0004:00005da6       ?ProcessInstruction@DeadCodeStripper@XGRAPHICS@@QAEJPBU_D3DVsInstruction@@AAPAU3@@Z 00591826 f i xgraphics:api.obj
 0004:00005e91       ?IsReadDirty@RegSet@Reorderer@XGRAPHICS@@QAE_NPAU_D3DVsInstruction@@@Z 00591911 f i xgraphics:api.obj
 0004:00005f11       ?OKToMoveConditionC@Reorderer@XGRAPHICS@@ABE_NPBVRegSet@12@HH@Z 00591991 f i xgraphics:api.obj
 0004:00005f89       ?FindPairableInstruction@Reorderer@XGRAPHICS@@AAE_NHPAHPAU_D3DVsInstruction@@@Z 00591a09 f i xgraphics:api.obj
 0004:00006054       ?Disassemble@InstructionDisassembler@XGRAPHICS@@QAEJPBU_D3DVsInstruction@@AAVBuffer@2@@Z 00591ad4 f i xgraphics:api.obj
 0004:0000616d       ?MapRegisterUse@Renamer@XGRAPHICS@@AAEJXZ 00591bed f i xgraphics:api.obj
 0004:00006371       ?RemapVRegs@Renamer@XGRAPHICS@@AAEJXZ 00591df1 f i xgraphics:api.obj
 0004:0000640c       ?AReady@TLEngineSim@XGRAPHICS@@AAEMPBU_D3DVsInstruction@@EMAAW4StallType@2@@Z 00591e8c f i xgraphics:api.obj
 0004:00006470       ?BReady@TLEngineSim@XGRAPHICS@@AAEMPBU_D3DVsInstruction@@EMAAW4StallType@2@@Z 00591ef0 f i xgraphics:api.obj
 0004:000064d8       ?CReady@TLEngineSim@XGRAPHICS@@AAEMPBU_D3DVsInstruction@@EMAAW4StallType@2@@Z 00591f58 f i xgraphics:api.obj
 0004:0000653b       ?STMuxReady@TLEngineSim@XGRAPHICS@@AAE_NPBU_D3DVsInstruction@@KEKKKKKEEH@Z 00591fbb f i xgraphics:api.obj
 0004:00006583       ?Run@DeadCodeStripper@XGRAPHICS@@QAEJKPAU_D3DVertexShaderProgram@@@Z 00592003 f i xgraphics:api.obj
 0004:00006631       ?Rename@Renamer@XGRAPHICS@@AAEJPAU_D3DVertexShaderProgram@@@Z 005920b1 f i xgraphics:api.obj
 0004:00006741       ?STAReady@TLEngineSim@XGRAPHICS@@AAEKPBU_D3DVsInstruction@@EH@Z 005921c1 f i xgraphics:api.obj
 0004:000067a0       ?STBReady@TLEngineSim@XGRAPHICS@@AAEKPBU_D3DVsInstruction@@EH@Z 00592220 f i xgraphics:api.obj
 0004:00006803       ?STCReady@TLEngineSim@XGRAPHICS@@AAEKPBU_D3DVsInstruction@@EH@Z 00592283 f i xgraphics:api.obj
 0004:00006861       ?Run@Renamer@XGRAPHICS@@QAEJKPAU_D3DVertexShaderProgram@@@Z 005922e1 f i xgraphics:api.obj
 0004:0000688d       ?CalculateRealStall@TLEngineSim@XGRAPHICS@@AAEMPBU_D3DVsInstruction@@AAW4StallType@2@@Z 0059230d f i xgraphics:api.obj
 0004:000069d3       ?Do@TLEngineSim@XGRAPHICS@@QAEJPBU_D3DVsInstruction@@AAMAAW4StallType@2@@Z 00592453 f i xgraphics:api.obj
 0004:00006ab1       ?PeepholeOptimize@XGRAPHICS@@YGJKPAU_D3DVertexShaderProgram@@@Z 00592531 f   xgraphics:api.obj
 0004:00006b6f       ?EstimateCycles@XGRAPHICS@@YGJKPAU_D3DVertexShaderProgram@@PAM@Z 005925ef f   xgraphics:api.obj
 0004:00006c21       ?IsStall@TLEngineSim@XGRAPHICS@@QAE_NPBU_D3DVsInstruction@@@Z 005926a1 f i xgraphics:api.obj
 0004:00006c50       ?FindInstruction@Reorderer@XGRAPHICS@@AAE_NHPAH@Z 005926d0 f i xgraphics:api.obj
 0004:00006cee       ?Run@Reorderer@XGRAPHICS@@QAEJKPAU_D3DVertexShaderProgram@@@Z 0059276e f i xgraphics:api.obj
 0004:00006e5b       _XGOptimizeVertexShader@20 005928db f   xgraphics:api.obj
 0004:00006f27       ?InstructionsToMicrocode@Assembler@XGRAPHICS@@AAEJ_N00KPAU_D3DVertexShaderProgram@@PAVBuffer@2@PAUXD3DXErrorLog@2@@Z 005929a7 f i xgraphics:api.obj
 0004:0000736a       ?CompileVertexShaderToUCode@Assembler@XGRAPHICS@@AAEJ_N00KPAUXGBuffer@@PAPAU3@PAVBuffer@2@PAUXD3DXErrorLog@2@@Z 00592dea f i xgraphics:api.obj
 0004:0000749f       ?CompileShaderToUCode@Assembler@XGRAPHICS@@AAEJ_N00KPAUXGBuffer@@PAPAU3@PAVBuffer@2@PAUXD3DXErrorLog@2@@Z 00592f1f f i xgraphics:api.obj
 0004:000074c9       ?XGAssembleShader@Assembler@XGRAPHICS@@QAGJPBDPBXIKPAPAUXGBuffer@@222P6GJPAXH00PADK2@Z3PAK@Z 00592f49 f i xgraphics:api.obj
 0004:000078eb       _XGAssembleShader@44       0059336b f   xgraphics:api.obj
 0004:0000791f       ?IsCompressedD3DFORMAT@XGRAPHICS@@YG_NK@Z 0059339f f i xgraphics:header.obj
 0004:0000793b       ?Log2@XGRAPHICS@@YIKK@Z    005933bb f i xgraphics:header.obj
 0004:00007947       ?MinimumTextureSizeOfD3DFORMAT@XGRAPHICS@@YGKK@Z 005933c7 f i xgraphics:header.obj
 0004:0000795a       ?EncodeFormat@XGRAPHICS@@YGKKKKKW4_D3DFORMAT@@K_N1PAK2@Z 005933da f   xgraphics:header.obj
 0004:00007af9       ?EncodeTexture@XGRAPHICS@@YGXKKKKKW4_D3DFORMAT@@K_N1KPAUD3DBaseTexture@@@Z 00593579 f   xgraphics:header.obj
 0004:00007b45       _XGSetTextureHeader@36     005935c5 f   xgraphics:header.obj
 0004:00007b6f       ??0Swizzler@@QAE@XZ        005935ef f i xgraphics:swizzler.obj
 0004:00007b8e       ?Init@Swizzler@@QAEXKKK@Z  0059360e f i xgraphics:swizzler.obj
 0004:00007bef       ?SwizzleU@Swizzler@@QAEKK@Z 0059366f f i xgraphics:swizzler.obj
 0004:00007c18       ?SwizzleV@Swizzler@@QAEKK@Z 00593698 f i xgraphics:swizzler.obj
 0004:00007c41       ?GetMasks2@XGRAPHICS@@YGXHHPAK0@Z 005936c1 f i xgraphics:swizzler.obj
 0004:00007cb5       ?swiz2d_8bit@XGRAPHICS@@YGXPBXPAXHH@Z 00593735 f   xgraphics:swizzler.obj
 0004:00007db5       ?swiz2d_16bit@XGRAPHICS@@YGXPBXPAXHH@Z 00593835 f   xgraphics:swizzler.obj
 0004:00007eb3       ?swiz2d_32bit@XGRAPHICS@@YGXPBXPAXHH@Z 00593933 f   xgraphics:swizzler.obj
 0004:00007fac       ?unswiz2d_8bit@XGRAPHICS@@YGXPBXPAXHH@Z 00593a2c f   xgraphics:swizzler.obj
 0004:0000808f       ?unswiz2d_16bit@XGRAPHICS@@YGXPBXPAXHH@Z 00593b0f f   xgraphics:swizzler.obj
 0004:000081a1       ?unswiz2d_32bit@XGRAPHICS@@YGXPBXPAXHH@Z 00593c21 f   xgraphics:swizzler.obj
 0004:00008297       ?Swizzle1x1Column@?$XGInternalSwizzler@K@XGRAPHICS@@SGXPAUXGINTERNALSWIZZLE@2@@Z 00593d17 f i xgraphics:swizzler.obj
 0004:00008318       ?Unswizzle1x1Column@?$XGInternalSwizzler@K@XGRAPHICS@@SGXPAUXGINTERNALSWIZZLE@2@@Z 00593d98 f i xgraphics:swizzler.obj
 0004:00008399       ?Swizzle2x1@?$XGInternalSwizzler@K@XGRAPHICS@@SGXPAUXGINTERNALSWIZZLE@2@@Z 00593e19 f i xgraphics:swizzler.obj
 0004:0000846d       ?Unswizzle2x1@?$XGInternalSwizzler@K@XGRAPHICS@@SGXPAUXGINTERNALSWIZZLE@2@@Z 00593eed f i xgraphics:swizzler.obj
 0004:00008541       ?Swizzle1x1Column@?$XGInternalSwizzler@G@XGRAPHICS@@SGXPAUXGINTERNALSWIZZLE@2@@Z 00593fc1 f i xgraphics:swizzler.obj
 0004:000085c4       ?Unswizzle1x1Column@?$XGInternalSwizzler@G@XGRAPHICS@@SGXPAUXGINTERNALSWIZZLE@2@@Z 00594044 f i xgraphics:swizzler.obj
 0004:00008647       ?Swizzle2x1@?$XGInternalSwizzler@G@XGRAPHICS@@SGXPAUXGINTERNALSWIZZLE@2@@Z 005940c7 f i xgraphics:swizzler.obj
 0004:00008713       ?Unswizzle2x1@?$XGInternalSwizzler@G@XGRAPHICS@@SGXPAUXGINTERNALSWIZZLE@2@@Z 00594193 f i xgraphics:swizzler.obj
 0004:000087df       ?Swizzle1x1Column@?$XGInternalSwizzler@E@XGRAPHICS@@SGXPAUXGINTERNALSWIZZLE@2@@Z 0059425f f i xgraphics:swizzler.obj
 0004:0000885a       ?Unswizzle1x1Column@?$XGInternalSwizzler@E@XGRAPHICS@@SGXPAUXGINTERNALSWIZZLE@2@@Z 005942da f i xgraphics:swizzler.obj
 0004:000088d5       ?Swizzle2x1@?$XGInternalSwizzler@_J@XGRAPHICS@@SGXPAUXGINTERNALSWIZZLE@2@@Z 00594355 f i xgraphics:swizzler.obj
 0004:000089b1       ?Unswizzle2x1@?$XGInternalSwizzler@_J@XGRAPHICS@@SGXPAUXGINTERNALSWIZZLE@2@@Z 00594431 f i xgraphics:swizzler.obj
 0004:00008a8d       _XGSwizzleRect@32          0059450d f   xgraphics:swizzler.obj
 0004:000091de       _XGUnswizzleRect@32        00594c5e f   xgraphics:swizzler.obj
 0004:000098f5       ?GetFormatInfo@@YGJW4_D3DFORMAT@@PAUFORMAT_INFO@@@Z 00595375 f   xgraphics:s3_intrf.obj
 0004:00009a59       _XGCompressRect@40         005954d9 f   xgraphics:s3_intrf.obj
 0004:0000a352       ?RGBSwizzleToChannel@XGRAPHICS@@YGKK@Z 00595dd2 f   xgraphics:pixelshader.obj
 0004:0000a366       ?AlphaSwizzleToChannel@XGRAPHICS@@YGKK@Z 00595de6 f   xgraphics:pixelshader.obj
 0004:0000a37e       ?InstructionMOV@XGRAPHICS@@YGXKKPAK00000@Z 00595dfe f   xgraphics:pixelshader.obj
 0004:0000a419       ?InstructionMUL@XGRAPHICS@@YGXKKPAK00000@Z 00595e99 f   xgraphics:pixelshader.obj
 0004:0000a4d9       ?InstructionDP3@XGRAPHICS@@YGXKKPAK00000@Z 00595f59 f   xgraphics:pixelshader.obj
 0004:0000a55c       ?InstructionADD@XGRAPHICS@@YGXKKPAK00000@Z 00595fdc f   xgraphics:pixelshader.obj
 0004:0000a622       ?InstructionSUB@XGRAPHICS@@YGXKKPAK00000@Z 005960a2 f   xgraphics:pixelshader.obj
 0004:0000a6e8       ?InstructionMAD@XGRAPHICS@@YGXKKPAK00000@Z 00596168 f   xgraphics:pixelshader.obj
 0004:0000a7cc       ?InstructionLRP@XGRAPHICS@@YGXKKPAK00000@Z 0059624c f   xgraphics:pixelshader.obj
 0004:0000a8f3       ?InstructionCND@XGRAPHICS@@YGXKKPAK00000@Z 00596373 f   xgraphics:pixelshader.obj
 0004:0000a9c3       ?InstructionXMMA@XGRAPHICS@@YGXKKPAK00000@Z 00596443 f   xgraphics:pixelshader.obj
 0004:0000aacf       ?InstructionXMMC@XGRAPHICS@@YGXKKPAK00000@Z 0059654f f   xgraphics:pixelshader.obj
 0004:0000abe5       ?InstructionXDM@XGRAPHICS@@YGXKKPAK00000@Z 00596665 f   xgraphics:pixelshader.obj
 0004:0000acf8       ?InstructionXDD@XGRAPHICS@@YGXKKPAK00000@Z 00596778 f   xgraphics:pixelshader.obj
 0004:0000ae1a       ?InstructionXFC@XGRAPHICS@@YGXKKPAK00000@Z 0059689a f   xgraphics:pixelshader.obj
 0004:0000aec2       ?ShiftAndBiasToMap@XGRAPHICS@@YGKKK@Z 00596942 f   xgraphics:pixelshader.obj
 0004:0000aefe       ?DSTdecode@XGRAPHICS@@YGKPAK00K@Z 0059697e f   xgraphics:pixelshader.obj
 0004:0000af51       ?SRCdecode@XGRAPHICS@@YGKPAK00KK@Z 005969d1 f   xgraphics:pixelshader.obj
 0004:0000b0e8       ?PrintPixelShaderDef@XGRAPHICS@@YGXPAU_D3DPixelShaderDef@@PAVBuffer@1@@Z 00596b68 f   xgraphics:pixelshader.obj
 0004:0000b9ab       ?CompilePixelShaderToUCode@XGRAPHICS@@YGJ_NKPAUXGBuffer@@PAPAU2@PAVBuffer@1@PAUXD3DXErrorLog@1@@Z 0059742b f   xgraphics:pixelshader.obj
 0004:0000bff1       ?Isspace@XGRAPHICS@@YGHH@Z 00597a71 f i xgraphics:cd3dxassembler.obj
 0004:0000c00c       ??0CD3DXAssembler@XGRAPHICS@@QAE@XZ 00597a8c f   xgraphics:cd3dxassembler.obj
 0004:0000c05c       ??1CD3DXAssembler@XGRAPHICS@@QAE@XZ 00597adc f   xgraphics:cd3dxassembler.obj
 0004:0000c097       ?Error2@CD3DXAssembler@XGRAPHICS@@QAEX_NKPBDPAD@Z 00597b17 f   xgraphics:cd3dxassembler.obj
 0004:0000c0f4       ?DecodeOpcode@CD3DXAssembler@XGRAPHICS@@QAEHXZ 00597b74 f   xgraphics:cd3dxassembler.obj
 0004:0000c7ac       ?UpdateDebugText@CD3DXAssembler@XGRAPHICS@@QAEXXZ 0059822c f   xgraphics:cd3dxassembler.obj
 0004:0000c876       ?UpdateDebugFileLine@CD3DXAssembler@XGRAPHICS@@QAEXXZ 005982f6 f   xgraphics:cd3dxassembler.obj
 0004:0000c9db       ?Error@CD3DXAssembler@XGRAPHICS@@QAAX_NKPBDZZ 0059845b f   xgraphics:cd3dxassembler.obj
