 Taz

 Timestamp is 3b73c890 (Fri Aug 10 12:42:08 2001)

 Preferred load address is 00400000

 Start         Length     Name                   Class
 0001:00000000 00188d5fH .text                   CODE
 0001:00188d60 0000399cH .text$x                 CODE
 0002:00000000 0001a199H .rdata                  DATA
 0002:0001a1a0 00001bb4H .xdata$x                DATA
 0002:0001bd54 00000000H .edata                  DATA
 0003:00000000 00000004H .CRT$XCA                DATA
 0003:00000004 000000b4H .CRT$XCU                DATA
 0003:000000b8 00000004H .CRT$XCZ                DATA
 0003:000000bc 00000004H .CRT$XIA                DATA
 0003:000000c0 0000000cH .CRT$XIC                DATA
 0003:000000cc 00000004H .CRT$XIY                DATA
 0003:000000d0 00000004H .CRT$XIZ                DATA
 0003:000000d4 00000004H .CRT$XPA                DATA
 0003:000000d8 00000004H .CRT$XPX                DATA
 0003:000000dc 00000004H .CRT$XPZ                DATA
 0003:000000e0 00000004H .CRT$XTA                DATA
 0003:000000e4 00000004H .CRT$XTB                DATA
 0003:000000e8 00000004H .CRT$XTZ                DATA
 0003:000000f0 0001468bH .data                   DATA
 0003:00014780 00114544H .bss                    DATA
 0004:00000000 0000008cH .idata$2                DATA
 0004:0000008c 00000014H .idata$3                DATA
 0004:000000a0 00000294H .idata$4                DATA
 0004:00000334 00000294H .idata$5                DATA
 0004:000005c8 00000b42H .idata$6                DATA

  Address         Publics by Value              Rva+Base     Lib:Object

 0001:00000000       ?AlligatorIdleSeq@@YAHPAUTAG_ACTORINSTANCE@@@Z 00401000 f   alligator.obj
 0001:00000060       ?AlligatorAwareSeq@@YAHPAUTAG_ACTORINSTANCE@@@Z 00401060 f   alligator.obj
 0001:000000c0       ??2@YAPAXI@Z               004010c0 f i alligator.obj
 0001:00000110       ?AlligatorAttackSeq@@YAHPAUTAG_ACTORINSTANCE@@@Z 00401110 f   alligator.obj
 0001:00000260       ??3@YAXPAX@Z               00401260 f i alligator.obj
 0001:000002a0       ?AlligatorDefendSeq@@YAHPAUTAG_ACTORINSTANCE@@@Z 004012a0 f   alligator.obj
 0001:00000300       ?AlligatorAttackedSeq@@YAHPAUTAG_ACTORINSTANCE@@@Z 00401300 f   alligator.obj
 0001:000003c0       ?AlligatorOutOfRangeSeq@@YAHPAUTAG_ACTORINSTANCE@@@Z 004013c0 f   alligator.obj
 0001:00000420       ?AlligatorMessageHandler@@YAHPAUTAG_ACTORINSTANCE@@PAD@Z 00401420 f   alligator.obj
 0001:00000890       ?CheckIfPlayingAnimation@@YAHPAUTAG_ACTORINSTANCE@@PAD@Z 00401890 f i alligator.obj
 0001:000008d0       ?CheckIfPlayingAnimation@@YAHPAU_TBActorInstance@@PAD@Z 004018d0 f i alligator.obj
 0001:00000940       ?AlligatorAttackCallback@@YAHPAUTAG_ACTORINSTANCE@@@Z 00401940 f   alligator.obj
 0001:00000c90       ?bmVectorAdd@@YAXQAMQBM1@Z 00401c90 f i alligator.obj
 0001:00000cf0       ?bmVectorSub@@YAXQAMQBM1@Z 00401cf0 f i alligator.obj
 0001:00000d50       ?CreateActorInstanceAlligator@@YAHPAUTAG_ACTORINSTANCE@@PAUTAG_ACTORINSTANCELIST@@1I@Z 00401d50 f   alligator.obj
 0001:00001010       ?bmVectorLen@@YAMQBM@Z     00402010 f i alligator.obj
 0001:00001070       ?bmSqrt@@YAMM@Z            00402070 f i alligator.obj
 0001:000010b0       ?bmVectorCopy@@YAXQAMQBM@Z 004020b0 f i alligator.obj
 0001:00001100       ?ApeIdleSeq@@YAHPAUTAG_ACTORINSTANCE@@@Z 00402100 f   apes.obj
 0001:00001160       ?ApeAwareSeq@@YAHPAUTAG_ACTORINSTANCE@@@Z 00402160 f   apes.obj
 0001:000011c0       ?ApeAttackSeq@@YAHPAUTAG_ACTORINSTANCE@@@Z 004021c0 f   apes.obj
 0001:00001270       ?ApeTooCloseSeq@@YAHPAUTAG_ACTORINSTANCE@@@Z 00402270 f   apes.obj
 0001:00001310       ?ApeAttackedSeq@@YAHPAUTAG_ACTORINSTANCE@@@Z 00402310 f   apes.obj
 0001:00001500       ?bmRand@@YAHXZ             00402500 f i apes.obj
 0001:00001550       ?ApeOutOfRangeSeq@@YAHPAUTAG_ACTORINSTANCE@@@Z 00402550 f   apes.obj
 0001:000015b0       ?ApeAttackCallback@@YAHPAUTAG_ACTORINSTANCE@@@Z 004025b0 f   apes.obj
 0001:00001dc0       ?ApeStateChangeCallback@@YAXPAUTAG_ACTORINSTANCE@@HH@Z 00402dc0 f   apes.obj
 0001:00001e00       ?ApeTazHitCallback@@YAHPAUTAG_ACTORINSTANCE@@@Z 00402e00 f   apes.obj
 0001:00001ec0       ?ApeMessageHandler@@YAHPAUTAG_ACTORINSTANCE@@PAD@Z 00402ec0 f   apes.obj
 0001:00001fd0       ?CreateActorInstanceApe@@YAHPAUTAG_ACTORINSTANCE@@PAUTAG_ACTORINSTANCELIST@@1@Z 00402fd0 f   apes.obj
 0001:00002290       ?bmQuatCopy@@YAXQAMQBM@Z   00403290 f i apes.obj
 0001:000022e0       ?BearIdleSeq@@YAHPAUTAG_ACTORINSTANCE@@@Z 004032e0 f   bears.obj
 0001:00002370       ?BearAwareSeq@@YAHPAUTAG_ACTORINSTANCE@@@Z 00403370 f   bears.obj
 0001:00002400       ?BearAttackSeq@@YAHPAUTAG_ACTORINSTANCE@@@Z 00403400 f   bears.obj
 0001:000024d0       ?BearDefendSeq@@YAHPAUTAG_ACTORINSTANCE@@@Z 004034d0 f   bears.obj
 0001:00002560       ?BearAttackedSeq@@YAHPAUTAG_ACTORINSTANCE@@@Z 00403560 f   bears.obj
 0001:00002770       ?BearOutOfRangeSeq@@YAHPAUTAG_ACTORINSTANCE@@@Z 00403770 f   bears.obj
 0001:00002800       ?BearAttackCallback@@YAHPAUTAG_ACTORINSTANCE@@@Z 00403800 f   bears.obj
 0001:00002a40       ?SnowballCollision@@YAHPAUTAG_ACTORINSTANCE@@0@Z 00403a40 f   bears.obj
 0001:00002b10       ?BearMessageHandler@@YAHPAUTAG_ACTORINSTANCE@@PAD@Z 00403b10 f   bears.obj
 0001:00002c70       ?CreateActorInstanceBear@@YAHPAUTAG_ACTORINSTANCE@@PAUTAG_ACTORINSTANCELIST@@1@Z 00403c70 f   bears.obj
 0001:00002ec0       ?CreateActorInstanceBuzzard@@YAHPAUTAG_ACTORINSTANCE@@@Z 00403ec0 f   buzzard.obj
 0001:00003210       ?BuzzardAttackCallback@@YAHPAUTAG_BUZZARDINFO@@@Z 00404210 f   buzzard.obj
 0001:00003240       ?BuzzardStateChangeCallback@@YAHPAUTAG_BUZZARDINFO@@II@Z 00404240 f   buzzard.obj
 0001:00003270       ?BuzzardFlyCallback@@YAHPAUTAG_BUZZARDINFO@@@Z 00404270 f   buzzard.obj
 0001:000032a0       ?BuzzardLandCallback@@YAHPAUTAG_BUZZARDINFO@@@Z 004042a0 f   buzzard.obj
 0001:000032d0       ?BuzzardTakeOffCallback@@YAHPAUTAG_BUZZARDINFO@@@Z 004042d0 f   buzzard.obj
 0001:00003300       ?BuzzardPerchIdleCallback@@YAHPAUTAG_BUZZARDINFO@@@Z 00404300 f   buzzard.obj
 0001:00003330       ?UpdateBuzzard@@YAXPAUTAG_ACTORINSTANCE@@@Z 00404330 f   buzzard.obj
 0001:000033a0       ?PrepBuzzards@@YAXPAUTAG_ACTORINSTANCELIST@@@Z 004043a0 f   buzzard.obj
 0001:00003460       ?DrawBuzzards@@YAXPAUTAG_ACTORINSTANCELIST@@@Z 00404460 f   buzzard.obj
 0001:000035a0       ?ConstructionBotIdleSeq@@YAHPAUTAG_ACTORINSTANCE@@@Z 004045a0 f   constructionbot.obj
 0001:00003680       ?ConstructionBotAwareSeq@@YAHPAUTAG_ACTORINSTANCE@@@Z 00404680 f   constructionbot.obj
 0001:000037c0       ?ConstructionBotAttackSeq@@YAHPAUTAG_ACTORINSTANCE@@@Z 004047c0 f   constructionbot.obj
 0001:00003940       ?ConstructionBotTooCloseSeq@@YAHPAUTAG_ACTORINSTANCE@@@Z 00404940 f   constructionbot.obj
 0001:000039a0       ?ConstructionBotAttackedSeq@@YAHPAUTAG_ACTORINSTANCE@@@Z 004049a0 f   constructionbot.obj
 0001:00003b90       ?ConstructionBotOutOfRangeSeq@@YAHPAUTAG_ACTORINSTANCE@@@Z 00404b90 f   constructionbot.obj
 0001:00003bf0       ?ConstructionBotAttackCallback@@YAHPAUTAG_ACTORINSTANCE@@@Z 00404bf0 f   constructionbot.obj
 0001:00003e20       ?ConstructionBotStateChangeCallback@@YAXPAUTAG_ACTORINSTANCE@@HH@Z 00404e20 f   constructionbot.obj
 0001:00003e60       ?ConstructionBotTazSquashedCallback@@YAHPAUTAG_ACTORINSTANCE@@@Z 00404e60 f   constructionbot.obj
 0001:00003f20       ?ConstructionBotMessageHandler@@YAHPAUTAG_ACTORINSTANCE@@PAD@Z 00404f20 f   constructionbot.obj
 0001:00004000       ?CreateActorInstanceConstructionBot@@YAHPAUTAG_ACTORINSTANCE@@PAUTAG_ACTORINSTANCELIST@@1@Z 00405000 f   constructionbot.obj
 0001:000042c0       ?ConstructionWorkerIdleSeq@@YAHPAUTAG_ACTORINSTANCE@@@Z 004052c0 f   constructionworker.obj
 0001:00004380       ?ConstructionWorkerAwareSeq@@YAHPAUTAG_ACTORINSTANCE@@@Z 00405380 f   constructionworker.obj
 0001:000043e0       ?ConstructionWorkerAttackSeq@@YAHPAUTAG_ACTORINSTANCE@@@Z 004053e0 f   constructionworker.obj
 0001:00004490       ?ConstructionWorkerTooCloseSeq@@YAHPAUTAG_ACTORINSTANCE@@@Z 00405490 f   constructionworker.obj
 0001:00004530       ?ConstructionWorkerPuzzledSeq@@YAHPAUTAG_ACTORINSTANCE@@@Z 00405530 f   constructionworker.obj
 0001:00004590       ?ConstructionWorkerAttackedSeq@@YAHPAUTAG_ACTORINSTANCE@@@Z 00405590 f   constructionworker.obj
 0001:00004740       ?ConstructionWorkerOutOfRangeSeq@@YAHPAUTAG_ACTORINSTANCE@@@Z 00405740 f   constructionworker.obj
 0001:000047a0       ?ConstructionWorkerAttackCallback@@YAHPAUTAG_ACTORINSTANCE@@@Z 004057a0 f   constructionworker.obj
 0001:00004e10       ?ConstructionWorkerStateChangeCallback@@YAXPAUTAG_ACTORINSTANCE@@HH@Z 00405e10 f   constructionworker.obj
 0001:00004f10       ?ConstructionWorkerTazSquashedCallback@@YAHPAUTAG_ACTORINSTANCE@@@Z 00405f10 f   constructionworker.obj
 0001:00004fd0       ?ConstructionWorkerMessageHandler@@YAHPAUTAG_ACTORINSTANCE@@PAD@Z 00405fd0 f   constructionworker.obj
 0001:000050b0       ?CreateActorInstanceConstructionWorker@@YAHPAUTAG_ACTORINSTANCE@@PAUTAG_ACTORINSTANCELIST@@1@Z 004060b0 f   constructionworker.obj
 0001:00005370       ??_H@YGXPAXIHP6EX0@Z@Z     00406370 f i genericai.obj
 0001:000053d0       ?InitActorGenericAI@@YAXPAUTAG_ACTORINSTANCE@@PAUTAG_ACTORINSTANCELIST@@1@Z 004063d0 f   genericai.obj
 0001:000055f0       ?SetSequenceOverride@@YAXPAUTAG_ACTORINSTANCE@@PAUTAG_SEQ@@H@Z 004065f0 f   genericai.obj
 0001:00005670       ?AICharacterCollision@@YAHPAUTAG_ACTORINSTANCE@@0@Z 00406670 f   genericai.obj
 0001:000056f0       ?AICharacterScared@@YAXPAUTAG_ACTORINSTANCE@@0@Z 004066f0 f   genericai.obj
 0001:00005790       ?bmFAbs@@YAMM@Z            00406790 f i genericai.obj
 0001:000057d0       ?AICharacterBitten@@YAXPAUTAG_ACTORINSTANCE@@0@Z 004067d0 f   genericai.obj
 0001:00005870       ?AICharacterSpun@@YAXPAUTAG_ACTORINSTANCE@@0H@Z 00406870 f   genericai.obj
 0001:000059e0       ?SetAISeqFunctions@@YAXPAUTAG_ACTORINSTANCE@@P6AH0@Z1111111@Z 004069e0 f   genericai.obj
 0001:00005a90       ?SetAIAttackCallback@@YAXPAUTAG_ACTORINSTANCE@@P6AH0@Z@Z 00406a90 f   genericai.obj
 0001:00005ad0       ?SetAIChangeStateCallback@@YAXPAUTAG_ACTORINSTANCE@@P6AX0HH@Z@Z 00406ad0 f   genericai.obj
 0001:00005b10       ?FreeActorGenericAI@@YAXPAUTAG_ACTORINSTANCE@@@Z 00406b10 f   genericai.obj
 0001:00005bb0       ?UpdateCharacterAIStats@@YAXPAUTAG_ACTORINSTANCE@@@Z 00406bb0 f   genericai.obj
 0001:00005da0       ?UpdateCharacterAI@@YAXPAUTAG_ACTORINSTANCE@@@Z 00406da0 f   genericai.obj
 0001:00006b20       ?FacePoint@@YAXPAUTAG_ACTORINSTANCE@@QAMMM@Z 00407b20 f   genericai.obj
 0001:00006bb0       ?ReachedPoint@@YAHPAUTAG_ACTORINSTANCE@@QAMM@Z 00407bb0 f   genericai.obj
 0001:00006c20       ?SetAISequenceMode@@YAXPAUTAG_ACTORINSTANCE@@D@Z 00407c20 f   genericai.obj
 0001:00006c60       ?SetAIMessageHandler@@YAXPAUTAG_ACTORINSTANCE@@P6AH0PAD@Z@Z 00407c60 f   genericai.obj
 0001:00006ca0       ?ProcessPattern@@YAHPAUTAG_ACTORINSTANCE@@@Z 00407ca0 f   genericai.obj
 0001:00008150       ?CheckIfPlayingAnimation@@YAHPAUTAG_ACTORINSTANCE@@PADI@Z 00409150 f i genericai.obj
 0001:00008190       ?CheckIfPlayingAnimation@@YAHPAU_TBActorInstance@@PADI@Z 00409190 f i genericai.obj
 0001:00008200       ?UpdateCharacterAIInstances@@YAXPAUTAG_ACTORINSTANCELIST@@@Z 00409200 f   genericai.obj
 0001:00008340       ?MuseumGuardIdleSeq@@YAHPAUTAG_ACTORINSTANCE@@@Z 00409340 f   museumguard.obj
 0001:000083a0       ?MuseumGuardAwareSeq@@YAHPAUTAG_ACTORINSTANCE@@@Z 004093a0 f   museumguard.obj
 0001:00008400       ?MuseumGuardAttackSeq@@YAHPAUTAG_ACTORINSTANCE@@@Z 00409400 f   museumguard.obj
 0001:000084d0       ?MuseumGuardTooCloseSeq@@YAHPAUTAG_ACTORINSTANCE@@@Z 004094d0 f   museumguard.obj
 0001:00008530       ?MuseumGuardPuzzledSeq@@YAHPAUTAG_ACTORINSTANCE@@@Z 00409530 f   museumguard.obj
 0001:00008590       ?MuseumGuardAttackedSeq@@YAHPAUTAG_ACTORINSTANCE@@@Z 00409590 f   museumguard.obj
 0001:00008780       ?MuseumGuardOutOfRangeSeq@@YAHPAUTAG_ACTORINSTANCE@@@Z 00409780 f   museumguard.obj
 0001:000087e0       ?MuseumGuardAttackCallback@@YAHPAUTAG_ACTORINSTANCE@@@Z 004097e0 f   museumguard.obj
 0001:00009110       ?MuseumGuardStateChangeCallback@@YAXPAUTAG_ACTORINSTANCE@@HH@Z 0040a110 f   museumguard.obj
 0001:00009190       ?MuseumGuardTazSquashedCallback@@YAHPAUTAG_ACTORINSTANCE@@@Z 0040a190 f   museumguard.obj
 0001:000092a0       ?MuseumGuardMessageHandler@@YAHPAUTAG_ACTORINSTANCE@@PAD@Z 0040a2a0 f   museumguard.obj
 0001:000093b0       ?CreateActorInstanceMuseumGuard@@YAHPAUTAG_ACTORINSTANCE@@PAUTAG_ACTORINSTANCELIST@@1@Z 0040a3b0 f   museumguard.obj
 0001:00009670       ?SecurityBotIdleSeq@@YAHPAUTAG_ACTORINSTANCE@@@Z 0040a670 f   securitybot.obj
 0001:00009710       ?SecurityBotAwareSeq@@YAHPAUTAG_ACTORINSTANCE@@@Z 0040a710 f   securitybot.obj
 0001:000097b0       ?SecurityBotAttackSeq@@YAHPAUTAG_ACTORINSTANCE@@@Z 0040a7b0 f   securitybot.obj
 0001:000098d0       ?SecurityBotTooCloseSeq@@YAHPAUTAG_ACTORINSTANCE@@@Z 0040a8d0 f   securitybot.obj
 0001:00009930       ?SecurityBotPuzzledSeq@@YAHPAUTAG_ACTORINSTANCE@@@Z 0040a930 f   securitybot.obj
 0001:00009990       ?SecurityBotAttackedSeq@@YAHPAUTAG_ACTORINSTANCE@@@Z 0040a990 f   securitybot.obj
 0001:00009b80       ?SecurityBotOutOfRangeSeq@@YAHPAUTAG_ACTORINSTANCE@@@Z 0040ab80 f   securitybot.obj
 0001:00009be0       ?SecurityBotAttackCallback@@YAHPAUTAG_ACTORINSTANCE@@@Z 0040abe0 f   securitybot.obj
 0001:0000a240       ?SecurityBotStateChangeCallback@@YAXPAUTAG_ACTORINSTANCE@@HH@Z 0040b240 f   securitybot.obj
 0001:0000a2a0       ?SecurityBotTazSquashedCallback@@YAHPAUTAG_ACTORINSTANCE@@@Z 0040b2a0 f   securitybot.obj
 0001:0000a360       ?SecurityBotMessageHandler@@YAHPAUTAG_ACTORINSTANCE@@PAD@Z 0040b360 f   securitybot.obj
 0001:0000a470       ?CreateActorInstanceSecurityBot@@YAHPAUTAG_ACTORINSTANCE@@PAUTAG_ACTORINSTANCELIST@@1@Z 0040b470 f   securitybot.obj
 0001:0000a730       ?SharkIdleSeq@@YAHPAUTAG_ACTORINSTANCE@@@Z 0040b730 f   shark.obj
 0001:0000a7d0       ?SharkAwareSeq@@YAHPAUTAG_ACTORINSTANCE@@@Z 0040b7d0 f   shark.obj
 0001:0000a830       ?SharkAttackSeq@@YAHPAUTAG_ACTORINSTANCE@@@Z 0040b830 f   shark.obj
 0001:0000a8e0       ?SharkTooCloseSeq@@YAHPAUTAG_ACTORINSTANCE@@@Z 0040b8e0 f   shark.obj
 0001:0000a940       ?SharkAttackedSeq@@YAHPAUTAG_ACTORINSTANCE@@@Z 0040b940 f   shark.obj
 0001:0000aa50       ?SharkOutOfRangeSeq@@YAHPAUTAG_ACTORINSTANCE@@@Z 0040ba50 f   shark.obj
 0001:0000aab0       ?SharkAttackCallback@@YAHPAUTAG_ACTORINSTANCE@@@Z 0040bab0 f   shark.obj
 0001:0000ad70       ?SharkStateChangeCallback@@YAXPAUTAG_ACTORINSTANCE@@HH@Z 0040bd70 f   shark.obj
 0001:0000ae60       ?SharkTazSquashedCallback@@YAHPAUTAG_ACTORINSTANCE@@@Z 0040be60 f   shark.obj
 0001:0000af20       ?CreateActorInstanceShark@@YAHPAUTAG_ACTORINSTANCE@@PAUTAG_ACTORINSTANCELIST@@1@Z 0040bf20 f   shark.obj
 0001:0000b180       ?TazCatcherIdleSeq@@YAHPAUTAG_ACTORINSTANCE@@@Z 0040c180 f   tazcatcher.obj
 0001:0000b280       ?TazCatcherAwareSeq@@YAHPAUTAG_ACTORINSTANCE@@@Z 0040c280 f   tazcatcher.obj
 0001:0000b2e0       ?TazCatcherAttackSeq@@YAHPAUTAG_ACTORINSTANCE@@@Z 0040c2e0 f   tazcatcher.obj
 0001:0000b3a0       ?TazCatcherTooCloseSeq@@YAHPAUTAG_ACTORINSTANCE@@@Z 0040c3a0 f   tazcatcher.obj
 0001:0000b400       ?TazCatcherAttackedSeq@@YAHPAUTAG_ACTORINSTANCE@@@Z 0040c400 f   tazcatcher.obj
 0001:0000b5f0       ?TazCatcherOutOfRangeSeq@@YAHPAUTAG_ACTORINSTANCE@@@Z 0040c5f0 f   tazcatcher.obj
 0001:0000b650       ?TazCatcherAttackCallback@@YAHPAUTAG_ACTORINSTANCE@@@Z 0040c650 f   tazcatcher.obj
 0001:0000b8d0       ?TazCatcherStateChangeCallback@@YAXPAUTAG_ACTORINSTANCE@@HH@Z 0040c8d0 f   tazcatcher.obj
 0001:0000b910       ?TazCatcherTazSquashedCallback@@YAHPAUTAG_ACTORINSTANCE@@@Z 0040c910 f   tazcatcher.obj
 0001:0000b9d0       ?CreateActorInstanceTazCatcher@@YAHPAUTAG_ACTORINSTANCE@@PAUTAG_ACTORINSTANCELIST@@1@Z 0040c9d0 f   tazcatcher.obj
 0001:0000bc80       ?CreateTweety@@YAXQAM0@Z   0040cc80 f   tweety.obj
 0001:0000bde0       ?ResetTweetyPosition@@YAXQAM0@Z 0040cde0 f   tweety.obj
 0001:0000be70       ?TweetyLookAt2D@@YAXQAM@Z  0040ce70 f   tweety.obj
 0001:0000bf00       ?MoveTweety@@YAXXZ         0040cf00 f   tweety.obj
 0001:0000c0c0       ?AnimateTweety@@YAXXZ      0040d0c0 f   tweety.obj
 0001:0000c310       ?DrawTweety@@YAXXZ         0040d310 f   tweety.obj
 0001:0000c380       ?UpdateTweety@@YAXM@Z      0040d380 f   tweety.obj
 0001:0000c780       ?bmVectorCMul@@YAXQAMQBMM@Z 0040d780 f i tweety.obj
 0001:0000c7d0       ?DestroyTweety@@YAXXZ      0040d7d0 f   tweety.obj
 0001:0000c820       ?bmVectorSquaredLen@@YAMQBM@Z 0040d820 f i tweety.obj
 0001:0000c870       ?SetPositionForTazTrapped@@YAXPAUTAG_ACTORINSTANCE@@0@Z 0040d870 f   zookeeper.obj
 0001:0000c9a0       ?ZookeeperIdleSeq@@YAHPAUTAG_ACTORINSTANCE@@@Z 0040d9a0 f   zookeeper.obj
 0001:0000ca40       ?ZookeeperAwareSeq@@YAHPAUTAG_ACTORINSTANCE@@@Z 0040da40 f   zookeeper.obj
 0001:0000cb00       ?ZookeeperAttackSeq@@YAHPAUTAG_ACTORINSTANCE@@@Z 0040db00 f   zookeeper.obj
 0001:0000cc20       ?ZookeeperPursuitAttackSeq@@YAHPAUTAG_ACTORINSTANCE@@@Z 0040dc20 f   zookeeper.obj
 0001:0000cc80       ?ZookeeperTooCloseSeq@@YAHPAUTAG_ACTORINSTANCE@@@Z 0040dc80 f   zookeeper.obj
 0001:0000cce0       ?ZookeeperAttackedSeq@@YAHPAUTAG_ACTORINSTANCE@@@Z 0040dce0 f   zookeeper.obj
 0001:0000ce90       ?ZookeeperOutOfRangeSeq@@YAHPAUTAG_ACTORINSTANCE@@@Z 0040de90 f   zookeeper.obj
 0001:0000cef0       ?ZookeeperTazTrappedCallback@@YAHPAUTAG_ACTORINSTANCE@@@Z 0040def0 f   zookeeper.obj
 0001:0000d140       ?ZookeeperAttackCallback@@YAHPAUTAG_ACTORINSTANCE@@@Z 0040e140 f   zookeeper.obj
 0001:0000d380       ?CreateActorInstanceZookeeper@@YAHPAUTAG_ACTORINSTANCE@@PAUTAG_ACTORINSTANCELIST@@1W4EZookeeperType@@I@Z 0040e380 f   zookeeper.obj
 0001:0000d760       ?DestroyObject@@YAXPAUTAG_ACTORINSTANCE@@@Z 0040e760 f   breakables.obj
 0001:0000dac0       ?BreakObject@@YAXPAUTAG_ACTORINSTANCE@@@Z 0040eac0 f   breakables.obj
 0001:0000dc20       ?BreakTazPickup@@YAXQAMPAD@Z 0040ec20 f   breakables.obj
 0001:0000dd60       ?DestroyObject@@YAXPAUTAG_ACTORINSTANCE@@PAUTAG_DESTRUCTIBLEDEBRISINFO@@H@Z 0040ed60 f   breakables.obj
 0001:0000e350       ?CreateBumper@@YAHPAUTAG_ACTORINSTANCE@@M@Z 0040f350 f   bumper.obj
 0001:0000e3e0       ?CreateBumperInfo@@YAPAUTAG_BUMPERINFO@@XZ 0040f3e0 f   bumper.obj
 0001:0000e450       ?RespondToBumperCollision@@YAHPAUTAG_ACTORINSTANCE@@0@Z 0040f450 f   bumper.obj
 0001:0000e5a0       ?setBumperIgnoreCharacter@@YAXPAUTAG_ACTORINSTANCE@@@Z 0040f5a0 f   bumper.obj
 0001:0000e5d0       ?SetupDestructible@@YAXPAUTAG_MAPINFO@@PAVCPMNode@@1PAUTAG_MAPOBJECTATTRIBS@@PAUTAG_ACTORINSTANCE@@@Z 0040f5d0 f   destructibles.obj
 0001:0000eb40       ?CreateDestructibleObjectInstance@@YAHPAUTAG_ACTORINSTANCE@@HPAUTAG_DESTRUCTIBLEDEBRISINFO@@HIIIIPADMMMHIIF@Z 0040fb40 f   destructibles.obj
 0001:0000ee80       ?PreRespondToDestructibleCollision@@YAHPAUTAG_ACTORINSTANCE@@0@Z 0040fe80 f   destructibles.obj
 0001:0000f000       ?eatCallback@@YAXPAUTAG_ACTORINSTANCE@@@Z 00410000 f   destructibles.obj
 0001:0000f060       ?RespondToDestructibleCollision@@YAHPAUTAG_ACTORINSTANCE@@0@Z 00410060 f   destructibles.obj
 0001:0000ff40       ?bmVectorDot@@YAMQBM0@Z    00410f40 f i destructibles.obj
 0001:0000ff90       ?RespondToDestructibleChilliPepperCollision@@YAHPAUTAG_ACTORINSTANCE@@0@Z 00410f90 f   destructibles.obj
 0001:00010400       ?ChangeIntoDestructibleVersion@@YAHPAUTAG_ACTORINSTANCE@@H@Z 00411400 f   destructibles.obj
 0001:00010600       ?CheckForFurtherDestructions@@YAXPAUTAG_ACTORINSTANCE@@0PAUTAG_ACTORINSTANCELIST@@@Z 00411600 f   destructibles.obj
 0001:00010920       ?CopyDestructibleDebrisInfo@@YAPAUTAG_DESTRUCTIBLEDEBRISINFO@@PAU1@@Z 00411920 f   destructibles.obj
 0001:000109e0       ?UpdateSpinningDestructibleObjects@@YAXPAUTAG_ACTORINSTANCE@@@Z 004119e0 f   destructibles.obj
 0001:00010c10       ?CreateDoor@@YAHPAUTAG_ACTORINSTANCE@@MMH@Z 00411c10 f   doors.obj
 0001:00010c90       ?CreateRevolvingDoor@@YAHPAUTAG_ACTORINSTANCE@@MMH@Z 00411c90 f   doors.obj
 0001:00010d90       ?CreateSpringyDoor@@YAHPAUTAG_ACTORINSTANCE@@MMH@Z 00411d90 f   doors.obj
 0001:00010ec0       ?CreateDoorInfo@@YAPAUTAG_DOORINFO@@XZ 00411ec0 f   doors.obj
 0001:00010f30       ?UpdateDoors@@YAXPAUTAG_ACTORINSTANCE@@@Z 00411f30 f   doors.obj
 0001:00010fb0       ?UpdateRevolvingDoorOrientation@@YAXPAUTAG_ACTORINSTANCE@@@Z 00411fb0 f   doors.obj
 0001:00011140       ?UpdateSpringyDoorOrientation@@YAXPAUTAG_ACTORINSTANCE@@@Z 00412140 f   doors.obj
 0001:000112e0       ?bmCos@@YAMM@Z             004122e0 f i doors.obj
 0001:00011320       ?bmSin@@YAMM@Z             00412320 f i doors.obj
 0001:00011360       ?RespondToRevolvingDoorCollision@@YAHPAUTAG_ACTORINSTANCE@@0@Z 00412360 f   doors.obj
 0001:00011510       ?RespondToSpringyDoorCollision@@YAHPAUTAG_ACTORINSTANCE@@0@Z 00412510 f   doors.obj
 0001:00011670       ?CreateEscalator@@YAHPAUTAG_ACTORINSTANCE@@QAMM@Z 00412670 f   escalator.obj
 0001:000117b0       ?CreateEscalatorInfo@@YAPAUTAG_ESCALATORINFO@@XZ 004127b0 f   escalator.obj
 0001:00011820       ?RespondToEscalatorCollision@@YAHPAUTAG_ACTORINSTANCE@@0@Z 00412820 f   escalator.obj
 0001:00011870       ?UpdateLastEscalator@@YAXPAUTAG_ACTORINSTANCE@@@Z 00412870 f   escalator.obj
 0001:00011960       ?RespondToActorCollision2@@YAHPAUTAG_ACTORINSTANCE@@0@Z 00412960 f   fallingobjects.obj
 0001:00011990       ?InitFallingObjectList@@YAXXZ 00412990 f   fallingobjects.obj
 0001:000119d0       ?AddEntryToFallingObjectList@@YAXPAD0QAMMHIIPAUTAG_TRIGGERINFO@@PAUTAG_DESTRUCTIBLEDEBRISINFO@@H@Z 004129d0 f   fallingobjects.obj
 0001:00011b50       ?RemoveObjectFromFallingList@@YAHPAUTAG_FALLINGOBJECTLISTENTRY@@@Z 00412b50 f   fallingobjects.obj
 0001:00011c60       ?UpdateFallingObjectList@@YAXPAUTAG_FALLINGOBJECTLIST@@@Z 00412c60 f   fallingobjects.obj
 0001:00011ec0       ?FreeAllFallingObjectsFromList@@YAXXZ 00412ec0 f   fallingobjects.obj
 0001:00011fb0       ?DropObject@@YAPAUTAG_ACTORINSTANCE@@PAUTAG_ACTORINSTANCELIST@@IIPADQAMIIPAUTAG_TRIGGERINFO@@PAUTAG_DESTRUCTIBLEDEBRISINFO@@MH@Z 00412fb0 f   fallingobjects.obj
 0001:00012380       ?CreateFallingObjectInstance@@YAHPAUTAG_ACTORINSTANCE@@QAM@Z 00413380 f   fallingobjects.obj
 0001:00012450       ?UpdateFallingObject@@YAXPAUTAG_ACTORINSTANCE@@@Z 00413450 f   fallingobjects.obj
 0001:000127a0       ?UpdateFallingObjectInfo@@YAXPAUTAG_ACTORINSTANCE@@@Z 004137a0 f   fallingobjects.obj
 0001:00012830       ?RespondToActorCollision@@YAHPAUTAG_ACTORINSTANCE@@0@Z 00413830 f   fallingobjects.obj
 0001:00012a90       ?FreeAllFallingObjectScaleInfo@@YAXPAUTAG_ACTORINSTANCELIST@@@Z 00413a90 f   fallingobjects.obj
 0001:00012b40       ?ResetRemainTypeFallingObject@@YAHPAUTAG_ACTORINSTANCE@@0@Z 00413b40 f   fallingobjects.obj
 0001:00012ce0       ?CreateFlameThrowa@@YAHPAUTAG_ACTORINSTANCE@@MM@Z 00413ce0 f   famethrowa.obj
 0001:00012dc0       ?UpdateFlameThrowa@@YAXPAUTAG_ACTORINSTANCE@@@Z 00413dc0 f   famethrowa.obj
 0001:00013340       ?InitFloorPolisherWantedPoster@@YAXPAPAUTAG_WANTEDPOSTERDECALINFO@@@Z 00414340 f   floorpolisherwantedposter.obj
 0001:00013370       ?CreateFloorPolisherWantedPoster@@YAPAUTAG_WANTEDPOSTERDECALINFO@@QAMMMM@Z 00414370 f   floorpolisherwantedposter.obj
 0001:000138c0       ??0TAG_COLOUR@@QAE@EEE@Z   004148c0 f i floorpolisherwantedposter.obj
 0001:00013910       ?init@TAG_COLOUR@@QAEXEEEE@Z 00414910 f i floorpolisherwantedposter.obj
 0001:00013960       ??2@YAPAXIPADHG@Z          00414960 f i floorpolisherwantedposter.obj
 0001:000139b0       ??3@YAXPAXPADHG@Z          004149b0 f i floorpolisherwantedposter.obj
 0001:000139f0       ??0TAG_RECTANGLE@@QAE@HHHH@Z 004149f0 f i floorpolisherwantedposter.obj
 0001:00013a40       ?init@TAG_RECTANGLE@@QAEXHHHH@Z 00414a40 f i floorpolisherwantedposter.obj
 0001:00013a90       ?setScale@TAG_PAGEITEM@@QAEPAU1@M@Z 00414a90 f i floorpolisherwantedposter.obj
 0001:00013ae0       ?setDrawScale@TAG_PAGEITEM@@QAEPAU1@M@Z 00414ae0 f i floorpolisherwantedposter.obj
 0001:00013b40       ?setAlignScale@TAG_PAGEITEM@@QAEPAU1@M@Z 00414b40 f i floorpolisherwantedposter.obj
 0001:00013ba0       ??0TAG_TEXTBOX@@QAE@W4EStringIndex@@UTAG_COLOUR@@1H_NW4EBFontFormatting@@3QAU_TBFont@@@Z 00414ba0 f i floorpolisherwantedposter.obj
 0001:00013c50       ??0TAG_COLOUR@@QAE@XZ      00414c50 f i floorpolisherwantedposter.obj
 0001:00013ca0       ?getItem@TAG_PAGEITEM@@UAEPAU1@QBD@Z 00414ca0 f i floorpolisherwantedposter.obj
 0001:00013cd0       ??0TAG_PAGEITEM@@QAE@XZ    00414cd0 f i floorpolisherwantedposter.obj
 0001:00013d70       ??0TAG_RECTANGLE@@QAE@MMMM@Z 00414d70 f i floorpolisherwantedposter.obj
 0001:00013dc0       ?init@TAG_RECTANGLE@@QAEXMMMM@Z 00414dc0 f i floorpolisherwantedposter.obj
 0001:00013e10       ?update@TAG_PAGEITEM@@UAEXXZ 00414e10 f i floorpolisherwantedposter.obj
 0001:00013e40       ?getRequiredHeight@TAG_PAGEITEM@@UAEMXZ 00414e40 f i floorpolisherwantedposter.obj
 0001:00013e70       ?getRequiredWidth@TAG_PAGEITEM@@UAEMXZ 00414e70 f i floorpolisherwantedposter.obj
 0001:00013ea0       ?shutdown@TAG_PAGEITEM@@UAEXXZ 00414ea0 f i floorpolisherwantedposter.obj
 0001:00013ed0       ??_GTAG_PAGEITEM@@UAEPAXI@Z 00414ed0 f i floorpolisherwantedposter.obj
 0001:00013ed0       ??_ETAG_PAGEITEM@@UAEPAXI@Z 00414ed0 f i floorpolisherwantedposter.obj
 0001:00013f30       ??_ETAG_TEXTBOX@@UAEPAXI@Z 00414f30 f i floorpolisherwantedposter.obj
 0001:00013f30       ??_GTAG_TEXTBOX@@UAEPAXI@Z 00414f30 f i floorpolisherwantedposter.obj
 0001:00013f90       ??1TAG_TEXTBOX@@UAE@XZ     00414f90 f i floorpolisherwantedposter.obj
 0001:00013fd0       ??0TAG_BOOK@@QAE@XZ        00414fd0 f i floorpolisherwantedposter.obj
 0001:00014060       ?hasClosed@TAG_BOOK@@MAEXXZ 00415060 f i floorpolisherwantedposter.obj
 0001:00014090       ??_GTAG_BOOK@@UAEPAXI@Z    00415090 f i floorpolisherwantedposter.obj
 0001:00014090       ??_ETAG_BOOK@@UAEPAXI@Z    00415090 f i floorpolisherwantedposter.obj
 0001:000140f0       ?CreateFloorPolisherWantedPosterMesh@@YAXPAUTAG_WANTEDPOSTERDECALINFO@@@Z 004150f0 f   floorpolisherwantedposter.obj
 0001:00014310       ?UpdateFloorPolisherWantedPoster@@YAXPAUTAG_WANTEDPOSTERDECALINFO@@@Z 00415310 f   floorpolisherwantedposter.obj
 0001:000147f0       ?DrawFloorPolisherWantedPoster@@YAXPAUTAG_WANTEDPOSTERDECALINFO@@@Z 004157f0 f   floorpolisherwantedposter.obj
 0001:00014a10       ?FreeFloorPolisherWantedPosterInfo@@YAXPAPAUTAG_WANTEDPOSTERDECALINFO@@@Z 00415a10 f   floorpolisherwantedposter.obj
 0001:00014aa0       ??0?$LINKEDLIST@UTAG_PAGE@@@@QAE@QAD@Z 00415aa0 f i floorpolisherwantedposter.obj
 0001:00014af0       ?init@?$LINKEDLIST@UTAG_PAGE@@@@QAAXQBDZZ 00415af0 f i floorpolisherwantedposter.obj
 0001:00014b30       ?CreateRandomFood@@YAHQAMI@Z 00415b30 f   foodrandomiser.obj
 0001:00014bc0       ?CreateFountain@@YAHPAUTAG_ACTORINSTANCE@@MMH@Z 00415bc0 f   fountain.obj
 0001:00014d50       ?CreateFountainInfo@@YAPAUTAG_FOUNTAININFO@@XZ 00415d50 f   fountain.obj
 0001:00014dc0       ?RespondToFountainCollision@@YAHPAUTAG_ACTORINSTANCE@@0@Z 00415dc0 f   fountain.obj
 0001:00014f40       ?ProcessFountainPhysics@@YAXPAUTAG_ACTORINSTANCE@@@Z 00415f40 f   fountain.obj
 0001:00015880       ?UpdateFountains@@YAXPAUTAG_ACTORINSTANCE@@@Z 00416880 f   fountain.obj
 0001:000158d0       ?InitFountainExtraSystem@@YAXXZ 004168d0 f   fountainextrasystem.obj
 0001:00015930       ?FountainExtraCreateCallback@@YAXPAU_TBExtraSystem@@PAEPAD@Z 00416930 f   fountainextrasystem.obj
 0001:00015b00       ?FountainExtraDeleteCallback@@YAHPAU_TBExtraSystem@@PAE@Z 00416b00 f   fountainextrasystem.obj
 0001:00015b30       ?FountainExtraUpdateCallback@@YAXPAU_TBExtraSystem@@HPAPAEM@Z 00416b30 f   fountainextrasystem.obj
 0001:00015d10       ?FountainExtraRenderCallback@@YAXPAU_TBExtraSystem@@HPAPAEPAX@Z 00416d10 f   fountainextrasystem.obj
 0001:00015f10       ?FountainExtraSystemInitCallback@@YAXPAU_TBExtraSystem@@H@Z 00416f10 f   fountainextrasystem.obj
 0001:00015f30       ?bmVectorCDiv@@YAXQAMQBMM@Z 00416f30 f i fountainextrasystem.obj
 0001:00015f80       ?CreateIceInstance@@YAXPAUTAG_ACTORINSTANCE@@@Z 00416f80 f   ice.obj
 0001:00015fd0       ?RespondToIceCollision@@YAHPAUTAG_ACTORINSTANCE@@0@Z 00416fd0 f   ice.obj
 0001:00016290       ?CreateLavaObject@@YAHPAUTAG_ACTORINSTANCE@@_N@Z 00417290 f   lava.obj
 0001:000164e0       ?CreateMagnetInstance@@YAPAUTAG_MAGNETINFO@@PAUTAG_ACTORINSTANCE@@W4EMagnetState@@M@Z 004174e0 f   magnet.obj
 0001:00016590       ?UpdateMagnetInstance@@YAXPAUTAG_ACTORINSTANCE@@@Z 00417590 f   magnet.obj
 0001:00016740       ?DrawMagnetStuff@@YAXPAUTAG_ACTORINSTANCE@@@Z 00417740 f   magnet.obj
 0001:00016860       ?ChangeMagnetState@@YAHPAUTAG_ACTORINSTANCE@@W4EMagnetState@@@Z 00417860 f   magnet.obj
 0001:000168b0       ?ChangeMagnetStrength@@YAHPAUTAG_ACTORINSTANCE@@M@Z 004178b0 f   magnet.obj
 0001:00016910       ?CreateMailboxInstance@@YAHPAUTAG_ACTORINSTANCE@@QAMHI@Z 00417910 f   mailbox.obj
 0001:00016a40       ?CreateMailboxInstanceInfo@@YAHPAUTAG_ACTORINSTANCE@@@Z 00417a40 f   mailbox.obj
 0001:00016ac0       ?UpdateMailboxes@@YAXPAUTAG_ACTORINSTANCE@@@Z 00417ac0 f   mailbox.obj
 0001:00016b10       ?UpdateIndividualMailbox@@YAXPAUTAG_ACTORINSTANCE@@0@Z 00417b10 f   mailbox.obj
 0001:00017150       ?CubeDistanceTest@@YAHQAM0M@Z 00418150 f   mailbox.obj
 0001:000171e0       ?CreateMusicBoxInstance@@YAXPAUTAG_ACTORINSTANCE@@M@Z 004181e0 f   musicandsavagebeasts.obj
 0001:00017380       ?UpdateMusicBoxInstances@@YAXPAUTAG_ACTORINSTANCELIST@@@Z 00418380 f   musicandsavagebeasts.obj
 0001:00017610       ?MusicBoxStateChangeCallback@@YAXPAUTAG_ACTORINSTANCE@@@Z 00418610 f   musicandsavagebeasts.obj
 0001:00017690       ?InitStaveExtraSystem@@YAXXZ 00418690 f   musicandsavagebeasts.obj
 0001:000176f0       ?StaveExtraCreateCallback@@YAXPAU_TBExtraSystem@@PAEPAD@Z 004186f0 f   musicandsavagebeasts.obj
 0001:00017940       ?StaveExtraDeleteCallback@@YAHPAU_TBExtraSystem@@PAE@Z 00418940 f   musicandsavagebeasts.obj
 0001:00017970       ?StaveExtraUpdateCallback@@YAXPAU_TBExtraSystem@@HPAPAEM@Z 00418970 f   musicandsavagebeasts.obj
 0001:00017cb0       ?StaveExtraRenderCallback@@YAXPAU_TBExtraSystem@@HPAPAEPAX@Z 00418cb0 f   musicandsavagebeasts.obj
 0001:00018020       ?StaveExtraSystemInitCallback@@YAXPAU_TBExtraSystem@@H@Z 00419020 f   musicandsavagebeasts.obj
 0001:00018040       ?CreateActorInstancePhoneBox@@YAHPAUTAG_ACTORINSTANCE@@0@Z 00419040 f   phonebox.obj
 0001:000182e0       ?ActivatePhoneBoxes@@YAXPAUTAG_ACTORINSTANCE@@@Z 004192e0 f   phonebox.obj
 0001:00018300       ?RespondToPhoneBoxCollision@@YAHPAUTAG_ACTORINSTANCE@@0@Z 00419300 f   phonebox.obj
 0001:000185b0       ?UpdatePhoneBox@@YAXPAUTAG_ACTORINSTANCE@@@Z 004195b0 f   phonebox.obj
 0001:00018e10       ?UpdatePhoneBoxes@@YAXPAUTAG_ACTORINSTANCELIST@@@Z 00419e10 f   phonebox.obj
 0001:00018ed0       ?CreatePortalWorldInstance@@YAHPAUTAG_ACTORINSTANCE@@@Z 00419ed0 f   portal.obj
 0001:00018f20       ?RespondToPortalCollision@@YAHPAUTAG_ACTORINSTANCE@@0@Z 00419f20 f   portal.obj
 0001:00018f90       ?CalculatePortalWorldGravity@@YAXPAUTAG_ACTORINSTANCE@@@Z 00419f90 f   portal.obj
 0001:00019040       ?CreateActorInstanceProjectile@@YAHPAUTAG_ACTORINSTANCE@@IMW4ESpecialType@@H@Z 0041a040 f   projectile.obj
 0001:000191e0       ?RespondToCannonCollision@@YAHPAUTAG_ACTORINSTANCE@@0@Z 0041a1e0 f   projectile.obj
 0001:00019430       ?UpdateCannonState@@YAXPAUTAG_ACTORINSTANCE@@@Z 0041a430 f   projectile.obj
 0001:000197d0       ?LaunchStateChangeCallback@@YAXPAUTAG_ACTORINSTANCE@@@Z 0041a7d0 f   projectile.obj
 0001:00019870       ?LaunchActor@@YAXPAUTAG_ACTORINSTANCE@@0@Z 0041a870 f   projectile.obj
 0001:000199c0       ?CalculateProjectileInitialVelocity@@YAMQAM00M@Z 0041a9c0 f   projectile.obj
 0001:00019b90       ?bmTan@@YAMM@Z             0041ab90 f i projectile.obj
 0001:00019bd0       ?bmATan2@@YAMMM@Z          0041abd0 f i projectile.obj
 0001:00019c20       ?UpdateProjectilePitch@@YAXPAUTAG_ACTORINSTANCE@@@Z 0041ac20 f   projectile.obj
 0001:00019d00       ?UpdateProjectilePitch@@YAXPAUTAG_ACTORINSTANCE@@M@Z 0041ad00 f   projectile.obj
 0001:00019dd0       ?CreateScenic@@YAHPAUTAG_ACTORINSTANCE@@PADHH@Z 0041add0 f   scenicobjects.obj
 0001:00019ea0       ?CreateScenicInfo@@YAPAUTAG_SCENICINFO@@XZ 0041aea0 f   scenicobjects.obj
 0001:00019f10       ?CreateSlide@@YAHPAUTAG_ACTORINSTANCE@@@Z 0041af10 f   slides.obj
 0001:00019f80       ?RespondToSlideCollision@@YAHPAUTAG_ACTORINSTANCE@@0@Z 0041af80 f   slides.obj
 0001:0001a160       ?CreateSpeedBoost@@YAHPAUTAG_ACTORINSTANCE@@QAM1MI@Z 0041b160 f   speedboost.obj
 0001:0001a290       ?CreateSpeedBoostInfo@@YAPAUTAG_SPEEDBOOSTINFO@@XZ 0041b290 f   speedboost.obj
 0001:0001a300       ?RespondToSpeedboostCollision@@YAHPAUTAG_ACTORINSTANCE@@0@Z 0041b300 f   speedboost.obj
 0001:0001a410       ?CreateSplatObject@@YAHPAUTAG_ACTORINSTANCE@@@Z 0041b410 f   splatobjects.obj
 0001:0001a480       ?RespondToSplatCollision@@YAHPAUTAG_ACTORINSTANCE@@0@Z 0041b480 f   splatobjects.obj
 0001:0001a580       ?SplatCallback@@YAXPAUTAG_ACTORINSTANCE@@@Z 0041b580 f   splatobjects.obj
 0001:0001a620       ?CreateSpringyObject@@YAHPAUTAG_ACTORINSTANCE@@QAMMW4ESpecialType@@MH@Z 0041b620 f   springyobjects.obj
 0001:0001a720       ?CreateSpringyActorInstanceInfo@@YAHPAUTAG_ACTORINSTANCE@@@Z 0041b720 f   springyobjects.obj
 0001:0001a7a0       ?RespondToSpringCollision@@YAHPAUTAG_ACTORINSTANCE@@0@Z 0041b7a0 f   springyobjects.obj
 0001:0001ab00       ?CalculateInitialVelocity@@YAMPAUTAG_ACTORINSTANCE@@0@Z 0041bb00 f   springyobjects.obj
 0001:0001ac50       ?CreateSteppingStoneObject@@YAXPAUTAG_ACTORINSTANCE@@MQAMMMM@Z 0041bc50 f   steppingstone.obj
 0001:0001adb0       ?CreateSteppingStoneActorInstanceInfo@@YAHPAUTAG_ACTORINSTANCE@@@Z 0041bdb0 f   steppingstone.obj
 0001:0001ae30       ?RespondToSteppingStoneCollision@@YAHPAUTAG_ACTORINSTANCE@@0@Z 0041be30 f   steppingstone.obj
 0001:0001af10       ?UpdateSteppingStone@@YAXPAUTAG_ACTORINSTANCE@@@Z 0041bf10 f   steppingstone.obj
 0001:0001af80       ?SteppingStonePart@@YAXPAUTAG_ACTORINSTANCE@@@Z 0041bf80 f   steppingstone.obj
 0001:0001b340       ?NegativeSteppingStonePart@@YAXPAUTAG_ACTORINSTANCE@@@Z 0041c340 f   steppingstone.obj
 0001:0001b670       ?ApplyBobble@@YAXPAUTAG_ACTORINSTANCE@@MMM@Z 0041c670 f   steppingstone.obj
 0001:0001b740       ?SinkSteppingStone@@YAXPAUTAG_ACTORINSTANCE@@@Z 0041c740 f   steppingstone.obj
 0001:0001b810       ?RaiseTheSteppingStone@@YAXPAUTAG_ACTORINSTANCE@@@Z 0041c810 f   steppingstone.obj
 0001:0001b870       ?CreateSwingingObject@@YAHPAUTAG_ACTORINSTANCE@@QAMMHPAD@Z 0041c870 f   swingingobjects.obj
 0001:0001beb0       ?CreateSwingingObjectActorInfo@@YAHPAUTAG_ACTORINSTANCE@@@Z 0041ceb0 f   swingingobjects.obj
 0001:0001bf30       ?RespondToSwingerCollision@@YAHPAUTAG_ACTORINSTANCE@@0@Z 0041cf30 f   swingingobjects.obj
 0001:0001c310       ?UpdateSwingingObject@@YAXPAUTAG_ACTORINSTANCE@@@Z 0041d310 f   swingingobjects.obj
 0001:0001c440       ?ProcessSwing@@YAXPAUTAG_ACTORINSTANCE@@@Z 0041d440 f   swingingobjects.obj
 0001:0001c500       ?SwingActor@@YAXPAUTAG_ACTORINSTANCE@@@Z 0041d500 f   swingingobjects.obj
 0001:0001ca10       ?CalculateOrientationOfRope@@YAXQAMPAUTAG_ACTORINSTANCE@@1@Z 0041da10 f   swingingobjects.obj
 0001:0001cae0       ?CalculateRotationAboutYAxis@@YAXPAUTAG_ACTORINSTANCE@@@Z 0041dae0 f   swingingobjects.obj
 0001:0001cb90       ?ChooseIdleAnimationForMonkey@@YAPAU_TBActorAnimSegment@@PAUTAG_ACTORINSTANCE@@@Z 0041db90 f   swingingobjects.obj
 0001:0001cbf0       ?CreateTiltingObject@@YAXPAUTAG_ACTORINSTANCE@@MMMQAMMM@Z 0041dbf0 f   tiltingobjects.obj
 0001:0001cd90       ?CreateTiltingObjectActorInfo@@YAHPAUTAG_ACTORINSTANCE@@@Z 0041dd90 f   tiltingobjects.obj
 0001:0001ce10       ?RespondToTiltingObjectCollision@@YAHPAUTAG_ACTORINSTANCE@@0@Z 0041de10 f   tiltingobjects.obj
 0001:0001ceb0       ?UpdateTiltingObject@@YAXPAUTAG_ACTORINSTANCE@@@Z 0041deb0 f   tiltingobjects.obj
 0001:0001cf00       ?ProcessTilting@@YAXPAUTAG_ACTORINSTANCE@@@Z 0041df00 f   tiltingobjects.obj
 0001:0001d250       ?CreateTransporter@@YAHPAUTAG_ACTORINSTANCE@@IPADMMMM@Z 0041e250 f   transporter.obj
 0001:0001d330       ?CreateTransporterInfo@@YAHPAUTAG_ACTORINSTANCE@@@Z 0041e330 f   transporter.obj
 0001:0001d3b0       ?RespondToTransporterCollision@@YAHPAUTAG_ACTORINSTANCE@@0@Z 0041e3b0 f   transporter.obj
 0001:0001d640       ?CreateWantedPosterInstance@@YAHPAUTAG_ACTORINSTANCE@@HH@Z 0041e640 f   wantedposter.obj
 0001:0001d730       ?PreRespondToWantedPosterCollision@@YAHPAUTAG_ACTORINSTANCE@@0@Z 0041e730 f   wantedposter.obj
 0001:0001d760       ?RespondToWantedPosterCollision@@YAHPAUTAG_ACTORINSTANCE@@0@Z 0041e760 f   wantedposter.obj
 0001:0001da00       ?UpdateSpecialCaseWantedPoster@@YAHPAUTAG_ACTORINSTANCE@@@Z 0041ea00 f   wantedposter.obj
 0001:0001dc70       ?CreateWateryObject@@YAHPAUTAG_ACTORINSTANCE@@PAUTAG_BOUNDINGBOX@@IQAM@Z 0041ec70 f   water.obj
 0001:0001de00       ?CreateWateryObjectInfo@@YAHPAUTAG_ACTORINSTANCE@@@Z 0041ee00 f   water.obj
 0001:0001de80       ?PreRespondToWaterCollision@@YAHPAUTAG_ACTORINSTANCE@@0@Z 0041ee80 f   water.obj
 0001:0001e300       ?RespondToWaterCollision@@YAHPAUTAG_ACTORINSTANCE@@0@Z 0041f300 f   water.obj
 0001:0001e3a0       ?CalculateResetPoint@@YAXPAUTAG_ACTORINSTANCE@@0@Z 0041f3a0 f   water.obj
 0001:0001e770       ?ResetActorAtSideOfWater@@YAXPAUTAG_ACTORINSTANCE@@QAM@Z 0041f770 f   water.obj
 0001:0001e910       ?ResetActorAtSideOfWaterWithCartoonScaling@@YAXPAUTAG_ACTORINSTANCE@@QAM@Z 0041f910 f   water.obj
 0001:0001ea20       ?FreeWaterResetPoints@@YAXPAUTAG_ACTORINSTANCE@@@Z 0041fa20 f   water.obj
 0001:0001eb10       ?CreateWaterResetInfo@@YAPAUTAG_WATERRESETINFO@@H@Z 0041fb10 f   water.obj
 0001:0001ebb0       ?AddWaterResetObject@@YAHPAUTAG_WATERRESETINFO@@PAD@Z 0041fbb0 f   water.obj
 0001:0001ec10       ?FinishedFadeFromWater@@YAXPAUTAG_FADE@@@Z 0041fc10 f   water.obj
 0001:0001ec70       ?ResetFadeToPoint@@YAXPAUTAG_FADE@@@Z 0041fc70 f   water.obj
 0001:0001ecc0       ?UpdateWater@@YAXPAUTAG_ACTORINSTANCE@@@Z 0041fcc0 f   water.obj
 0001:0001ed70       ?UpdateCartoonScaling@@YAXPAUTAG_ACTORINSTANCE@@PAUTAG_CARTOONSCALEINFO@@@Z 0041fd70 f   cartoonscaling.obj
 0001:0001f0a0       ?CreateCartoonScalingInfo@@YAPAUTAG_CARTOONSCALEINFO@@XZ 004200a0 f   cartoonscaling.obj
 0001:0001f110       ?FireCheese@@YAXPAUTAG_ACTORINSTANCE@@@Z 00420110 f   cheesegun.obj
 0001:0001f3e0       ??0TAG_STINKYCHEESE@@QAE@QAM00M@Z 004203e0 f i cheesegun.obj
 0001:0001f430       ?Init@TAG_STINKYCHEESE@@AAEXQAM00M@Z 00420430 f   cheesegun.obj
 0001:0001f510       ?Update@TAG_STINKYCHEESE@@AAEXXZ 00420510 f   cheesegun.obj
 0001:0001f610       ?StunEnemies@TAG_STINKYCHEESE@@AAEXM@Z 00420610 f   cheesegun.obj
 0001:0001f6a0       ?Draw@TAG_STINKYCHEESE@@AAEXXZ 004206a0 f   cheesegun.obj
 0001:0001f740       ?KillStinkyCheese@@YAXXZ   00420740 f   cheesegun.obj
 0001:0001f780       ?UpdateStinkyCheese@@YAXXZ 00420780 f   cheesegun.obj
 0001:0001f830       ??_GTAG_STINKYCHEESE@@QAEPAXI@Z 00420830 f i cheesegun.obj
 0001:0001f890       ??1TAG_STINKYCHEESE@@QAE@XZ 00420890 f i cheesegun.obj
 0001:0001f8e0       ?DrawStinkyCheese@@YAXXZ   004208e0 f   cheesegun.obj
 0001:0001f950       ?InitCheeseExtraSystem@@YAXXZ 00420950 f   cheesegun.obj
 0001:0001f9b0       ?CheeseExtraCreateCallback@@YAXPAU_TBExtraSystem@@PAEPAD@Z 004209b0 f   cheesegun.obj
 0001:0001fab0       ?CheeseExtraDeleteCallback@@YAHPAU_TBExtraSystem@@PAE@Z 00420ab0 f   cheesegun.obj
 0001:0001fae0       ?CheeseExtraUpdateCallback@@YAXPAU_TBExtraSystem@@HPAPAEM@Z 00420ae0 f   cheesegun.obj
 0001:0001fc50       ?CheeseExtraRenderCallback@@YAXPAU_TBExtraSystem@@HPAPAEPAX@Z 00420c50 f   cheesegun.obj
 0001:0001fd80       ?bmFloatToInt@@YAHM@Z      00420d80 f i cheesegun.obj
 0001:0001fdb0       ?CheeseExtraSystemInitCallback@@YAXPAU_TBExtraSystem@@H@Z 00420db0 f   cheesegun.obj
 0001:0001fdd0       ?getSize@?$LINKEDLIST@VTAG_STINKYCHEESE@@@@QBEHXZ 00420dd0 f i cheesegun.obj
 0001:0001fe00       ??0?$LINKEDLIST@VTAG_STINKYCHEESE@@@@QAE@QAD@Z 00420e00 f i cheesegun.obj
 0001:0001fe50       ?get@?$LINKEDLIST@VTAG_STINKYCHEESE@@@@QBEPAVTAG_STINKYCHEESE@@H@Z 00420e50 f i cheesegun.obj
 0001:0001feb0       ?append@?$LINKEDLIST@VTAG_STINKYCHEESE@@@@QAEPAVTAG_STINKYCHEESE@@QAV2@@Z 00420eb0 f i cheesegun.obj
 0001:0001ffb0       ?remove@?$LINKEDLIST@VTAG_STINKYCHEESE@@@@QAEXQBVTAG_STINKYCHEESE@@@Z 00420fb0 f i cheesegun.obj
 0001:00020010       ?kill@?$LINKEDLIST@VTAG_STINKYCHEESE@@@@QAEXXZ 00421010 f i cheesegun.obj
 0001:000200e0       ?getNode@?$LINKEDLIST@VTAG_STINKYCHEESE@@@@ABEPAV1@QBVTAG_STINKYCHEESE@@@Z 004210e0 f i cheesegun.obj
 0001:00020140       ?getNode@?$LINKEDLIST@VTAG_STINKYCHEESE@@@@ABEPAV1@H@Z 00421140 f i cheesegun.obj
 0001:000201a0       ?removeNode@?$LINKEDLIST@VTAG_STINKYCHEESE@@@@AAEXQAV1@@Z 004211a0 f i cheesegun.obj
 0001:00020240       ??0?$LINKEDLIST@VTAG_STINKYCHEESE@@@@AAE@QAV0@QAVTAG_STINKYCHEESE@@0@Z 00421240 f i cheesegun.obj
 0001:00020290       ?init@?$LINKEDLIST@VTAG_STINKYCHEESE@@@@QAAXQBDZZ 00421290 f i cheesegun.obj
 0001:000202d0       ?InitialiseCloudBank@@YAXXZ 004212d0 f   clouds.obj
 0001:00020310       ?CreateCloudsInSky@@YAHQAMHMHHIPAUTAG_ACTORINSTANCE@@PAU_TBActorNodeInstance@@0@Z 00421310 f   clouds.obj
 0001:00020820       ?AddEntryToCloudBank@@YAPAUTAG_SKYCLOUD@@XZ 00421820 f   clouds.obj
 0001:000208e0       ?DeleteEntryFromCloudBank@@YAHPAUTAG_SKYCLOUD@@@Z 004218e0 f   clouds.obj
 0001:000209b0       ?UpdateCloudsInSky@@YAXXZ  004219b0 f   clouds.obj
 0001:00020c30       ?FreeCloudBank@@YAXXZ      00421c30 f   clouds.obj
 0001:00020d00       ?PrepCloudBank@@YAXXZ      00421d00 f   clouds.obj
 0001:00020d60       ?DrawCloudBankBackground@@YAXXZ 00421d60 f   clouds.obj
 0001:00020e30       ?DrawCloudBankForeground@@YAXXZ 00421e30 f   clouds.obj
 0001:00020ea0       ?CreateInjuryStars@@YAXHPAUTAG_ACTORINSTANCE@@PADQAM2@Z 00421ea0 f   clouds.obj
 0001:00020f20       ?CreateInjuryStars@@YAXQAUTAG_ACTORINSTANCE@@M@Z 00421f20 f   clouds.obj
 0001:00020fa0       ?DestroyInjuryStars@@YAXPAUTAG_ACTORINSTANCE@@@Z 00421fa0 f   clouds.obj
 0001:00021050       ?SetupLevelCostume@@YAXQAUTAG_ACTORINSTANCE@@@Z 00422050 f   costumes.obj
 0001:00021180       ?SetupCostume@@YAHPAUTAG_ACTORINSTANCE@@D@Z 00422180 f   costumes.obj
 0001:00021d10       ?RemoveCostume@@YAHPAUTAG_ACTORINSTANCE@@@Z 00422d10 f   costumes.obj
 0001:00021e10       ?CreateDecal@@YAHPAUTAG_SHADOW@@PAU_TBTexture@@MMEEEEHMM@Z 00422e10 f   decals.obj
 0001:00022100       ??0TAG_COLOUR@@QAE@EEEE@Z  00423100 f i decals.obj
 0001:00022150       ?CreateFloorDecal@@YAHPAU_TBTexture@@QAMMMMABUTAG_COLOUR@@H21MM@Z 00423150 f   decals.obj
 0001:000225f0       ??D@YA?AUTAG_COLOUR@@ABU0@M@Z 004235f0 f i decals.obj
 0001:00022680       ?DeleteDecal@@YAXPAUTAG_DECAL@@@Z 00423680 f   decals.obj
 0001:000226f0       ?DeleteAllDecals@@YAXXZ    004236f0 f   decals.obj
 0001:00022760       ?UpdateDecals@@YAXXZ       00423760 f   decals.obj
 0001:00022c60       ?DrawDecal@@YAXPAUTAG_DECAL@@@Z 00423c60 f   decals.obj
 0001:00022e00       ?DrawAllDecals@@YAXXZ      00423e00 f   decals.obj
 0001:00022ef0       ?getSize@?$LINKEDLIST@UTAG_DECAL@@@@QBEHXZ 00423ef0 f i decals.obj
 0001:00022f20       ??0?$LINKEDLIST@UTAG_DECAL@@@@QAE@QAD@Z 00423f20 f i decals.obj
 0001:00022f70       ?get@?$LINKEDLIST@UTAG_DECAL@@@@QBEPAUTAG_DECAL@@H@Z 00423f70 f i decals.obj
 0001:00022fd0       ?append@?$LINKEDLIST@UTAG_DECAL@@@@QAEPAUTAG_DECAL@@QAU2@@Z 00423fd0 f i decals.obj
 0001:000230d0       ?remove@?$LINKEDLIST@UTAG_DECAL@@@@QAEXQBUTAG_DECAL@@@Z 004240d0 f i decals.obj
 0001:00023130       ?getNode@?$LINKEDLIST@UTAG_DECAL@@@@ABEPAV1@QBUTAG_DECAL@@@Z 00424130 f i decals.obj
 0001:00023190       ?getNode@?$LINKEDLIST@UTAG_DECAL@@@@ABEPAV1@H@Z 00424190 f i decals.obj
 0001:000231f0       ?removeNode@?$LINKEDLIST@UTAG_DECAL@@@@AAEXQAV1@@Z 004241f0 f i decals.obj
 0001:00023290       ??0?$LINKEDLIST@UTAG_DECAL@@@@AAE@QAV0@QAUTAG_DECAL@@0@Z 00424290 f i decals.obj
 0001:000232e0       ?init@?$LINKEDLIST@UTAG_DECAL@@@@QAAXQBDZZ 004242e0 f i decals.obj
 0001:00023320       ?bmVector2DScaleToLength@@YAXQAMQBMM@Z 00424320 f i decals.obj
 0001:00023380       ?bmVector2DLen@@YAMQBM@Z   00424380 f i decals.obj
 0001:000233d0       ??0TAG_EATING@@QAE@XZ      004243d0 f   eating.obj
 0001:00023410       ??1TAG_EATING@@QAE@XZ      00424410 f   eating.obj
 0001:00023490       ?AddItem@TAG_EATING@@QAEXPAU_TBActorInstance@@@Z 00424490 f   eating.obj
 0001:00023540       ?Update@TAG_EATING@@QAEXPAUTAG_ACTORINSTANCE@@@Z 00424540 f   eating.obj
 0001:00023810       ?Draw@TAG_EATING@@QAEXXZ   00424810 f   eating.obj
 0001:00023880       ?getSize@?$LINKEDLIST@UTAG_EATITEM@@@@QBEHXZ 00424880 f i eating.obj
 0001:000238b0       ??0?$LINKEDLIST@UTAG_EATITEM@@@@QAE@QAD@Z 004248b0 f i eating.obj
 0001:00023900       ?get@?$LINKEDLIST@UTAG_EATITEM@@@@QBEPAUTAG_EATITEM@@H@Z 00424900 f i eating.obj
 0001:00023960       ?append@?$LINKEDLIST@UTAG_EATITEM@@@@QAEPAUTAG_EATITEM@@QAU2@@Z 00424960 f i eating.obj
 0001:00023a60       ?remove@?$LINKEDLIST@UTAG_EATITEM@@@@QAEXQBUTAG_EATITEM@@@Z 00424a60 f i eating.obj
 0001:00023ac0       ?getNode@?$LINKEDLIST@UTAG_EATITEM@@@@ABEPAV1@QBUTAG_EATITEM@@@Z 00424ac0 f i eating.obj
 0001:00023b20       ?getNode@?$LINKEDLIST@UTAG_EATITEM@@@@ABEPAV1@H@Z 00424b20 f i eating.obj
 0001:00023b80       ?removeNode@?$LINKEDLIST@UTAG_EATITEM@@@@AAEXQAV1@@Z 00424b80 f i eating.obj
 0001:00023c20       ??0?$LINKEDLIST@UTAG_EATITEM@@@@AAE@QAV0@QAUTAG_EATITEM@@0@Z 00424c20 f i eating.obj
 0001:00023c70       ?init@?$LINKEDLIST@UTAG_EATITEM@@@@QAAXQBDZZ 00424c70 f i eating.obj
 0001:00023d20       ?InitEffectsList@@YAXXZ    00424d20 f   effects.obj
 0001:00023d60       ?AddEntryToEffectsList@@YAXQAM0MI@Z 00424d60 f   effects.obj
 0001:00023e60       ?RemoveObjectFromEffectsList@@YAHPAUTAG_EFFECTSLISTENTRY@@@Z 00424e60 f   effects.obj
 0001:00023f10       ?UpdateEffectsList@@YAXPAUTAG_EFFECTSLIST@@@Z 00424f10 f   effects.obj
 0001:00024030       ?FreeAllEffectsFromList@@YAXXZ 00425030 f   effects.obj
 0001:000240d0       ?FreeAllMirrors@@YAXXZ     004250d0 f   effects.obj
 0001:00024160       ??_GTAG_MIRROR@@QAEPAXI@Z  00425160 f i effects.obj
 0001:000241c0       ??1TAG_MIRROR@@QAE@XZ      004251c0 f i effects.obj
 0001:00024200       ?DrawAllMirrors@@YAXPAUTAG_ACTORINSTANCE@@@Z 00425200 f   effects.obj
 0001:00024290       ?FreeMirror@@YAXPAUTAG_ACTORINSTANCE@@@Z 00425290 f   effects.obj
 0001:00024330       ?DrawInstance@TAG_MIRROR@@AAEXPAUTAG_ACTORINSTANCE@@I@Z 00425330 f   effects.obj
 0001:00024870       ??0TAG_MIRROR@@QAE@PAUTAG_ACTORINSTANCE@@@Z 00425870 f   effects.obj
 0001:00024970       ?getSize@?$LINKEDLIST@VTAG_MIRROR@@@@QBEHXZ 00425970 f i effects.obj
 0001:000249a0       ??0?$LINKEDLIST@VTAG_MIRROR@@@@QAE@QAD@Z 004259a0 f i effects.obj
 0001:000249f0       ?get@?$LINKEDLIST@VTAG_MIRROR@@@@QBEPAVTAG_MIRROR@@H@Z 004259f0 f i effects.obj
 0001:00024a50       ?append@?$LINKEDLIST@VTAG_MIRROR@@@@QAEPAVTAG_MIRROR@@QAV2@@Z 00425a50 f i effects.obj
 0001:00024b50       ?remove@?$LINKEDLIST@VTAG_MIRROR@@@@QAEXQBVTAG_MIRROR@@@Z 00425b50 f i effects.obj
 0001:00024bb0       ?getNode@?$LINKEDLIST@VTAG_MIRROR@@@@ABEPAV1@QBVTAG_MIRROR@@@Z 00425bb0 f i effects.obj
 0001:00024c10       ?getNode@?$LINKEDLIST@VTAG_MIRROR@@@@ABEPAV1@H@Z 00425c10 f i effects.obj
 0001:00024c70       ?removeNode@?$LINKEDLIST@VTAG_MIRROR@@@@AAEXQAV1@@Z 00425c70 f i effects.obj
 0001:00024d10       ??0?$LINKEDLIST@VTAG_MIRROR@@@@AAE@QAV0@QAVTAG_MIRROR@@0@Z 00425d10 f i effects.obj
 0001:00024d60       ?init@?$LINKEDLIST@VTAG_MIRROR@@@@QAAXQBDZZ 00425d60 f i effects.obj
 0001:00024da0       ?CreateHighVoltageObject@@YAHPAUTAG_ACTORINSTANCE@@HD@Z 00425da0 f   electrocution.obj
 0001:00024eb0       ?CreateHighVoltageInfo@@YAHPAUTAG_ACTORINSTANCE@@@Z 00425eb0 f   electrocution.obj
 0001:00024f30       ?UpdateHighVoltageObject@@YAXPAUTAG_ACTORINSTANCE@@@Z 00425f30 f   electrocution.obj
 0001:00024f50       ?RespondToHighVoltageCollision@@YAHPAUTAG_ACTORINSTANCE@@0@Z 00425f50 f   electrocution.obj
 0001:00025310       ?UpdateElectrocutionEffect@@YAXPAUTAG_ACTORINSTANCE@@@Z 00426310 f   electrocution.obj
 0001:000253c0       ?SetupEnvMapSpecial@@YAHPAUTAG_ENVMAP@@MPAD11MM@Z 004263c0 f   envmap.obj
 0001:00025970       ?SetupEnvMap@@YAHPAUTAG_ENVMAP@@MPAD11111@Z 00426970 f   envmap.obj
 0001:00025ce0       ?PrepareEnvMap@@YAXPAUTAG_ENVMAP@@QAM@Z 00426ce0 f   envmap.obj
 0001:00025d20       ?RenderEnvMap@@YAXPAUTAG_ENVMAP@@@Z 00426d20 f   envmap.obj
 0001:00025f20       ?StartExplosion@@YAXQAMMMPADIH@Z 00426f20 f   explode.obj
 0001:00025f90       ?StartCartoonExplosion@@YAXQAMMMH@Z 00426f90 f   explode.obj
 0001:00026070       ?InitExplosionExtraSystem@@YAXXZ 00427070 f   explode.obj
 0001:000260d0       ?ExplosionExtraCreateCallback@@YAXPAU_TBExtraSystem@@PAEPAD@Z 004270d0 f   explode.obj
 0001:000262c0       ?ExplosionExtraDeleteCallback@@YAHPAU_TBExtraSystem@@PAE@Z 004272c0 f   explode.obj
 0001:00026330       ?ExplosionExtraUpdateCallback@@YAXPAU_TBExtraSystem@@HPAPAEM@Z 00427330 f   explode.obj
 0001:00026450       ?ExplosionExtraRenderCallback@@YAXPAU_TBExtraSystem@@HPAPAEPAX@Z 00427450 f   explode.obj
 0001:00026540       ?ExplosionExtraSystemInitCallback@@YAXPAU_TBExtraSystem@@H@Z 00427540 f   explode.obj
 0001:000265d0       ?init@TAG_PEXPARTICLE@@QAEXQAM0MQAUTAG_POSTEREXPLOSION@@@Z 004275d0 f   explode.obj
 0001:000266a0       ?bmRandf@@YAMXZ            004276a0 f i explode.obj
 0001:000266e0       ?update@TAG_PEXPARTICLE@@QAEXAAV?$LOOPARRAY@UTAG_PEXPARTICLE@@$0PK@@@@Z 004276e0 f   explode.obj
 0001:00026c00       ?draw@TAG_PEXPARTICLE@@QAEXXZ 00427c00 f   explode.obj
 0001:00026d30       ?init@TAG_POSTEREXPLOSION@@QAEXQBMM@Z 00427d30 f   explode.obj
 0001:00026e40       ?init@TAG_PEXPARTICLE@@QAEXXZ 00427e40 f i explode.obj
 0001:00026e70       ?draw@TAG_POSTEREXPLOSION@@QAEXXZ 00427e70 f   explode.obj
 0001:00026f00       ?reshape@TAG_POSTEREXPLOSION@@QAEXXZ 00427f00 f   explode.obj
 0001:00026ff0       ?bmVectorZero@@YAXQAM@Z    00427ff0 f i explode.obj
 0001:00027040       ?update@TAG_POSTEREXPLOSION@@QAEXXZ 00428040 f   explode.obj
 0001:00027390       ?bmRandfSigned@@YAMXZ      00428390 f i explode.obj
 0001:000273d0       ?InitPosterExplosions@@YAXXZ 004283d0 f   explode.obj
 0001:00027430       ?CreatePosterExplosion@@YAXQBMM@Z 00428430 f   explode.obj
 0001:00027480       ?CreatePosterExplosion@@YAXQBUTAG_ACTORINSTANCE@@@Z 00428480 f   explode.obj
 0001:000274e0       ?UpdatePosterExplosions@@YAXXZ 004284e0 f   explode.obj
 0001:00027590       ?DrawPosterExplosions@@YAXXZ 00428590 f   explode.obj
 0001:00027670       ?init@?$LOOPARRAY@UTAG_PEXPARTICLE@@$0PK@@@QAEXQBD@Z 00428670 f i explode.obj
 0001:000276d0       ?getNew@?$LOOPARRAY@UTAG_PEXPARTICLE@@$0PK@@@QAEPAUTAG_PEXPARTICLE@@H@Z 004286d0 f i explode.obj
 0001:00027840       ?discardOldest@?$LOOPARRAY@UTAG_PEXPARTICLE@@$0PK@@@QAEXH@Z 00428840 f i explode.obj
 0001:00027900       ??0?$LOOPARRAY@UTAG_POSTEREXPLOSION@@$00@@QAE@QBD@Z 00428900 f i explode.obj
 0001:00027960       ??0TAG_POSTEREXPLOSION@@QAE@XZ 00428960 f i explode.obj
 0001:000279a0       ??0?$LOOPARRAY@UTAG_PEXPARTICLE@@$0PK@@@QAE@QBD@Z 004289a0 f i explode.obj
 0001:00027a00       ??0TAG_PEXPARTICLE@@QAE@XZ 00428a00 f i explode.obj
 0001:00027a50       ?getNew@?$LOOPARRAY@UTAG_POSTEREXPLOSION@@$00@@QAEPAUTAG_POSTEREXPLOSION@@H@Z 00428a50 f i explode.obj
 0001:00027bc0       ?discardOldest@?$LOOPARRAY@UTAG_POSTEREXPLOSION@@$00@@QAEXH@Z 00428bc0 f i explode.obj
 0001:00027c80       ?init@?$LOOPARRAY@UTAG_POSTEREXPLOSION@@$00@@QAEXQBD@Z 00428c80 f i explode.obj
 0001:00027ce0       ?InitFade@@YAXPAUTAG_FADE@@@Z 00428ce0 f   fade.obj
 0001:000285f0       ?DrawFade@@YAXPAUTAG_CAMERAINFO@@@Z 004295f0 f   fade.obj
 0001:000288a0       ?UpdateFade@@YAXPAUTAG_CAMERAINFO@@@Z 004298a0 f   fade.obj
 0001:00029150       ?StartFadeDown@@YAXPAUTAG_FADE@@HM@Z 0042a150 f   fade.obj
 0001:000291d0       ?StartFadeUp@@YAXPAUTAG_FADE@@HM@Z 0042a1d0 f   fade.obj
 0001:00029250       ?FadeAndChangeScene@@YAXPAUTAG_FADE@@PAUTAG_GAMESTATUS@@HHM@Z 0042a250 f   fade.obj
 0001:000292b0       ?FinishedFade@@YAHPAUTAG_FADE@@@Z 0042a2b0 f   fade.obj
 0001:00029320       ?SetFadeState@@YAXPAUTAG_FADE@@@Z 0042a320 f   fade.obj
 0001:000298c0       ?SetSwipeDirection@@YAXPAUTAG_FADE@@MM@Z 0042a8c0 f   fade.obj
 0001:00029900       ?SetCircleFadeTo@@YAXPAUTAG_FADE@@MM@Z 0042a900 f   fade.obj
 0001:00029960       ?GetFadeState@@YAHPAUTAG_FADE@@@Z 0042a960 f   fade.obj
 0001:00029990       ?SetFadeUpFinishedCallback@@YAXPAUTAG_FADE@@P6AX0@Z@Z 0042a990 f   fade.obj
 0001:000299c0       ?SetFadeDownFinishedCallback@@YAXPAUTAG_FADE@@P6AX0@Z@Z 0042a9c0 f   fade.obj
 0001:000299f0       ?SetFadeTint@@YAXPAUTAG_FADE@@EEEE@Z 0042a9f0 f   fade.obj
 0001:00029b60       ?CreateFireInstance@@YAHPAUTAG_ACTORINSTANCE@@M@Z 0042ab60 f   fire.obj
 0001:00029c30       ?CreateFireInfo@@YAPAUTAG_FIREINFO@@XZ 0042ac30 f   fire.obj
 0001:00029ca0       ?UpdateFireInstances@@YAXPAUTAG_ACTORINSTANCE@@@Z 0042aca0 f   fire.obj
 0001:00029cf0       ?CreateFireParticleEffect@@YAXPAUTAG_ACTORINSTANCE@@@Z 0042acf0 f   fire.obj
 0001:00029ed0       ?CreateFireExtrasVertexList@@YAXPAUTAG_FIREEXTRAS@@@Z 0042aed0 f   fire.obj
 0001:0002a0c0       ?InitFireExtraSystem@@YAXXZ 0042b0c0 f   fire.obj
 0001:0002a130       ?FireExtraCreateCallback@@YAXPAU_TBExtraSystem@@PAEPAD@Z 0042b130 f   fire.obj
 0001:0002a3c0       ?FireExtraDeleteCallback@@YAHPAU_TBExtraSystem@@PAE@Z 0042b3c0 f   fire.obj
 0001:0002a3f0       ?FireExtraUpdateCallback@@YAXPAU_TBExtraSystem@@HPAPAEM@Z 0042b3f0 f   fire.obj
 0001:0002a890       ?FireExtraRenderCallback@@YAXPAU_TBExtraSystem@@HPAPAEPAX@Z 0042b890 f   fire.obj
 0001:0002abb0       ?FireExtraSystemInitCallback@@YAXPAU_TBExtraSystem@@H@Z 0042bbb0 f   fire.obj
 0001:0002abd0       ?TBPrimVertexCopy@@YAXPAU_TBPrimVertex@@0@Z 0042bbd0 f   fire.obj
 0001:0002ad20       ?CreateFireworkBurst@@YAXQAMW4EFirework@@HHHI@Z 0042bd20 f   fireworks.obj
 0001:0002aed0       ?InitFireworksExtraSystem@@YAXXZ 0042bed0 f   fireworks.obj
 0001:0002af30       ?FireworksExtraCreateCallback@@YAXPAU_TBExtraSystem@@PAEPAD@Z 0042bf30 f   fireworks.obj
 0001:0002b4d0       ?FireworksExtraDeleteCallback@@YAHPAU_TBExtraSystem@@PAE@Z 0042c4d0 f   fireworks.obj
 0001:0002b500       ?FireworksExtraUpdateCallback@@YAXPAU_TBExtraSystem@@HPAPAEM@Z 0042c500 f   fireworks.obj
 0001:0002b9c0       ?FireworksExtraRenderCallback@@YAXPAU_TBExtraSystem@@HPAPAEPAX@Z 0042c9c0 f   fireworks.obj
 0001:0002be20       ?FireworksExtraSystemInitCallback@@YAXPAU_TBExtraSystem@@H@Z 0042ce20 f   fireworks.obj
 0001:0002beb0       ??0TAG_FLYGROUP@@QAE@QAMUTAG_COLOUR@@HW4_FlyType@@@Z 0042ceb0 f   Flies.obj
 0001:0002c1f0       ??_U@YAPAXIPADHG@Z         0042d1f0 f i Flies.obj
 0001:0002c240       ??1TAG_FLYGROUP@@QAE@XZ    0042d240 f   Flies.obj
 0001:0002c2a0       ?draw@TAG_FLYGROUP@@QAEXQBUTAG_CAMERAINFO@@@Z 0042d2a0 f   Flies.obj
 0001:0002c3d0       ?update@TAG_FLYGROUP@@QAEXXZ 0042d3d0 f   Flies.obj
 0001:0002c640       ?Flies_addGroup@@YAXQAMUTAG_COLOUR@@HW4_FlyType@@@Z 0042d640 f   Flies.obj
 0001:0002c720       ?Flies_draw@@YAXQBUTAG_CAMERAINFO@@@Z 0042d720 f   Flies.obj
 0001:0002c800       ?Flies_update@@YAXXZ       0042d800 f   Flies.obj
 0001:0002c870       ?Flies_shutdown@@YAXXZ     0042d870 f   Flies.obj
 0001:0002c8b0       ?getSize@?$LINKEDLIST@UTAG_FLYGROUP@@@@QBEHXZ 0042d8b0 f i Flies.obj
 0001:0002c8e0       ??0?$LINKEDLIST@UTAG_FLYGROUP@@@@QAE@QAD@Z 0042d8e0 f i Flies.obj
 0001:0002c930       ?get@?$LINKEDLIST@UTAG_FLYGROUP@@@@QBEPAUTAG_FLYGROUP@@H@Z 0042d930 f i Flies.obj
 0001:0002c990       ?append@?$LINKEDLIST@UTAG_FLYGROUP@@@@QAEPAUTAG_FLYGROUP@@QAU2@@Z 0042d990 f i Flies.obj
 0001:0002ca90       ?kill@?$LINKEDLIST@UTAG_FLYGROUP@@@@QAEXXZ 0042da90 f i Flies.obj
 0001:0002cb60       ??_GTAG_FLYGROUP@@QAEPAXI@Z 0042db60 f i Flies.obj
 0001:0002cbc0       ?getNode@?$LINKEDLIST@UTAG_FLYGROUP@@@@ABEPAV1@H@Z 0042dbc0 f i Flies.obj
 0001:0002cc20       ??0?$LINKEDLIST@UTAG_FLYGROUP@@@@AAE@QAV0@QAUTAG_FLYGROUP@@0@Z 0042dc20 f i Flies.obj
 0001:0002cc70       ?init@?$LINKEDLIST@UTAG_FLYGROUP@@@@QAAXQBDZZ 0042dc70 f i Flies.obj
 0001:0002ccb0       ?CreateFlockers@@YAHPAUTAG_ACTORINSTANCE@@PAUTAG_BOUNDINGBOX@@PADMHII@Z 0042dcb0 f   flocking.obj
 0001:0002d260       ?CreateFlockStructure@@YAPAUTAG_FLOCKINGINFO@@H@Z 0042e260 f   flocking.obj
 0001:0002d3c0       ?PrepFlockers@@YAXPAUTAG_ACTORINSTANCELIST@@@Z 0042e3c0 f   flocking.obj
 0001:0002d4b0       ?UpdateFlockers@@YAXPAUTAG_ACTORINSTANCE@@@Z 0042e4b0 f   flocking.obj
 0001:0002de50       ?bmACos@@YAMM@Z            0042ee50 f i flocking.obj
 0001:0002de90       ?DrawFlockers@@YAXPAUTAG_ACTORINSTANCELIST@@@Z 0042ee90 f   flocking.obj
 0001:0002e050       ?DrawFlockers2@@YAXPAUTAG_ACTORINSTANCELIST@@@Z 0042f050 f   flocking.obj
 0001:0002e1f0       ?CheckForFlockerCollidingWithTazSpitObject@@YAXPAUTAG_DEBRIS@@@Z 0042f1f0 f   flocking.obj
 0001:0002e520       ?AlignNodeWithPolys@@YA_NPAU_TBActorInstance@@PADPAY03MH@Z 0042f520 f   footalign.obj
 0001:0002e750       ?Glare_drawDirectional@@YAMQBUTAG_CAMERAINFO@@QBMABUTAG_COLOUR@@M@Z 0042f750 f   Glare.obj
 0001:0002ea40       ?CreateHaarObject@@YAHPAUTAG_ACTORINSTANCE@@MMMM@Z 0042fa40 f   haar.obj
 0001:0002ef20       ?FreeHaarObject@@YAXPAUTAG_ACTORINSTANCE@@@Z 0042ff20 f   haar.obj
 0001:0002ef90       ?ChooseRandomPositionWithinBoundingBox@@YAXQAMPAU_TBActorInstance@@@Z 0042ff90 f   haar.obj
 0001:0002f080       ?InitHaarExtraSystem@@YAXXZ 00430080 f   haar.obj
 0001:0002f0e0       ?HaarExtraCreateCallback@@YAXPAU_TBExtraSystem@@PAEPAD@Z 004300e0 f   haar.obj
 0001:0002f450       ?HaarExtraDeleteCallback@@YAHPAU_TBExtraSystem@@PAE@Z 00430450 f   haar.obj
 0001:0002f480       ?HaarExtraUpdateCallback@@YAXPAU_TBExtraSystem@@HPAPAEM@Z 00430480 f   haar.obj
 0001:0002f570       ?HaarExtraRenderCallback@@YAXPAU_TBExtraSystem@@HPAPAEPAX@Z 00430570 f   haar.obj
 0001:0002f670       ?HaarExtraSystemInitCallback@@YAXPAU_TBExtraSystem@@H@Z 00430670 f   haar.obj
 0001:0002f690       ?CreateImpactClouds@@YAHQAM00MMMI@Z 00430690 f   holysmoke.obj
 0001:0002f7e0       ?InitSkidSmoke@@YAXQAM0MMM@Z 004307e0 f   holysmoke.obj
 0001:0002f970       ?InitSpinSmoke@@YAXQAM0MMM@Z 00430970 f   holysmoke.obj
 0001:0002fb50       ?InitFallSmoke@@YAXQAM0MMM@Z 00430b50 f   holysmoke.obj
 0001:0002fd10       ?InitExplosionSmoke@@YAXQAM0MMM@Z 00430d10 f   holysmoke.obj
 0001:0002fed0       ?UpdateImpactClouds@@YAXPAUTAG_DEBRIS@@@Z 00430ed0 f   holysmoke.obj
 0001:00030040       ?UpdateExplosionSmoke@@YAXPAUTAG_DEBRIS@@@Z 00431040 f   holysmoke.obj
 0001:00030120       ?DrawSmokeAtNodeInstance@@YAXPAUTAG_ACTORINSTANCE@@PADI@Z 00431120 f   holysmoke.obj
 0001:00030210       ?update@FUSESMOKE@@QAEXXZ  00431210 f   holysmoke.obj
 0001:00030270       ?init@FUSESMOKESECTION@@QAEXQBM@Z 00431270 f i holysmoke.obj
 0001:000302b0       ?draw@FUSESMOKE@@QAEXXZ    004312b0 f   holysmoke.obj
 0001:00030300       ?InitFuseSmoke@@YAXQAM@Z   00431300 f   holysmoke.obj
 0001:00030340       ?UpdateFuseSmoke@@YAXXZ    00431340 f   holysmoke.obj
 0001:000303f0       ?DrawFuseSmoke@@YAXXZ      004313f0 f   holysmoke.obj
 0001:000304d0       ?getNew@?$LOOPARRAY@VFUSESMOKESECTION@@$0BO@@@QAEPAVFUSESMOKESECTION@@H@Z 004314d0 f i holysmoke.obj
 0001:00030640       ??0?$LOOPARRAY@VFUSESMOKE@@$04@@QAE@QBD@Z 00431640 f i holysmoke.obj
 0001:000306a0       ?getNew@?$LOOPARRAY@VFUSESMOKE@@$04@@QAEPAVFUSESMOKE@@H@Z 004316a0 f i holysmoke.obj
 0001:00030810       ?discardOldest@?$LOOPARRAY@VFUSESMOKE@@$04@@QAEXH@Z 00431810 f i holysmoke.obj
 0001:000308d0       ??0FUSESMOKE@@QAE@XZ       004318d0 f i holysmoke.obj
 0001:00030920       ??0?$LOOPARRAY@VFUSESMOKESECTION@@$0BO@@@QAE@QBD@Z 00431920 f i holysmoke.obj
 0001:00030960       ?discardOldest@?$LOOPARRAY@VFUSESMOKESECTION@@$0BO@@@QAEXH@Z 00431960 f i holysmoke.obj
 0001:00030a20       ??0?$LOOPARRAY@U_TBPrimVertex@@$0BO@@@QAE@QBD@Z 00431a20 f i holysmoke.obj
 0001:00030a60       ?init@?$LOOPARRAY@VFUSESMOKE@@$04@@QAEXQBD@Z 00431a60 f i holysmoke.obj
 0001:00030ac0       ?init@?$LOOPARRAY@VFUSESMOKESECTION@@$0BO@@@QAEXQBD@Z 00431ac0 f i holysmoke.obj
 0001:00030b20       ?init@?$LOOPARRAY@U_TBPrimVertex@@$0BO@@@QAEXQBD@Z 00431b20 f i holysmoke.obj
 0001:00030b80       ?CreateLaser@@YAHDPAD00MPAVCPMNode@@1@Z 00431b80 f   laser.obj
 0001:00030ca0       ?DrawLaser@@YAXPAUTAG_ACTORINSTANCELIST@@@Z 00431ca0 f   laser.obj
 0001:00030ff0       ?CreateLaserBeam@@YAPAUTAG_LASERBEAM@@QAM0M@Z 00431ff0 f   laser.obj
 0001:000310a0       ?UpdateLaserBeams@@YAXXZ   004320a0 f   laser.obj
 0001:00031170       ?DrawLaserBeams@@YAXXZ     00432170 f   laser.obj
 0001:000312f0       ?DeleteLaserBeams@@YAXXZ   004322f0 f   laser.obj
 0001:00031330       ?getSize@?$LINKEDLIST@UTAG_LASERBEAM@@@@QBEHXZ 00432330 f i laser.obj
 0001:00031360       ??0?$LINKEDLIST@UTAG_LASERBEAM@@@@QAE@QAD@Z 00432360 f i laser.obj
 0001:000313b0       ?get@?$LINKEDLIST@UTAG_LASERBEAM@@@@QBEPAUTAG_LASERBEAM@@H@Z 004323b0 f i laser.obj
 0001:00031410       ?append@?$LINKEDLIST@UTAG_LASERBEAM@@@@QAEPAUTAG_LASERBEAM@@QAU2@@Z 00432410 f i laser.obj
 0001:00031510       ?remove@?$LINKEDLIST@UTAG_LASERBEAM@@@@QAEXQBUTAG_LASERBEAM@@@Z 00432510 f i laser.obj
 0001:00031570       ?kill@?$LINKEDLIST@UTAG_LASERBEAM@@@@QAEXXZ 00432570 f i laser.obj
 0001:00031630       ?getNode@?$LINKEDLIST@UTAG_LASERBEAM@@@@ABEPAV1@QBUTAG_LASERBEAM@@@Z 00432630 f i laser.obj
 0001:00031690       ?getNode@?$LINKEDLIST@UTAG_LASERBEAM@@@@ABEPAV1@H@Z 00432690 f i laser.obj
 0001:000316f0       ?removeNode@?$LINKEDLIST@UTAG_LASERBEAM@@@@AAEXQAV1@@Z 004326f0 f i laser.obj
 0001:00031790       ??0?$LINKEDLIST@UTAG_LASERBEAM@@@@AAE@QAV0@QAUTAG_LASERBEAM@@0@Z 00432790 f i laser.obj
 0001:000317e0       ?init@?$LINKEDLIST@UTAG_LASERBEAM@@@@QAAXQBDZZ 004327e0 f i laser.obj
 0001:00031820       ?CreateLightning@@YAHPAD0PAVCPMNode@@1@Z 00432820 f   lightning.obj
 0001:00031950       ?CreateLightningInfo@@YAPAUTAG_LIGHTNINGINFO@@XZ 00432950 f   lightning.obj
 0001:000319c0       ?UpdateLightning@@YAXPAUTAG_ACTORINSTANCE@@0@Z 004329c0 f   lightning.obj
 0001:00031c30       ?CreateLightningNodePoints@@YAXPAUTAG_LIGHTNINGINFO@@PAUTAG_ACTORINSTANCE@@@Z 00432c30 f   lightning.obj
 0001:00032060       ?DrawLightning@@YAXPAUTAG_ACTORINSTANCELIST@@@Z 00433060 f   lightning.obj
 0001:00032400       ?bmVectorCross@@YAXQAMQBM1@Z 00433400 f i lightning.obj
 0001:00032490       ?InitCartoonLight@@YAXPAD@Z 00433490 f   lights.obj
 0001:00032600       ?UpdateCartoonLight@@YAXPAUTAG_CAMERAINFO@@@Z 00433600 f   lights.obj
 0001:00032630       ?UpdateCartoonLight@@YAXQBMABUTAG_COLOUR@@@Z 00433630 f   lights.obj
 0001:000326b0       ?SetLightRamp@@YAXW4_LightRamp@@@Z 004336b0 f   lights.obj
 0001:000326e0       ?DestroyCartoonLight@@YAXXZ 004336e0 f   lights.obj
 0001:00032790       ??0TAG_MFXMARQUEE@@QAE@XZ  00433790 f i MonitorFX.obj
 0001:000327e0       ??0TAG_MONITOREFFECT@@QAE@XZ 004337e0 f i MonitorFX.obj
 0001:00032810       ?draw@TAG_MONITOREFFECT@@UAEXXZ 00433810 f i MonitorFX.obj
 0001:00032840       ?update@TAG_MONITOREFFECT@@UAEXXZ 00433840 f i MonitorFX.obj
 0001:000328e0       ??0TAG_MFXMYSTIFY@@QAE@XZ  004338e0 f i MonitorFX.obj
 0001:000329a0       ??0TAG_MFXFLYINGWINDOWS@@QAE@XZ 004339a0 f i MonitorFX.obj
 0001:00032a60       ??0TAG_MFXFLYINGOBJECTS@@QAE@XZ 00433a60 f i MonitorFX.obj
 0001:00032b20       ??0TAG_MFXWATCH@@QAE@XZ    00433b20 f i MonitorFX.obj
 0001:00032b70       ?CreateMonitorObject@@YAHQAUTAG_ACTORINSTANCE@@@Z 00433b70 f   MonitorFX.obj
 0001:00032ff0       ??0TAG_MFXFLYINGOBJECTS@@QAE@MMMMMMM@Z 00433ff0 f i MonitorFX.obj
 0001:00033060       ??0TAG_MFXFLYINGWINDOWS@@QAE@MMMMMMM@Z 00434060 f i MonitorFX.obj
 0001:000330d0       ??0TAG_MFXMYSTIFY@@QAE@MMMMMMM@Z 004340d0 f i MonitorFX.obj
 0001:00033140       ??0TAG_MFXMARQUEE@@QAE@MMMMMMM@Z 00434140 f i MonitorFX.obj
 0001:000331b0       ?CreateMonitorInfo@@YAPAUTAG_MONITOREFFECTINFO@@XZ 004341b0 f   MonitorFX.obj
 0001:00033220       ?MonitorFX_drawInstanceList@@YAXQAUTAG_ACTORINSTANCELIST@@@Z 00434220 f   MonitorFX.obj
 0001:000332c0       ?MonitorFX_update@@YAXQAUTAG_ACTORINSTANCELIST@@@Z 004342c0 f   MonitorFX.obj
 0001:00033360       ?MonitorFX_drawTest@@YAXXZ 00434360 f   MonitorFX.obj
 0001:000333e0       ?MonitorFX_updateTest@@YAXXZ 004343e0 f   MonitorFX.obj
 0001:000334c0       ?MonitorFX_init@@YAXXZ     004344c0 f   MonitorFX.obj
 0001:000334e0       ?init@TAG_MFXFLYINGOBJECTS@@QAEXMMMMMMM@Z 004344e0 f   MonitorFX.obj
 0001:00033670       ?draw@TAG_MFXFLYINGOBJECTS@@UAEXXZ 00434670 f   MonitorFX.obj
 0001:000339f0       ?drawBackground@TAG_MONITOREFFECT@@IAEXEEEMM@Z 004349f0 f i MonitorFX.obj
 0001:00033c30       ?update@TAG_MFXFLYINGOBJECTS@@UAEXXZ 00434c30 f   MonitorFX.obj
 0001:00033e00       _fmodf                     00434e00 f i MonitorFX.obj
 0001:00033e50       ?timeToUpdate@TAG_MONITOREFFECT@@IAE_NAAM@Z 00434e50 f i MonitorFX.obj
 0001:00033ec0       ?init@TAG_MFXFLYINGWINDOWS@@QAEXMMMMMMM@Z 00434ec0 f   MonitorFX.obj
 0001:00034150       ?update@TAG_MFXFLYINGWINDOWS@@UAEXXZ 00435150 f   MonitorFX.obj
 0001:000347c0       ?draw@TAG_MFXFLYINGWINDOWS@@UAEXXZ 004357c0 f   MonitorFX.obj
 0001:00034b60       ?init@TAG_MFXMYSTIFY@@QAEXMMMMMMM@Z 00435b60 f   MonitorFX.obj
 0001:00034fc0       ?update@TAG_MFXMYSTIFY@@UAEXXZ 00435fc0 f   MonitorFX.obj
 0001:00035320       ?draw@TAG_MFXMYSTIFY@@UAEXXZ 00436320 f   MonitorFX.obj
 0001:000357e0       ?init@TAG_MFXMARQUEE@@QAEXMMMMMMM@Z 004367e0 f   MonitorFX.obj
 0001:00035b00       ?update@TAG_MFXMARQUEE@@UAEXXZ 00436b00 f   MonitorFX.obj
 0001:00035c30       ?draw@TAG_MFXMARQUEE@@UAEXXZ 00436c30 f   MonitorFX.obj
 0001:00035d80       ?init@TAG_MFXWATCH@@QAEXMMMMMMM@Z 00436d80 f   MonitorFX.obj
 0001:00035db0       ?init@TAG_MFXWATCH@@QAEXQAUTAG_ACTORINSTANCE@@H@Z 00436db0 f   MonitorFX.obj
 0001:00035ea0       ?draw@TAG_MFXWATCH@@UAEXXZ 00436ea0 f   MonitorFX.obj
 0001:00036500       ?update@TAG_MFXWATCH@@UAEXXZ 00437500 f   MonitorFX.obj
 0001:00036730       ?shutdown@TAG_MFXWATCH@@QAEXXZ 00437730 f   MonitorFX.obj
 0001:00036770       ?StartPhoneBoxEffect@@YAHPAUTAG_ACTORINSTANCE@@@Z 00437770 f   phoneboxeffect.obj
 0001:00036840       ?UpdatePhoneBoxEffect@@YAXPAUTAG_ACTORINSTANCE@@@Z 00437840 f   phoneboxeffect.obj
 0001:000369a0       ?EndPhoneBoxEffect@@YAXPAUTAG_ACTORINSTANCE@@@Z 004379a0 f   phoneboxeffect.obj
 0001:00036a40       ?InitPhoneBoxExtraSystem@@YAXXZ 00437a40 f   phoneboxeffect.obj
 0001:00036aa0       ?PhoneBoxExtraCreateCallback@@YAXPAU_TBExtraSystem@@PAEPAD@Z 00437aa0 f   phoneboxeffect.obj
 0001:00036ce0       ?PhoneBoxExtraDeleteCallback@@YAHPAU_TBExtraSystem@@PAE@Z 00437ce0 f   phoneboxeffect.obj
 0001:00036d10       ?PhoneBoxExtraUpdateCallback@@YAXPAU_TBExtraSystem@@HPAPAEM@Z 00437d10 f   phoneboxeffect.obj
 0001:00036fc0       ?PhoneBoxExtraRenderCallback@@YAXPAU_TBExtraSystem@@HPAPAEPAX@Z 00437fc0 f   phoneboxeffect.obj
 0001:00037120       ?PhoneBoxPhoneBoxExtraSystemInitCallback@@YAXPAU_TBExtraSystem@@H@Z 00438120 f   phoneboxeffect.obj
 0001:00037140       ?CreatePolyLevelCopyOfActorInstance@@YAHPAUTAG_COLLISIONCACHE@@PAUTAG_POLYEFFECTSLIST@@PAUTAG_ACTORINSTANCE@@QAMHI@Z 00438140 f   polyeffects.obj
 0001:00037750       ?InitPolyEffectsList@@YAXPAUTAG_POLYEFFECTSLIST@@@Z 00438750 f   polyeffects.obj
 0001:000377a0       ?PrepPolyEffects@@YAXPAUTAG_POLYEFFECTSLIST@@@Z 004387a0 f   polyeffects.obj
 0001:000377c0       ?UpdatePolyEffects@@YAXPAUTAG_POLYEFFECTSLIST@@@Z 004387c0 f   polyeffects.obj
 0001:00037b80       ?RemoveObjectFromPolyEffectsList@@YAHPAUTAG_POLYEFFECTSLIST@@PAUTAG_POLYEFFECTSINFO@@@Z 00438b80 f   polyeffects.obj
 0001:00037c60       ?FreeAllPolyEffectsFromList@@YAXPAUTAG_POLYEFFECTSLIST@@@Z 00438c60 f   polyeffects.obj
 0001:00037d20       ?DrawPolyEffects@@YAXPAUTAG_POLYEFFECTSLIST@@@Z 00438d20 f   polyeffects.obj
 0001:00037eb0       ?CollectPostcard@@YAHPAUTAG_ACTORINSTANCE@@PAUTAG_POSTCARD@@PAUTAG_CAMERAINFO@@PAD3@Z 00438eb0 f   postcard.obj
 0001:00037fa0       ?UpdatePostcard@@YAXPAUTAG_POSTCARD@@@Z 00438fa0 f   postcard.obj
 0001:00037fe0       ?PostCardText@@YAXQAY03MQAX@Z 00438fe0 f   postcard.obj
 0001:000380c0       ?StartPostcardCamera@@YAXPAUTAG_POSTCARD@@PAD@Z 004390c0 f   postcard.obj
 0001:000381a0       ?EndPostcardCamera@@YAXPAUTAG_POSTCARD@@@Z 004391a0 f   postcard.obj
 0001:000381f0       ?RemovePostcard@@YAXPAUTAG_POSTCARD@@@Z 004391f0 f   postcard.obj
 0001:00038240       ?GetPostcardTime@@YAMPAUTAG_POSTCARD@@@Z 00439240 f   postcard.obj
 0001:00038270       ?InitPrecipitationList@@YAXXZ 00439270 f   precipitation.obj
 0001:000382c0       ?AddEntryToPrecipitationList@@YAXQAM0HMMMIM@Z 004392c0 f   precipitation.obj
 0001:00038480       ?UpdatePrecipitationList@@YAXXZ 00439480 f   precipitation.obj
 0001:00038520       ?CreatePrecipitation@@YAHQAM0HMMMIMPAUTAG_PRECIPITATIONLISTENTRY@@@Z 00439520 f   precipitation.obj
 0001:00038900       ?UpdateSnow@@YAXPAUTAG_PRECIPITATION@@PAUTAG_DEBRIS@@@Z 00439900 f   precipitation.obj
 0001:00038a90       ?UpdateRain@@YAXPAUTAG_PRECIPITATION@@PAUTAG_DEBRIS@@@Z 00439a90 f   precipitation.obj
 0001:00038b50       ?FreeAllPrecipitationFromList@@YAXXZ 00439b50 f   precipitation.obj
 0001:00038bf0       ?CreateRumbleController@@YAPAUTAG_RUMBLECONTROLLER@@H@Z 00439bf0 f   rumble.obj
 0001:00038d60       ?RequestRumbleEffect@@YAHPAUTAG_PADCONTROLSTATUS@@HMMMMW4EWaveForm@@MMI@Z 00439d60 f   rumble.obj
 0001:00038fc0       ?UpdateRumble@@YAXPAUTAG_PADCONTROLSTATUS@@@Z 00439fc0 f   rumble.obj
 0001:00039450       ?FlushRumbleQueue@@YAXPAUTAG_PADCONTROLSTATUS@@@Z 0043a450 f   rumble.obj
 0001:000394b0       ?FlushRumbleQueueMember@@YAHPAUTAG_PADCONTROLSTATUS@@H@Z 0043a4b0 f   rumble.obj
 0001:00039590       ?PauseRumble@@YAXPAUTAG_PADCONTROLSTATUS@@@Z 0043a590 f   rumble.obj
 0001:000395d0       ?UnPauseRumble@@YAXPAUTAG_PADCONTROLSTATUS@@@Z 0043a5d0 f   rumble.obj
 0001:00039610       ?CheckIfRumblePlaying@@YAHPAUTAG_PADCONTROLSTATUS@@H@Z 0043a610 f   rumble.obj
 0001:000396c0       ?FreeRumbleController@@YAXPAUTAG_PADCONTROLSTATUS@@@Z 0043a6c0 f   rumble.obj
 0001:000397f0       ?Reactivate@TAG_SECURITYBOX@@AAEXXZ 0043a7f0 f   securitybox.obj
 0001:000398a0       ?Update@TAG_SECURITYBOX@@AAEXXZ 0043a8a0 f   securitybox.obj
 0001:00039fb0       ?SelectWeapon@TAG_SECURITYBOX@@AAEXXZ 0043afb0 f   securitybox.obj
 0001:0003a030       ?FreeWeapon@TAG_SECURITYBOX@@AAEXXZ 0043b030 f   securitybox.obj
 0001:0003a080       ?CalculateArm@TAG_SECURITYBOX@@AAEXXZ 0043b080 f   securitybox.obj
 0001:0003a250       ?Draw@TAG_SECURITYBOX@@AAEXXZ 0043b250 f   securitybox.obj
 0001:0003a550       ?CalculateTextureCoords@TAG_SECURITYBOX@@AAEXPAU_TBPrimVertex2D@@H@Z 0043b550 f   securitybox.obj
 0001:0003a5f0       ?Init@TAG_SECURITYBOX@@AAEHQAM0IPAVCPMNode@@1@Z 0043b5f0 f   securitybox.obj
 0001:0003a810       ?SetPosition@TAG_SECURITYBOX@@QAEXQAM@Z 0043b810 f i securitybox.obj
 0001:0003a860       ?SetOrientation@TAG_SECURITYBOX@@QAEXQAM@Z 0043b860 f i securitybox.obj
 0001:0003a8b0       ??1TAG_SECURITYBOX@@QAE@XZ 0043b8b0 f   securitybox.obj
 0001:0003a910       ?RespondToSecurityBoxCollision@@YAHPAUTAG_ACTORINSTANCE@@0@Z 0043b910 f   securitybox.obj
 0001:0003a9d0       ??_GTAG_SECURITYBOX@@QAEPAXI@Z 0043b9d0 f i securitybox.obj
 0001:0003aa30       ?Shutdown@TAG_SECURITYBOX@@AAEXM@Z 0043ba30 f   securitybox.obj
 0001:0003aab0       ?KillSecurityBoxes@@YAXXZ  0043bab0 f   securitybox.obj
 0001:0003ab50       ?UpdateSecurityBoxes@@YAXXZ 0043bb50 f   securitybox.obj
 0001:0003abc0       ?DrawSecurityBoxes@@YAXXZ  0043bbc0 f   securitybox.obj
 0001:0003ac30       ?ShutdownSecurityBoxes@@YAX_N@Z 0043bc30 f   securitybox.obj
 0001:0003acf0       ?ReactivateSecurityBoxes@@YAXXZ 0043bcf0 f   securitybox.obj
 0001:0003add0       ?Init@TAG_SPINPAD@@AAEHQAM0@Z 0043bdd0 f   securitybox.obj
 0001:0003aeb0       ?SetPosition@TAG_SPINPAD@@QAEXQAM@Z 0043beb0 f i securitybox.obj
 0001:0003af00       ?SetOrientation@TAG_SPINPAD@@QAEXQAM@Z 0043bf00 f i securitybox.obj
 0001:0003af50       ??1TAG_SPINPAD@@QAE@XZ     0043bf50 f   securitybox.obj
 0001:0003afa0       ?SpinPadCollisionCallback@@YAHPAUTAG_ACTORINSTANCE@@0@Z 0043bfa0 f   securitybox.obj
 0001:0003b070       ?PlayerSpinOn@TAG_SPINPAD@@AAEXPAUTAG_PLAYER@@@Z 0043c070 f   securitybox.obj
 0001:0003b150       ?Update@TAG_SPINPAD@@AAEXXZ 0043c150 f   securitybox.obj
 0001:0003b280       ?KillSpinPads@@YAXXZ       0043c280 f   securitybox.obj
 0001:0003b320       ??_GTAG_SPINPAD@@QAEPAXI@Z 0043c320 f i securitybox.obj
 0001:0003b380       ?UpdateSpinPads@@YAXXZ     0043c380 f   securitybox.obj
 0001:0003b3f0       ?getSize@?$LINKEDLIST@VTAG_SECURITYBOX@@@@QBEHXZ 0043c3f0 f i securitybox.obj
 0001:0003b420       ?getSize@?$LINKEDLIST@VTAG_SPINPAD@@@@QBEHXZ 0043c420 f i securitybox.obj
 0001:0003b450       ??0?$LINKEDLIST@VTAG_SECURITYBOX@@@@QAE@QAD@Z 0043c450 f i securitybox.obj
 0001:0003b4a0       ?get@?$LINKEDLIST@VTAG_SECURITYBOX@@@@QBEPAVTAG_SECURITYBOX@@H@Z 0043c4a0 f i securitybox.obj
 0001:0003b500       ?append@?$LINKEDLIST@VTAG_SECURITYBOX@@@@QAEPAVTAG_SECURITYBOX@@QAV2@@Z 0043c500 f i securitybox.obj
 0001:0003b600       ?remove@?$LINKEDLIST@VTAG_SECURITYBOX@@@@QAEXQBVTAG_SECURITYBOX@@@Z 0043c600 f i securitybox.obj
 0001:0003b660       ??0?$LINKEDLIST@VTAG_SPINPAD@@@@QAE@QAD@Z 0043c660 f i securitybox.obj
 0001:0003b6b0       ?get@?$LINKEDLIST@VTAG_SPINPAD@@@@QBEPAVTAG_SPINPAD@@H@Z 0043c6b0 f i securitybox.obj
 0001:0003b710       ?append@?$LINKEDLIST@VTAG_SPINPAD@@@@QAEPAVTAG_SPINPAD@@QAV2@@Z 0043c710 f i securitybox.obj
 0001:0003b810       ?remove@?$LINKEDLIST@VTAG_SPINPAD@@@@QAEXQBVTAG_SPINPAD@@@Z 0043c810 f i securitybox.obj
 0001:0003b870       ?getNode@?$LINKEDLIST@VTAG_SECURITYBOX@@@@ABEPAV1@QBVTAG_SECURITYBOX@@@Z 0043c870 f i securitybox.obj
 0001:0003b8d0       ?getNode@?$LINKEDLIST@VTAG_SECURITYBOX@@@@ABEPAV1@H@Z 0043c8d0 f i securitybox.obj
 0001:0003b930       ?removeNode@?$LINKEDLIST@VTAG_SECURITYBOX@@@@AAEXQAV1@@Z 0043c930 f i securitybox.obj
 0001:0003b9d0       ??0?$LINKEDLIST@VTAG_SECURITYBOX@@@@AAE@QAV0@QAVTAG_SECURITYBOX@@0@Z 0043c9d0 f i securitybox.obj
 0001:0003ba20       ?init@?$LINKEDLIST@VTAG_SECURITYBOX@@@@QAAXQBDZZ 0043ca20 f i securitybox.obj
 0001:0003ba60       ?getNode@?$LINKEDLIST@VTAG_SPINPAD@@@@ABEPAV1@QBVTAG_SPINPAD@@@Z 0043ca60 f i securitybox.obj
 0001:0003bac0       ?getNode@?$LINKEDLIST@VTAG_SPINPAD@@@@ABEPAV1@H@Z 0043cac0 f i securitybox.obj
 0001:0003bb20       ?removeNode@?$LINKEDLIST@VTAG_SPINPAD@@@@AAEXQAV1@@Z 0043cb20 f i securitybox.obj
 0001:0003bbc0       ??0?$LINKEDLIST@VTAG_SPINPAD@@@@AAE@QAV0@QAVTAG_SPINPAD@@0@Z 0043cbc0 f i securitybox.obj
 0001:0003bc10       ?init@?$LINKEDLIST@VTAG_SPINPAD@@@@QAAXQBDZZ 0043cc10 f i securitybox.obj
 0001:0003bc50       ?CreateActorShadows@@YAXPAUTAG_ACTORINSTANCELIST@@PAUTAG_COLLISIONCACHE@@@Z 0043cc50 f   shadow.obj
 0001:0003bd60       ?SetShadowNode@@YAXPAUTAG_ACTORINSTANCE@@PAU_TBActorNodeInstance@@PAD@Z 0043cd60 f   shadow.obj
 0001:0003be00       ?DrawActorShadows@@YAXPAUTAG_ACTORINSTANCELIST@@@Z 0043ce00 f   shadow.obj
 0001:0003bef0       ?InitialiseShadow@@YAXQAUTAG_ACTORINSTANCE@@MMMW4_ShadowType@@@Z 0043cef0 f   shadow.obj
 0001:0003c000       ?bmATan@@YAMM@Z            0043d000 f i shadow.obj
 0001:0003c040       ?CreateShadow@@YAXPAUTAG_ACTORINSTANCE@@PAUTAG_COLLISIONCACHE@@QAM@Z 0043d040 f   shadow.obj
 0001:0003c7d0       ?CreateZooBossShadow@@YAXPAUTAG_SHADOW@@PAUTAG_COLLISIONCACHE@@QAM@Z 0043d7d0 f   shadow.obj
 0001:0003cef0       ?DrawShadow@@YAXPAUTAG_SHADOW@@@Z 0043def0 f   shadow.obj
 0001:0003d080       ?PolyBoxIntersectXZ@@YAHQAY03MQAM11@Z 0043e080 f   shadow.obj
 0001:0003d450       ?CreateShatterObject@@YAHPAUTAG_ACTORINSTANCE@@IHIMII@Z 0043e450 f   shatter.obj
 0001:0003d590       ?CreateShatterInfo@@YAPAUTAG_SHATTERINFO@@XZ 0043e590 f   shatter.obj
 0001:0003d600       ?UpdateShatterObject@@YAXPAUTAG_ACTORINSTANCE@@@Z 0043e600 f   shatter.obj
 0001:0003d8a0       ?RespondToShatterCollision@@YAHPAUTAG_ACTORINSTANCE@@0@Z 0043e8a0 f   shatter.obj
 0001:0003da50       ??0TAG_SHOCKWAVE@@QAE@QBMMMMHMMMQBUTAG_COLOUR@@@Z 0043ea50 f   shockwave.obj
 0001:0003dbd0       ?update@TAG_SHOCKWAVE@@QAEXXZ 0043ebd0 f   shockwave.obj
 0001:0003dd60       ?draw@TAG_SHOCKWAVE@@QAEXXZ 0043ed60 f   shockwave.obj
 0001:0003e190       ??_V@YAXPAXPADHG@Z         0043f190 f i shockwave.obj
 0001:0003e1d0       ??1TAG_SHOCKWAVE@@QAE@XZ   0043f1d0 f   shockwave.obj
 0001:0003e220       ?init@TAG_SHOCKWAVERING@@QAEXXZ 0043f220 f   shockwave.obj
 0001:0003e260       ?init@TAG_SHOCKWAVERING@@QAEXMABUTAG_COLOUR@@@Z 0043f260 f   shockwave.obj
 0001:0003e2b0       ??0TAG_SHOCKWAVERING@@QAE@XZ 0043f2b0 f   shockwave.obj
 0001:0003e300       ?Shockwave_create@@YAXQBMMMMHMMMQBUTAG_COLOUR@@@Z 0043f300 f   shockwave.obj
 0001:0003e3d0       ?Shockwave_update@@YAXXZ   0043f3d0 f   shockwave.obj
 0001:0003e480       ??_GTAG_SHOCKWAVE@@QAEPAXI@Z 0043f480 f i shockwave.obj
 0001:0003e4e0       ?Shockwave_draw@@YAXXZ     0043f4e0 f   shockwave.obj
 0001:0003e610       ?Shockwave_shutdown@@YAXXZ 0043f610 f   shockwave.obj
 0001:0003e650       ?getSize@?$LINKEDLIST@UTAG_SHOCKWAVE@@@@QBEHXZ 0043f650 f i shockwave.obj
 0001:0003e680       ??0?$LINKEDLIST@UTAG_SHOCKWAVE@@@@QAE@QAD@Z 0043f680 f i shockwave.obj
 0001:0003e6d0       ?get@?$LINKEDLIST@UTAG_SHOCKWAVE@@@@QBEPAUTAG_SHOCKWAVE@@H@Z 0043f6d0 f i shockwave.obj
 0001:0003e730       ?append@?$LINKEDLIST@UTAG_SHOCKWAVE@@@@QAEPAUTAG_SHOCKWAVE@@QAU2@@Z 0043f730 f i shockwave.obj
 0001:0003e830       ?remove@?$LINKEDLIST@UTAG_SHOCKWAVE@@@@QAEXH@Z 0043f830 f i shockwave.obj
 0001:0003e880       ?shutdown@?$LINKEDLIST@UTAG_SHOCKWAVE@@@@QAEXXZ 0043f880 f i shockwave.obj
 0001:0003e910       ?getNode@?$LINKEDLIST@UTAG_SHOCKWAVE@@@@ABEPAV1@H@Z 0043f910 f i shockwave.obj
 0001:0003e970       ?removeNode@?$LINKEDLIST@UTAG_SHOCKWAVE@@@@AAEXQAV1@@Z 0043f970 f i shockwave.obj
 0001:0003ea10       ??0?$LINKEDLIST@UTAG_SHOCKWAVE@@@@AAE@QAV0@QAUTAG_SHOCKWAVE@@0@Z 0043fa10 f i shockwave.obj
 0001:0003ea60       ?init@?$LINKEDLIST@UTAG_SHOCKWAVE@@@@QAAXQBDZZ 0043fa60 f i shockwave.obj
 0001:0003eaa0       ?CreateElectricityObject@@YAHMPAD0QAMDPAVCPMNode@@@Z 0043faa0 f   sparks.obj
 0001:0003ebf0       ?CreateElectricityInfoStructure@@YAHPAUTAG_ACTORINSTANCE@@@Z 0043fbf0 f   sparks.obj
 0001:0003ec70       ?UpdateElectricityObject@@YAXPAUTAG_ACTORINSTANCE@@@Z 0043fc70 f   sparks.obj
 0001:0003ed30       ?CalculateSparkStartPosition@@YAXPAUTAG_ACTORINSTANCE@@@Z 0043fd30 f   sparks.obj
 0001:0003ee00       ?CalculateNewSparkTarget@@YAXPAUTAG_ACTORINSTANCE@@@Z 0043fe00 f   sparks.obj
 0001:0003ef60       ?MoveSparkTowardsTarget@@YAXPAUTAG_ACTORINSTANCE@@@Z 0043ff60 f   sparks.obj
 0001:0003f030       ?UpdateSparkOrientation@@YAXPAUTAG_ACTORINSTANCE@@QAM@Z 00440030 f   sparks.obj
 0001:0003f0e0       ?CreateElectricityPathInfo@@YAPAUTAG_ELECTRICITYPATHINFO@@H@Z 004400e0 f   sparks.obj
 0001:0003f180       ?AddElectricityPathObject@@YAHPAUTAG_ELECTRICITYPATHINFO@@I@Z 00440180 f   sparks.obj
 0001:0003f1e0       ?FreeAllElectricityPathNodes@@YAXPAUTAG_ACTORINSTANCE@@@Z 004401e0 f   sparks.obj
 0001:0003f270       ?WereGonnaHaveSomeCrazySparks@@YAXQAM0M@Z 00440270 f   sparks.obj
 0001:0003f400       ?InitCrazySparksExtraSystem@@YAXXZ 00440400 f   sparks.obj
 0001:0003f460       ?CrazySparksExtraCreateCallback@@YAXPAU_TBExtraSystem@@PAEPAD@Z 00440460 f   sparks.obj
 0001:0003f560       ?CrazySparksExtraDeleteCallback@@YAHPAU_TBExtraSystem@@PAE@Z 00440560 f   sparks.obj
 0001:0003f590       ?CrazySparksExtraUpdateCallback@@YAXPAU_TBExtraSystem@@HPAPAEM@Z 00440590 f   sparks.obj
 0001:0003f6d0       ?CrazySparksExtraRenderCallback@@YAXPAU_TBExtraSystem@@HPAPAEPAX@Z 004406d0 f   sparks.obj
 0001:0003f8e0       ?CrazySparksPhoneBoxExtraSystemInitCallback@@YAXPAU_TBExtraSystem@@H@Z 004408e0 f   sparks.obj
 0001:0003f900       ?CreateSpinEffectForActor@@YAXPAUTAG_CHARACTERINFO@@@Z 00440900 f   spineffect.obj
 0001:0003fc40       ?UpdateSpinEffectForActor@@YAXPAUTAG_ACTORINSTANCE@@@Z 00440c40 f   spineffect.obj
 0001:00040410       ?DrawSpinEffectForActor@@YAXPAUTAG_ACTORINSTANCE@@@Z 00441410 f   spineffect.obj
 0001:000405b0       ?CreateSpinEffectStrips@@YAXPAUTAG_SPINPOLYS@@QAHHM@Z 004415b0 f   spineffect.obj
 0001:000407a0       ?InitThoughtBubbleSystem@@YAHPAD@Z 004417a0 f   thoughtbubble.obj
 0001:000407f0       ?InitThoughtBubble@@YAXPAUTAG_THOUGHTBUBBLE@@@Z 004417f0 f   thoughtbubble.obj
 0001:00040860       ?CreateThoughtBubble@@YAHPAUTAG_THOUGHTBUBBLE@@QAMMMHP6AXQAY03MQAX@Z3@Z 00441860 f   thoughtbubble.obj
 0001:00040a70       ?CloseThoughtBubble@@YAXPAUTAG_THOUGHTBUBBLE@@@Z 00441a70 f   thoughtbubble.obj
 0001:00040ab0       ?AddObjectToThoughtBubble@@YAHPAUTAG_THOUGHTBUBBLE@@PADMMM@Z 00441ab0 f   thoughtbubble.obj
 0001:00040c40       ?AddObjectToThoughtBubble@@YAHPAUTAG_THOUGHTBUBBLE@@PADMMMQAM@Z 00441c40 f   thoughtbubble.obj
 0001:00040df0       ?AddTextureToThoughtBubble@@YAHPAUTAG_THOUGHTBUBBLE@@PADMMM@Z 00441df0 f   thoughtbubble.obj
 0001:00040e20       ?PrepThoughtBubble@@YAXPAUTAG_THOUGHTBUBBLE@@PAUTAG_CAMERAINFO@@QAM@Z 00441e20 f   thoughtbubble.obj
 0001:00040fb0       ?SetUpBubbles@@YAXPAUTAG_THOUGHTBUBBLE@@QAM@Z 00441fb0 f   thoughtbubble.obj
 0001:00041270       ?DrawThoughtBubble@@YAXPAUTAG_THOUGHTBUBBLE@@PAUTAG_CAMERAINFO@@@Z 00442270 f   thoughtbubble.obj
 0001:00041320       ?DrawBubbles@@YAXPAUTAG_THOUGHTBUBBLE@@PAUTAG_CAMERAINFO@@@Z 00442320 f   thoughtbubble.obj
 0001:00041560       ?RemoveItemFromThoughtBubble@@YAXPAUTAG_THOUGHTBUBBLE@@H@Z 00442560 f   thoughtbubble.obj
 0001:000415e0       ?DestroyThoughtBubble@@YAXPAUTAG_THOUGHTBUBBLE@@@Z 004425e0 f   thoughtbubble.obj
 0001:000416a0       ?DestroyThoughtBubbleSystem@@YAXXZ 004426a0 f   thoughtbubble.obj
 0001:000416c0       ?VFX_effectActive@@YA_NW4EVideoEffect@@@Z 004426c0 f   VideoFX.obj
 0001:00041700       ?VFX_deactivateEffect@@YAXW4EVideoEffect@@@Z 00442700 f   VideoFX.obj
 0001:000418f0       ?VFX_activateEffect@@YA_NW4EVideoEffect@@_N@Z 004428f0 f   VideoFX.obj
 0001:00041ad0       ?VFX_init@@YAXXZ           00442ad0 f   VideoFX.obj
 0001:00041b10       ?VFX_initScene@@YAXXZ      00442b10 f   VideoFX.obj
 0001:00041b90       ?VFX_update@@YAXXZ         00442b90 f   VideoFX.obj
 0001:00041c00       ?VFX_draw@@YAXXZ           00442c00 f   VideoFX.obj
 0001:00041c20       ?VFX_shutdown@@YAXXZ       00442c20 f   VideoFX.obj
 0001:00041ce0       ?VFX_initStereo@@YAXXZ     00442ce0 f   VideoFX.obj
 0001:00041e20       ?inverse@TAG_COLOUR@@QAE?AU1@E@Z 00442e20 f i VideoFX.obj
 0001:00041e80       ??G@YA?AUTAG_COLOUR@@ABU0@0@Z 00442e80 f i VideoFX.obj
 0001:00041f90       ?VFX_setStereo@@YAX_N00@Z  00442f90 f   VideoFX.obj
 0001:000420d0       ?VFX_stereoPreDraw@@YAXXZ  004430d0 f   VideoFX.obj
 0001:00042170       ?VFX_colourRenderTarget@@YAXXZ 00443170 f   VideoFX.obj
 0001:00043900       ?VFX_stereoPostDraw@@YA_NXZ 00444900 f   VideoFX.obj
 0001:00043d60       ?toOrigin@TAG_RECTANGLE@@QBE?AU1@XZ 00444d60 f i VideoFX.obj
 0001:00043df0       ?midX@TAG_RECTANGLE@@QBEMXZ 00444df0 f i VideoFX.obj
 0001:00043e40       ?width@TAG_RECTANGLE@@QBEMXZ 00444e40 f i VideoFX.obj
 0001:00043e70       ?midY@TAG_RECTANGLE@@QBEMXZ 00444e70 f i VideoFX.obj
 0001:00043ec0       ?height@TAG_RECTANGLE@@QBEMXZ 00444ec0 f i VideoFX.obj
 0001:00043ef0       ??X@YA?AUTAG_RECTANGLE@@AAU0@ABU0@@Z 00444ef0 f i VideoFX.obj
 0001:00043f70       ??D@YA?AUTAG_RECTANGLE@@ABU0@0@Z 00444f70 f i VideoFX.obj
 0001:00044010       ?VFX_updateStereo@@YAXXZ   00445010 f   VideoFX.obj
 0001:000440b0       ?VFX_adjustStereoCamera@@YAXQBUTAG_CAMERAINFO@@QAM1@Z 004450b0 f   VideoFX.obj
 0001:00044190       ?VFX_drawStereoFilter@@YAXXZ 00445190 f   VideoFX.obj
 0001:00044240       ?VFX_motionBlurSave@@YAXXZ 00445240 f   VideoFX.obj
 0001:00044290       ?VFX_motionBlurRestore@@YAXXZ 00445290 f   VideoFX.obj
 0001:00044320       ?VFX_motionBlurPreDraw@@YAXXZ 00445320 f   VideoFX.obj
 0001:00044370       ?VFX_motionBlurPostDraw@@YAXXZ 00445370 f   VideoFX.obj
 0001:00044400       ?VFX_motionBlur@@YAXM_N@Z  00445400 f   VideoFX.obj
 0001:00044590       ?VFX_setZoom@@YAXM@Z       00445590 f   VideoFX.obj
 0001:000445b0       ?VFX_setBlur@@YAXM@Z       004455b0 f   VideoFX.obj
 0001:000445e0       ?VFX_initShadowMap@@YAXXZ  004455e0 f   VideoFX.obj
 0001:00044810       ?VFX_createShadowRenderTarget@@YAXXZ 00445810 f   VideoFX.obj
 0001:000448e0       ?VFX_releaseShadowRenderTarget@@YAXXZ 004458e0 f   VideoFX.obj
 0001:00044970       ?VFX_blurShadowMap@@YAXXZ  00445970 f   VideoFX.obj
 0001:00044a60       ?VFX_generateShadowMap@@YAXPAUTAG_ACTORINSTANCE@@@Z 00445a60 f   VideoFX.obj
 0001:00044db0       ?VFX_shadowMapPostDrawDebug@@YAXXZ 00445db0 f   VideoFX.obj
 0001:00044f50       ?leftHalf@TAG_RECTANGLE@@QBE?AU1@XZ 00445f50 f i VideoFX.obj
 0001:00044fb0       ?bottomHalf@TAG_RECTANGLE@@QBE?AU1@XZ 00445fb0 f i VideoFX.obj
 0001:00045010       ?removeMargin@TAG_RECTANGLE@@QBE?AU1@M@Z 00446010 f i VideoFX.obj
 0001:000450f0       ?VFX_spinoffPreparePreDraw@@YAXXZ 004460f0 f   VideoFX.obj
 0001:00045150       ?VFX_spinoffPrepare@@YAXXZ 00446150 f   VideoFX.obj
 0001:000451d0       ?VFX_spinoffStart@@YAXXZ   004461d0 f   VideoFX.obj
 0001:00045200       ?VFX_spinoffUpdate@@YAXXZ  00446200 f   VideoFX.obj
 0001:000454c0       ?widthAbs@TAG_RECTANGLE@@QBEMXZ 004464c0 f i VideoFX.obj
 0001:00045510       ?VFX_spinoffPostPrepare@@YAXXZ 00446510 f   VideoFX.obj
 0001:00045570       ?VFX_spinoffPostDraw@@YAXXZ 00446570 f   VideoFX.obj
 0001:00045b00       ?VFX_timeslicePauseUpdateFunc@@YAXH@Z 00446b00 f   VideoFX.obj
 0001:00045c80       ?VFX_timesliceDraw@@YAXXZ  00446c80 f   VideoFX.obj
 0001:00045fa0       ?VFX_timeslice@@YAXXZ      00446fa0 f   VideoFX.obj
 0001:00046070       ?VFX_initFocus@@YAXXZ      00447070 f   VideoFX.obj
 0001:00046090       ?VFX_focusPrepare@@YA_NXZ  00447090 f   VideoFX.obj
 0001:000460c0       ?VFX_focusUnprepare@@YA_NXZ 004470c0 f   VideoFX.obj
 0001:000460f0       ?VFX_focusNearTrackObject@@YAXQAUTAG_ACTORINSTANCE@@@Z 004470f0 f   VideoFX.obj
 0001:00046110       ?VFX_focusFarTrackObject@@YAXQAUTAG_ACTORINSTANCE@@@Z 00447110 f   VideoFX.obj
 0001:00046130       ?VFX_focusNear@@YAXM_N@Z   00447130 f   VideoFX.obj
 0001:00046150       ?VFX_focusFar@@YAXM_N@Z    00447150 f   VideoFX.obj
 0001:00046170       ?VFX_focusBlur@@YAXXZ      00447170 f   VideoFX.obj
 0001:00046190       ?VFX_focusUpdate@@YAXXZ    00447190 f   VideoFX.obj
 0001:000461b0       ?VFX_focusReset@@YAXXZ     004471b0 f   VideoFX.obj
 0001:000461d0       ?VFX_focusSetBlurFactor@@YAXH@Z 004471d0 f   VideoFX.obj
 0001:000461f0       ?VFX_focusPreDraw@@YAXXZ   004471f0 f   VideoFX.obj
 0001:00046210       ?VFX_focusPostDraw@@YAXXZ  00447210 f   VideoFX.obj
 0001:00046230       ?init@?$LOOPARRAY@$$BY133M$03@@QAEXQBD@Z 00447230 f i VideoFX.obj
 0001:00046290       ??0?$LOOPARRAY@$$BY133M$03@@QAE@QBD@Z 00447290 f i VideoFX.obj
 0001:000462d0       ?getNew@?$LOOPARRAY@$$BY133M$03@@QAEPAY133MH@Z 004472d0 f i VideoFX.obj
 0001:00046440       ?discardOldest@?$LOOPARRAY@$$BY133M$03@@QAEXH@Z 00447440 f i VideoFX.obj
 0001:00046500       ?CreateVoodooCloud@@YAHPAUTAG_ACTORINSTANCE@@@Z 00447500 f   voodoocloud.obj
 0001:00046870       ?CreateVoodooCloudInfo@@YAPAUTAG_VOODOOCLOUDINFO@@XZ 00447870 f   voodoocloud.obj
 0001:000468e0       ?PrepVoodooCloud@@YAXPAUTAG_ACTORINSTANCE@@@Z 004478e0 f   voodoocloud.obj
 0001:00046940       ?UpdateVoodooCloud@@YAXPAUTAG_ACTORINSTANCE@@@Z 00447940 f   voodoocloud.obj
 0001:00047030       ?DrawVoodooCloud@@YAXPAUTAG_ACTORINSTANCE@@@Z 00448030 f   voodoocloud.obj
 0001:00047120       ?InitVoodooCloudExtraSystem@@YAXXZ 00448120 f   voodoocloud.obj
 0001:00047180       ?VoodooCloudExtraCreateCallback@@YAXPAU_TBExtraSystem@@PAEPAD@Z 00448180 f   voodoocloud.obj
 0001:000472e0       ?VoodooCloudExtraDeleteCallback@@YAHPAU_TBExtraSystem@@PAE@Z 004482e0 f   voodoocloud.obj
 0001:00047310       ?VoodooCloudExtraUpdateCallback@@YAXPAU_TBExtraSystem@@HPAPAEM@Z 00448310 f   voodoocloud.obj
 0001:00047410       ?VoodooCloudExtraRenderCallback@@YAXPAU_TBExtraSystem@@HPAPAEPAX@Z 00448410 f   voodoocloud.obj
 0001:00047590       ?VoodooCloudExtraSystemInitCallback@@YAXPAU_TBExtraSystem@@H@Z 00448590 f   voodoocloud.obj
 0001:000475b0       ?CreateWaterfallInstance@@YAHPAUTAG_ACTORINSTANCE@@III@Z 004485b0 f   waterfall.obj
 0001:00047760       ?UpdateWaterfallInstance@@YAXPAUTAG_ACTORINSTANCE@@@Z 00448760 f   waterfall.obj
 0001:000479d0       ?CreateWaterfallVerts@@YAXPAUTAG_WATERFALLEXTRAINFO@@QAM11@Z 004489d0 f   waterfall.obj
 0001:00047d00       ?InitWaterfallExtraSystem@@YAXXZ 00448d00 f   waterfall.obj
 0001:00047d70       ?WaterfallExtraCreateCallback@@YAXPAU_TBExtraSystem@@PAEPAD@Z 00448d70 f   waterfall.obj
 0001:00047fa0       ?WaterfallExtraDeleteCallback@@YAHPAU_TBExtraSystem@@PAE@Z 00448fa0 f   waterfall.obj
 0001:00047fd0       ?WaterfallExtraUpdateCallback@@YAXPAU_TBExtraSystem@@HPAPAEM@Z 00448fd0 f   waterfall.obj
 0001:00048480       ?WaterfallExtraRenderCallback@@YAXPAU_TBExtraSystem@@HPAPAEPAX@Z 00449480 f   waterfall.obj
 0001:000486a0       ?WaterfallExtraSystemInitCallback@@YAXPAU_TBExtraSystem@@H@Z 004496a0 f   waterfall.obj
 0001:000486c0       ?InitialiseWaterRingList@@YAXXZ 004496c0 f   waterrings.obj
 0001:00048700       ?CreateWaterRing@@YAHQAMPADM@Z 00449700 f   waterrings.obj
 0001:00048830       ?AddEntryToWaterRingList@@YAPAUTAG_WATERRING@@XZ 00449830 f   waterrings.obj
 0001:00048910       ?UpdateWaterRing@@YAXXZ    00449910 f   waterrings.obj
 0001:00048bd0       ?DrawWaterRing@@YAXXZ      00449bd0 f   waterrings.obj
 0001:00048f70       ?DeleteWaterRingFromList@@YAHPAUTAG_WATERRING@@@Z 00449f70 f   waterrings.obj
 0001:00049070       ?FreeWaterRingList@@YAXI@Z 0044a070 f   waterrings.obj
 0001:00049160       ?CreateWaterRipple@@YAHPAUTAG_ACTORINSTANCE@@PAU_TBTexture@@M@Z 0044a160 f   waterrings.obj
 0001:00049490       ?bmVectorCAdd@@YAXQAMQBMM@Z 0044a490 f i waterrings.obj
 0001:000494e0       ?CheckWaterWibblePositionAgainstOthers@@YAHQAM@Z 0044a4e0 f   waterrings.obj
 0001:00049560       ?CreateWaterSplashes@@YAXPAUTAG_ACTORINSTANCE@@QAMQAH2MM@Z 0044a560 f   watersplash.obj
 0001:000496c0       ?InitSplashExtraSystem@@YAXXZ 0044a6c0 f   watersplash.obj
 0001:00049720       ?SplashExtraCreateCallback@@YAXPAU_TBExtraSystem@@PAEPAD@Z 0044a720 f   watersplash.obj
 0001:000498b0       ?SplashExtraDeleteCallback@@YAHPAU_TBExtraSystem@@PAE@Z 0044a8b0 f   watersplash.obj
 0001:000498e0       ?SplashExtraUpdateCallback@@YAXPAU_TBExtraSystem@@HPAPAEM@Z 0044a8e0 f   watersplash.obj
 0001:00049a10       ?SplashExtraRenderCallback@@YAXPAU_TBExtraSystem@@HPAPAEPAX@Z 0044aa10 f   watersplash.obj
 0001:00049b10       ?SplashExtraSystemInitCallback@@YAXPAU_TBExtraSystem@@H@Z 0044ab10 f   watersplash.obj
 0001:00049b30       ?IntVectorCopy@@YAXQAH0@Z  0044ab30 f   watersplash.obj
 0001:00049b80       ?ActivateSleepyZedsForCharacter@@YAHPAUTAG_ACTORINSTANCE@@PADPAU_TBTexture@@2M@Z 0044ab80 f   zzz.obj
 0001:00049cb0       ?TurnOffSleepyZedsForCharacter@@YAXPAUTAG_ACTORINSTANCE@@@Z 0044acb0 f   zzz.obj
 0001:00049d30       ?UpdateSleepyZedsForCharacter@@YAXPAUTAG_ACTORINSTANCELIST@@@Z 0044ad30 f   zzz.obj
 0001:00049f10       ?InitZzzExtraSystem@@YAXXZ 0044af10 f   zzz.obj
 0001:00049f80       ?ZzzExtraCreateCallback@@YAXPAU_TBExtraSystem@@PAEPAD@Z 0044af80 f   zzz.obj
 0001:0004a080       ?ZzzExtraDeleteCallback@@YAHPAU_TBExtraSystem@@PAE@Z 0044b080 f   zzz.obj
 0001:0004a0b0       ?ZzzExtraUpdateCallback@@YAXPAU_TBExtraSystem@@HPAPAEM@Z 0044b0b0 f   zzz.obj
 0001:0004a1e0       ?ZzzExtraRenderCallback@@YAXPAU_TBExtraSystem@@HPAPAEPAX@Z 0044b1e0 f   zzz.obj
 0001:0004a350       ?ZzzExtraSystemInitCallback@@YAXPAU_TBExtraSystem@@H@Z 0044b350 f   zzz.obj
 0001:0004a370       ?CreateQuestionMarkAboveActor@@YAHPAUTAG_ACTORINSTANCE@@PAD1MQAM@Z 0044b370 f   zzz.obj
 0001:0004a5a0       ?DestroyQuestionMarkAboveActor@@YAHPAUTAG_ACTORINSTANCE@@@Z 0044b5a0 f   zzz.obj
 0001:0004a5f0       ?UpdateQuestionMarkAboveActor@@YAXPAUTAG_ACTORINSTANCELIST@@@Z 0044b5f0 f   zzz.obj
 0001:0004a7e0       ?DrawQuestionMarkAboveActor@@YAXPAUTAG_ACTORINSTANCELIST@@@Z 0044b7e0 f   zzz.obj
 0001:0004a900       ?copyTPrimTVec@@YAXUTAG_COLLVERTEX@@QAM@Z 0044b900 f   collision.obj
 0001:0004a960       ?ResetCollStats@@YAXXZ     0044b960 f   collision.obj
 0001:0004a9a0       ?SphereFaceCollision@@YAXPAUTAG_COLLVERTEX@@HQAMMQAUTAG_COLL_FACEINFO@@PAH@Z 0044b9a0 f   collision.obj
 0001:0004b210       ?findNearest@@YAXQAM00000@Z 0044c210 f i collision.obj
 0001:0004b350       ?CirclePlaneCollision@@YAHPAUTAG_COLLVERTEX@@QAMM_NPAM@Z 0044c350 f   collision.obj
 0001:0004b7c0       ?RayTriangleCollision@@YA_NPAUTAG_COLLVERTEX@@HQAM11@Z 0044c7c0 f   collision.obj
 0001:0004b9d0       ?CircleFaceCollision@@YAHPAUTAG_COLLVERTEX@@HQAMM_NPAM@Z 0044c9d0 f   collision.obj
 0001:0004bac0       ?CylinderCylinderCollision@@YAHPAUTAG_COLL_CYLINDER@@0PAM1@Z 0044cac0 f   collision.obj
 0001:0004bc20       ?SphereSphereCollision@@YAMPAUTAG_COLL_SPHERE@@0@Z 0044cc20 f   collision.obj
 0001:0004bca0       ?SphereCylinderCollision@@YAMQAMMPAUTAG_COLL_CYLINDER@@@Z 0044cca0 f   collision.obj
 0001:0004bd80       ?bmVectorCSub@@YAXQAMQBMM@Z 0044cd80 f i collision.obj
 0001:0004bdd0       ?SphereSphereCollision@@YAMQAMM0M@Z 0044cdd0 f   collision.obj
 0001:0004be40       ?bmVectorNegate@@YAXQAMQBM@Z 0044ce40 f i collision.obj
 0001:0004be90       ?ProcessCollisionForActors@@YAXPAUTAG_COLLISIONCACHE@@PAUTAG_ACTORINSTANCELIST@@@Z 0044ce90 f   collisioncache.obj
 0001:0004bf00       ?ProcessCollisionForActor@@YAHPAUTAG_COLLISIONCACHE@@PAUTAG_ACTORINSTANCE@@IPAPAUTAG_COLL_MESHINFO@@@Z 0044cf00 f   collisioncache.obj
 0001:0004ce80       ?ProcessHeightOfPoint@@YAHPAUTAG_COLLISIONCACHE@@QAMPAMH@Z 0044de80 f   collisioncache.obj
 0001:0004d190       ?CreateCollisionCache@@YAHPAUTAG_COLLISIONCACHE@@H@Z 0044e190 f   collisioncache.obj
 0001:0004d250       ?UpdateCollisionCache@@YAXPAUTAG_COLLISIONCACHE@@@Z 0044e250 f   collisioncache.obj
 0001:0004d390       ?MakeEntireCollisionCacheDormant@@YAXPAUTAG_COLLISIONCACHE@@@Z 0044e390 f   collisioncache.obj
 0001:0004d400       ?FreeCollisionCache@@YAXPAUTAG_COLLISIONCACHE@@@Z 0044e400 f   collisioncache.obj
 0001:0004d5d0       ?bmVectorEqual@@YAHQAM0@Z  0044e5d0 f i collisioncache.obj
 0001:0004d650       ?SubDivideCollisionEntry@@YAHPAUTAG_COLLISIONCACHE@@PAUTAG_COLLISIONLISTENTRY@@IHHH@Z 0044e650 f   collisioncache.obj
 0001:0004dc60       ?AddActorToCollisionCylinderCache@@YAHPAUTAG_COLLISIONCACHE@@PAUTAG_ACTORINSTANCE@@@Z 0044ec60 f   collisioncache.obj
 0001:0004dcc0       ?AddActorToCollisionSphereCache@@YAHPAUTAG_COLLISIONCACHE@@PAUTAG_ACTORINSTANCE@@@Z 0044ecc0 f   collisioncache.obj
 0001:0004dd20       ?ActivateLiveUpdate@@YAXPAUTAG_COLLISIONLISTENTRY@@@Z 0044ed20 f   collisioncache.obj
 0001:0004dda0       ?DeactivateLiveUpdate@@YAXPAUTAG_COLLISIONLISTENTRY@@@Z 0044eda0 f   collisioncache.obj
 0001:0004de30       ?AddActorToCollisionCache@@YAPAUTAG_COLLISIONLISTENTRY@@PAUTAG_COLLISIONCACHE@@PAUTAG_ACTORINSTANCE@@I@Z 0044ee30 f   collisioncache.obj
 0001:0004e070       ?MakeCollisionEntryDoubleSided@@YAXPAUTAG_COLLISIONLISTENTRY@@@Z 0044f070 f   collisioncache.obj
 0001:0004e2f0       ?DrawCollisionEntry@@YAXPAUTAG_COLLISIONLISTENTRY@@@Z 0044f2f0 f   collisioncache.obj
 0001:0004e5a0       ?DrawResidentCollisionEntries@@YAXPAUTAG_COLLISIONCACHE@@@Z 0044f5a0 f   collisioncache.obj
 0001:0004e680       ?UpdateCollisionBoundingBox@@YAXPAUTAG_COLLISIONLISTENTRY@@@Z 0044f680 f   collisioncache.obj
 0001:0004e7e0       ?RemoveActorFromCollisionCache@@YAHPAUTAG_COLLISIONCACHE@@PAUTAG_ACTORINSTANCE@@@Z 0044f7e0 f   collisioncache.obj
 0001:0004e840       ?CreateAndAddCollisionListEntry@@YAPAUTAG_COLLISIONLISTENTRY@@PAUTAG_COLLISIONLIST@@PAUTAG_ACTORINSTANCE@@@Z 0044f840 f   collisioncache.obj
 0001:0004e930       ?RemoveAndFreeCollisionListEntry@@YAHPAUTAG_COLLISIONCACHE@@PAUTAG_ACTORINSTANCE@@@Z 0044f930 f   collisioncache.obj
 0001:0004ea30       ?RemoveAndFreeCollisionCylinderListEntry@@YAHPAUTAG_COLLISIONCACHE@@PAUTAG_ACTORINSTANCE@@@Z 0044fa30 f   collisioncache.obj
 0001:0004ead0       ?RemoveAndFreeCollisionSphereListEntry@@YAHPAUTAG_COLLISIONCACHE@@PAUTAG_ACTORINSTANCE@@@Z 0044fad0 f   collisioncache.obj
 0001:0004eb80       ?CalculateBoundingBox@@YAXPAUTAG_BOUNDINGBOX@@0PAUTAG_ACTORINSTANCE@@PAUTAG_COLLVERTEX@@H@Z 0044fb80 f   collisioncache.obj
 0001:0004f2b0       ?MakeEntryResident@@YAHPAUTAG_COLLISIONCACHE@@PAUTAG_COLLISIONLISTENTRY@@@Z 004502b0 f   collisioncache.obj
 0001:0004f550       ?GetCollisionMesh@@YAPAUTAG_COLLVERTEX@@PAU_TBActorInstance@@PAU1@QAY03M@Z 00450550 f   collisioncache.obj
 0001:0004f830       ?ConvertCollisionVertsByMatrix@@YAXPAUTAG_COLLVERTEX@@QAY03MH@Z 00450830 f   collisioncache.obj
 0001:0004faa0       ?FindMinMaxFromPoly@@YAXQAM0000@Z 00450aa0 f   collisioncache.obj
 0001:0004fc70       ?MakeEntryDormant@@YAXPAUTAG_COLLISIONCACHE@@PAUTAG_COLLISIONLISTENTRY@@@Z 00450c70 f   collisioncache.obj
 0001:0004fd00       ?ReturnOldestCollisionEntry@@YAPAUTAG_COLLISIONLISTENTRY@@PAUTAG_COLLISIONCACHE@@@Z 00450d00 f   collisioncache.obj
 0001:0004fd90       ?NumberOfVertsInMesh@@YAHPAU_TBActorInstance@@@Z 00450d90 f   collisioncache.obj
 0001:0004fdf0       ?NumberOfVertsInActor@@YAHPAU_TBActorInstance@@@Z 00450df0 f   collisioncache.obj
 0001:0004fe50       ?TestBoxCollision@@YAHPAUTAG_BOUNDINGBOX@@0@Z 00450e50 f i collisioncache.obj
 0001:0004ff00       ?TestPointBoxCollision@@YAHPAUTAG_BOUNDINGBOX@@QAM@Z 00450f00 f   collisioncache.obj
 0001:0004ffb0       ?TestBoxCollisionXZ@@YAHPAUTAG_BOUNDINGBOX@@0@Z 00450fb0 f   collisioncache.obj
 0001:00050030       ?IsPointWithinBox@@YAHPAUTAG_ACTORINSTANCE@@QAM@Z 00451030 f   collisioncache.obj
 0001:00050120       ?IsPointWithinBox@@YAHPBUTAG_BOUNDINGBOX@@QAY03$$CBMQBM@Z 00451120 f   collisioncache.obj
 0001:000501f0       ?GetBoxBoundsAndMatrix@@YAHPAUTAG_ACTORINSTANCE@@PAUTAG_BOUNDINGBOX@@QAY03M@Z 004511f0 f   collisioncache.obj
 0001:00050300       ?GetMinMaxFromVerts@@YAXPAUTAG_BOUNDINGBOX@@PAUTAG_COLLVERTEX@@H@Z 00451300 f   collisioncache.obj
 0001:00050490       ?RefreshCollisionEntry@@YAXPAUTAG_COLLISIONCACHE@@PAUTAG_ACTORINSTANCE@@@Z 00451490 f   collisioncache.obj
 0001:00050520       ?GetCollisionEntry@@YAPAUTAG_COLLISIONLISTENTRY@@PAUTAG_COLLISIONCACHE@@PAUTAG_ACTORINSTANCE@@@Z 00451520 f   collisioncache.obj
 0001:00050580       ?GetCollSphereDetails@@YA_NPAUTAG_ACTORINSTANCE@@QAMQAM@Z 00451580 f   collisioncache.obj
 0001:00050690       ?ProcessActorBehaviour@@YAPAUTAG_COLL_MESHINFO@@PAUTAG_ACTORINSTANCE@@PAPAUTAG_COLLVERTEX@@PAPAU2@PAHHPAUTAG_COLL_CYLINDER@@HPAUTAG_COLL_SPHERE@@HI@Z 00451690 f   physics.obj
 0001:00051300       ?ApplyGravity@@YAHQAM0M@Z  00452300 f   physics.obj
 0001:000513b0       ?ApplyGravityInDirection@@YAHQAM00M@Z 004523b0 f   physics.obj
 0001:000514d0       ?SetWorldGravity@@YAXM@Z   004524d0 f   physics.obj
 0001:00051500       ?ApplyFriction@@YAHPAUTAG_ACTOR_PHYSICS@@@Z 00452500 f   physics.obj
 0001:000515b0       ?PerformCollisionSphereResponse@@YAXPAUTAG_ACTORINSTANCE@@HPAUTAG_COLL_SPHERE@@QAMPAUTAG_COLL_MESHINFO@@2M2@Z 004525b0 f   physics.obj
 0001:00051650       ?PerformCollisionFaceResponse@@YAMPAUTAG_ACTORINSTANCE@@HPAUTAG_COLL_FACEINFO@@QAMMPAUTAG_COLL_MESHINFO@@2M2@Z 00452650 f   physics.obj
 0001:00051cc0       ?ProcessCylinderCollisionResponse@@YAHQAMPAUTAG_ACTOR_BEHAVIOUR@@PAUTAG_COLL_CYLINDER@@HPAU_TBActorInstance@@0PAUTAG_COLL_MESHINFO@@@Z 00452cc0 f   physics.obj
 0001:00051f00       ?ProcessSphereCollisionResponse@@YAHQAMPAUTAG_ACTOR_BEHAVIOUR@@PAUTAG_COLL_SPHERE@@HPAU_TBActorInstance@@0PAUTAG_COLL_MESHINFO@@@Z 00452f00 f   physics.obj
 0001:00052070       ?InitActorBehaviour@@YAXPAUTAG_ACTOR_BEHAVIOUR@@M@Z 00453070 f   physics.obj
 0001:000521b0       ?SetActorMaxSpeed@@YAXPAUTAG_ACTOR_BEHAVIOUR@@M@Z 004531b0 f   physics.obj
 0001:000521e0       ?SetActorMinVel@@YAXPAUTAG_ACTOR_BEHAVIOUR@@M@Z 004531e0 f   physics.obj
 0001:00052210       ?SetActorHelium@@YAXPAUTAG_ACTOR_BEHAVIOUR@@M@Z 00453210 f   physics.obj
 0001:00052240       ?SetActorBounce@@YAXPAUTAG_ACTOR_BEHAVIOUR@@M@Z 00453240 f   physics.obj
 0001:00052270       ?SetActorFriction@@YAXPAUTAG_ACTOR_BEHAVIOUR@@M@Z 00453270 f   physics.obj
 0001:000522a0       ?SetActorMinFricAngle@@YAXPAUTAG_ACTOR_BEHAVIOUR@@M@Z 004532a0 f   physics.obj
 0001:000522d0       ?SetActorInertia@@YAXPAUTAG_ACTOR_BEHAVIOUR@@M@Z 004532d0 f   physics.obj
 0001:00052300       ?SetActorFlags@@YAXPAUTAG_ACTOR_BEHAVIOUR@@H@Z 00453300 f   physics.obj
 0001:00052330       ?ActorLookAt@@YAXPAUTAG_ACTORINSTANCE@@0MM@Z 00453330 f   physics.obj
 0001:000523c0       ?ActorRotate@@YAXPAUTAG_ACTORINSTANCE@@QAMM@Z 004533c0 f   physics.obj
 0001:00052470       ?SetActorVelocity@@YAXPAUTAG_ACTOR_BEHAVIOUR@@QAM@Z 00453470 f   physics.obj
 0001:000524d0       ?SetActorSpeed@@YAXPAUTAG_ACTOR_BEHAVIOUR@@QAMM@Z 004534d0 f   physics.obj
 0001:00052540       ?SetActorCollSphere@@YAXPAUTAG_ACTOR_BEHAVIOUR@@QAMM@Z 00453540 f   physics.obj
 0001:00052590       ?SetActorCylinder@@YAXHPAUTAG_ACTOR_BEHAVIOUR@@QAMMMH@Z 00453590 f   physics.obj
 0001:00052620       ?SetActorCylinder@@YAXHPAU_TBActorNodeInstance@@PAUTAG_ACTOR_BEHAVIOUR@@QAMMMH@Z 00453620 f   physics.obj
 0001:000526b0       ?AddActorVelocity@@YAXPAUTAG_ACTOR_BEHAVIOUR@@QAM@Z 004536b0 f   physics.obj
 0001:00052720       ?AddActorSpeed@@YAXPAUTAG_ACTOR_BEHAVIOUR@@QAMM@Z 00453720 f   physics.obj
 0001:000527b0       ?checkSpeedLimit@@YAXPAUTAG_ACTOR_PHYSICS@@M@Z 004537b0 f   physics.obj
 0001:00052820       ?applyInertia@@YAXPAUTAG_ACTOR_PHYSICS@@@Z 00453820 f   physics.obj
 0001:00052a70       ?InitFloorPolishers@@YAXXZ 00453a70 f   floorpolisher.obj
 0001:00052af0       ?CreateFloorPolisherInfo@@YAPAUPOLISHERINFO@@XZ 00453af0 f   floorpolisher.obj
 0001:00052bb0       ??0POLISHERINFO@@QAE@XZ    00453bb0 f i floorpolisher.obj
 0001:00052c10       ?init@POLISHERINFO@@QAEXXZ 00453c10 f i floorpolisher.obj
 0001:00052cb0       ?CreateFloorPolisher@@YAXPAUTAG_ACTORINSTANCE@@@Z 00453cb0 f   floorpolisher.obj
 0001:00052d10       ?UpdateFloorPolisher@@YAXQAUTAG_ACTORINSTANCE@@@Z 00453d10 f   floorpolisher.obj
 0001:00053710       ?bmVector2DSub@@YAXQAMQBM1@Z 00454710 f i floorpolisher.obj
 0001:00053750       ?init@FPTRAILSTAR@@QAEXQAM@Z 00454750 f i floorpolisher.obj
 0001:00053800       ?DrawFloorPolisher@@YAXQAUTAG_ACTORINSTANCE@@@Z 00454800 f   floorpolisher.obj
 0001:00053a20       ?RespondToFloorPolisherCollision@@YAHPAUTAG_ACTORINSTANCE@@0@Z 00454a20 f   floorpolisher.obj
 0001:00053d60       ?CharacterRespondToFloorPolisherControl@@YAXPAUTAG_PADCONTROLSTATUS@@PAUTAG_CAMERAINFO@@PAUTAG_ACTORINSTANCE@@@Z 00454d60 f   floorpolisher.obj
 0001:00054130       ?ChooseCorrectTazOnFloorPolisherAnimations@@YAXPAUTAG_ACTORINSTANCE@@PAUTAG_PADCONTROLSTATUS@@@Z 00455130 f   floorpolisher.obj
 0001:000542c0       ?FloorPolisherSoundCallback@@YAXPAX@Z 004552c0 f   floorpolisher.obj
 0001:00054330       ?update@FPTRAILSTAR@@QAEXXZ 00455330 f   floorpolisher.obj
 0001:000543c0       ?draw@FPTRAILSTAR@@QAEXXZ  004553c0 f   floorpolisher.obj
 0001:00054440       ?init@?$LOOPARRAY@U_TBPrimVertex@@$0CA@@@QAEXQBD@Z 00455440 f i floorpolisher.obj
 0001:000544a0       ??0?$LOOPARRAY@U_TBPrimVertex@@$0CA@@@QAE@QBD@Z 004554a0 f i floorpolisher.obj
 0001:000544e0       ?getNew@?$LOOPARRAY@U_TBPrimVertex@@$0CA@@@QAEPAU_TBPrimVertex@@H@Z 004554e0 f i floorpolisher.obj
 0001:00054650       ?getYoungest@?$LOOPARRAY@U_TBPrimVertex@@$0CA@@@QAEPAU_TBPrimVertex@@H@Z 00455650 f i floorpolisher.obj
 0001:000546d0       ?copyToBuffer@?$LOOPARRAY@U_TBPrimVertex@@$0CA@@@QAEXQAU_TBPrimVertex@@@Z 004556d0 f i floorpolisher.obj
 0001:00054790       ?init@?$LOOPARRAY@UFPTRAILSTAR@@$05@@QAEXQBD@Z 00455790 f i floorpolisher.obj
 0001:000547f0       ??0?$LOOPARRAY@UFPTRAILSTAR@@$05@@QAE@QBD@Z 004557f0 f i floorpolisher.obj
 0001:00054850       ?getNew@?$LOOPARRAY@UFPTRAILSTAR@@$05@@QAEPAUFPTRAILSTAR@@H@Z 00455850 f i floorpolisher.obj
 0001:000549c0       ?discardOldest@?$LOOPARRAY@UFPTRAILSTAR@@$05@@QAEXH@Z 004559c0 f i floorpolisher.obj
 0001:00054a80       ??0FPTRAILSTAR@@QAE@XZ     00455a80 f i floorpolisher.obj
 0001:00054ac0       ?discardOldest@?$LOOPARRAY@U_TBPrimVertex@@$0CA@@@QAEXH@Z 00455ac0 f i floorpolisher.obj
 0001:00054b80       ?CreateHovercraft@@YAXPAUTAG_ACTORINSTANCE@@@Z 00455b80 f   hovercraft.obj
 0001:00054bd0       ?RespondToHovercraftCollision@@YAHPAUTAG_ACTORINSTANCE@@0@Z 00455bd0 f   hovercraft.obj
 0001:00054ee0       ?CharacterRespondToHovercraftControl@@YAXPAUTAG_PADCONTROLSTATUS@@PAUTAG_CAMERAINFO@@PAUTAG_ACTORINSTANCE@@@Z 00455ee0 f   hovercraft.obj
 0001:000552e0       ?ChooseCorrectTazOnHovercraftAnimations@@YAXPAUTAG_ACTORINSTANCE@@PAUTAG_PADCONTROLSTATUS@@@Z 004562e0 f   hovercraft.obj
 0001:00055300       ?CreateMineCart@@YAXPAUTAG_ACTORINSTANCE@@I@Z 00456300 f   minecart.obj
 0001:000554f0       ?RespondToMineCartCollision@@YAHPAUTAG_ACTORINSTANCE@@0@Z 004564f0 f   minecart.obj
 0001:00055670       ?UpdateMineCart@@YAXPAUTAG_ACTORINSTANCE@@@Z 00456670 f   minecart.obj
 0001:00055b80       ?AnimateMineCart@@YAXPAUTAG_ACTORINSTANCE@@@Z 00456b80 f   minecart.obj
 0001:00055c20       ?CharacterRespondToMineCartInput@@YAXPAUTAG_PADCONTROLSTATUS@@PAUTAG_CAMERAINFO@@PAUTAG_ACTORINSTANCE@@@Z 00456c20 f   minecart.obj
 0001:000560a0       ?CreateMineCartDummy@@YAHPAUTAG_ACTORINSTANCE@@@Z 004570a0 f   minecart.obj
 0001:00056160       ?RespondToMineCartDummyCollision@@YAHPAUTAG_ACTORINSTANCE@@0@Z 00457160 f   minecart.obj
 0001:000561e0       ?UpdateMineCartAnimation@@YAXPAUTAG_ACTORINSTANCE@@@Z 004571e0 f   minecart.obj
 0001:00056220       ?CreatePneumaticPlunger@@YAXQAM@Z 00457220 f   pneumaticplunger.obj
 0001:00056240       ?CreatePneumaticPlungerInfo@@YAHPAUTAG_ACTORINSTANCE@@@Z 00457240 f   pneumaticplunger.obj
 0001:00056270       ?UpdatePneumaticPlunger@@YAXPAUTAG_ACTORINSTANCE@@@Z 00457270 f   pneumaticplunger.obj
 0001:00056290       ?RespondToPneumaticPlungerCollision@@YAHPAUTAG_ACTORINSTANCE@@0@Z 00457290 f   pneumaticplunger.obj
 0001:000562c0       ?CreateRocketbike@@YAXPAUTAG_ACTORINSTANCE@@@Z 004572c0 f   rocketbike.obj
 0001:00056340       ?RespondToRocketbikeCollision@@YAHPAUTAG_ACTORINSTANCE@@0@Z 00457340 f   rocketbike.obj
 0001:00056690       ?CharacterRespondToRocketbikeControl@@YAXPAUTAG_PADCONTROLSTATUS@@PAUTAG_CAMERAINFO@@PAUTAG_ACTORINSTANCE@@@Z 00457690 f   rocketbike.obj
 0001:00056ab0       ?ChooseCorrectTazOnRocketbikeAnimations@@YAXPAUTAG_ACTORINSTANCE@@PAUTAG_PADCONTROLSTATUS@@@Z 00457ab0 f   rocketbike.obj
 0001:00056d10       ?RocketbikeSoundCallback@@YAXPAX@Z 00457d10 f   rocketbike.obj
 0001:00056d40       ?CreateTrolley@@YAXPAUTAG_ACTORINSTANCE@@@Z 00457d40 f   trolley.obj
 0001:00056d90       ?RespondToTrolleyCollision@@YAHPAUTAG_ACTORINSTANCE@@0@Z 00457d90 f   trolley.obj
 0001:00057080       ?CharacterRespondToTrolleyControl@@YAXPAUTAG_PADCONTROLSTATUS@@PAUTAG_CAMERAINFO@@PAUTAG_ACTORINSTANCE@@@Z 00458080 f   trolley.obj
 0001:000574f0       ?ChooseCorrectTazOnTrolleyAnimations@@YAXPAUTAG_ACTORINSTANCE@@PAUTAG_PADCONTROLSTATUS@@@Z 004584f0 f   trolley.obj
 0001:00057840       ?TrolleySoundCallback@@YAXPAX@Z 00458840 f   trolley.obj
 0001:00057870       ?CreateVehicle@@YAHPAUTAG_ACTORINSTANCE@@H@Z 00458870 f   vehicles.obj
 0001:000579c0       ?CreateVehicleInfo@@YAPAUTAG_VEHICLEINFO@@XZ 004589c0 f   vehicles.obj
 0001:00057a30       ?PlaceVehicle@@YAHPAUTAG_ACTORINSTANCE@@QAM@Z 00458a30 f   vehicles.obj
 0001:00057a80       ?FindVehicle@@YAPAUTAG_ACTORINSTANCE@@HH@Z 00458a80 f   vehicles.obj
 0001:00057b00       ?UpdateVehicles@@YAXQAUTAG_ACTORINSTANCELIST@@@Z 00458b00 f   vehicles.obj
 0001:00057ba0       ?DrawVehicles@@YAXQAUTAG_ACTORINSTANCELIST@@@Z 00458ba0 f   vehicles.obj
 0001:00057d20       ??0TAG_GLOBALSAVEDATA@@QAE@XZ 00458d20 f i frontend.obj
 0001:00057e70       ??0TAG_THOUGHTBOOK@@QAE@XZ 00458e70 f i frontend.obj
 0001:00057ec0       ??1TAG_THOUGHTBOOK@@UAE@XZ 00458ec0 f i frontend.obj
 0001:00057f00       ??_ETAG_THOUGHTBOOK@@UAEPAXI@Z 00458f00 f i frontend.obj
 0001:00057f00       ??_GTAG_THOUGHTBOOK@@UAEPAXI@Z 00458f00 f i frontend.obj
 0001:00057f60       ?FrontEnd_stopUsingItem@@YAXXZ 00458f60 f   frontend.obj
 0001:00058070       ?FrontEnd_cancelItem@@YAXXZ 00459070 f   frontend.obj
 0001:000580e0       ?FrontEnd_OKItem@@YAXXZ    004590e0 f   frontend.obj
 0001:00058120       ?ProcessFrontEndState@@YAXPAUTAG_ACTORINSTANCE@@@Z 00459120 f   frontend.obj
 0001:00058140       ?pageFunc_frontPage@@YAXQAUTAG_PAGE@@H@Z 00459140 f   frontend.obj
 0001:00058270       ?pageFunc_secondPage@@YAXQAUTAG_PAGE@@H@Z 00459270 f   frontend.obj
 0001:00058340       ?setTexture@TAG_ICON@@QAE_NPAD@Z 00459340 f i frontend.obj
 0001:000583b0       ?pageFunc_startGame@@YAXQAUTAG_PAGE@@H@Z 004593b0 f   frontend.obj
 0001:00058410       ?pageFunc_mgCategory@@YAXQAUTAG_PAGE@@H@Z 00459410 f   frontend.obj
 0001:000585d0       ?pageFunc_mgVersus@@YAXQAUTAG_PAGE@@H@Z 004595d0 f   frontend.obj
 0001:000587a0       ?pageFunc_mgBoss@@YAXQAUTAG_PAGE@@H@Z 004597a0 f   frontend.obj
 0001:00058940       ?pageFunc_mgSide@@YAXQAUTAG_PAGE@@H@Z 00459940 f   frontend.obj
 0001:00058ae0       ?pageFunc_musVolOpenClose@@YAXQAUTAG_PAGE@@H@Z 00459ae0 f   frontend.obj
 0001:00058b40       ?pageFunc_scrCentreOpen@@YAXQAUTAG_PAGE@@H@Z 00459b40 f   frontend.obj
 0001:00058b60       ?pageFunc_scrCentreClose@@YAXQAUTAG_PAGE@@H@Z 00459b60 f   frontend.obj
 0001:00058b80       ?pageFunc_sfxVolOpenClose@@YAXQAUTAG_PAGE@@H@Z 00459b80 f   frontend.obj
 0001:00058be0       ?pageFunc_vibOpenClose@@YAXQAUTAG_PAGE@@H@Z 00459be0 f   frontend.obj
 0001:00058c50       ?FrontEnd_globalSettingsLoadFinish@@YAX_N@Z 00459c50 f   frontend.obj
 0001:00058d90       ?getPage@TAG_BOOK@@QAEPAUTAG_PAGE@@QBD@Z 00459d90 f i frontend.obj
 0001:00058de0       ?getPage@TAG_BOOK@@QAEPAUTAG_PAGE@@H@Z 00459de0 f i frontend.obj
 0001:00058e50       ?FrontEnd_finishSceneChange@@YAX_N@Z 00459e50 f   frontend.obj
 0001:00058e90       ?FrontEnd_startSceneChange@@YAXH@Z 00459e90 f   frontend.obj
 0001:00058ec0       ?FrontEnd_initialiseThoughtBooks@@YAXXZ 00459ec0 f   frontend.obj
 0001:0005a770       ?setName@TAG_PAGEROW@@QAEXQBD@Z 0045b770 f i frontend.obj
 0001:0005a7c0       ?getLastRow@TAG_PAGE@@QAEPAUTAG_PAGEROW@@XZ 0045b7c0 f i frontend.obj
 0001:0005a810       ??0TAG_SLIDER@@QAE@Q6AXM@ZQBDUTAG_COLOUR@@2H@Z 0045b810 f i frontend.obj
 0001:0005a8e0       ?getRequiredHeight@TAG_SLIDER@@UAEMXZ 0045b8e0 f i frontend.obj
 0001:0005a920       ?getAlignScale@TAG_PAGEITEM@@QAEMXZ 0045b920 f i frontend.obj
 0001:0005a950       ?getRequiredWidth@TAG_SLIDER@@UAEMXZ 0045b950 f i frontend.obj
 0001:0005a990       ??_ETAG_SLIDER@@UAEPAXI@Z  0045b990 f i frontend.obj
 0001:0005a990       ??_GTAG_SLIDER@@UAEPAXI@Z  0045b990 f i frontend.obj
 0001:0005a9f0       ??1TAG_SLIDER@@UAE@XZ      0045b9f0 f i frontend.obj
 0001:0005aa30       ??0TAG_ICON@@QAE@PADQBD@Z  0045ba30 f i frontend.obj
 0001:0005aac0       ?getRequiredHeight@TAG_ICON@@UAEMXZ 0045bac0 f i frontend.obj
 0001:0005ab00       ?getRequiredWidth@TAG_ICON@@UAEMXZ 0045bb00 f i frontend.obj
 0001:0005ab40       ??_ETAG_ICON@@UAEPAXI@Z    0045bb40 f i frontend.obj
 0001:0005ab40       ??_GTAG_ICON@@UAEPAXI@Z    0045bb40 f i frontend.obj
 0001:0005aba0       ??1TAG_ICON@@UAE@XZ        0045bba0 f i frontend.obj
 0001:0005abe0       ??0TAG_ICONCHANGE@@QAE@PAD0Q6AXH@ZPBDII@Z 0045bbe0 f i frontend.obj
 0001:0005aca0       ?getRequiredHeight@TAG_ICONCHANGE@@UAEMXZ 0045bca0 f i frontend.obj
 0001:0005ace0       ??_ETAG_ICONCHANGE@@UAEPAXI@Z 0045bce0 f i frontend.obj
 0001:0005ace0       ??_GTAG_ICONCHANGE@@UAEPAXI@Z 0045bce0 f i frontend.obj
 0001:0005ad40       ??_FTAG_ICON@@QAEXXZ       0045bd40 f i frontend.obj
 0001:0005ad80       ??1TAG_ICONCHANGE@@UAE@XZ  0045bd80 f i frontend.obj
 0001:0005ae00       ?FrontEnd_shutdownThoughtBooks@@YAXXZ 0045be00 f   frontend.obj
 0001:0005ae80       ?InitialiseFrontEndSpecial@@YAXXZ 0045be80 f   frontend.obj
 0001:0005b2e0       ?PrepFrontEndSpecial@@YAXXZ 0045c2e0 f   frontend.obj
 0001:0005b300       ?DrawFrontEndSpecial@@YAXXZ 0045c300 f   frontend.obj
 0001:0005b320       ?FrontEnd_selectItem@@YAXH@Z 0045c320 f   frontend.obj
 0001:0005b490       ?FrontEnd_setPosition@@YAXH@Z 0045c490 f   frontend.obj
 0001:0005b530       ?UpdateFrontEndSpecial@@YAXXZ 0045c530 f   frontend.obj
 0001:0005b8d0       ?ShutdownFrontEndSpecial@@YAXXZ 0045c8d0 f   frontend.obj
 0001:0005b920       ?update@TAG_SLIDER@@UAEXXZ 0045c920 f   frontend.obj
 0001:0005bb00       ?draw@TAG_SLIDER@@UAEXXZ   0045cb00 f   frontend.obj
 0001:0005c610       ?FrontEnd_vibrationICSetFunc@@YAXH@Z 0045d610 f   frontend.obj
 0001:0005c6a0       ?FrontEnd_musicSliderUpdateFunc@@YAXM@Z 0045d6a0 f   frontend.obj
 0001:0005c6e0       ?FrontEnd_SFXSliderUpdateFunc@@YAXM@Z 0045d6e0 f   frontend.obj
 0001:0005c840       ?FrontEnd_useFunc_GRAMOPHONE@@YAXXZ 0045d840 f   frontend.obj
 0001:0005c880       ?FrontEnd_useFunc_DYNAMITE@@YAXXZ 0045d880 f   frontend.obj
 0001:0005c8a0       ?FrontEnd_useFunc_CLOCK@@YAXXZ 0045d8a0 f   frontend.obj
 0001:0005c8c0       ?FrontEnd_useFunc_TELEVISION@@YAXXZ 0045d8c0 f   frontend.obj
 0001:0005cab0       ?FrontEnd_useFunc_ARCH1@@YAXXZ 0045dab0 f   frontend.obj
 0001:0005cb00       ?FrontEnd_useFunc_ARCH2@@YAXXZ 0045db00 f   frontend.obj
 0001:0005cb50       ?FrontEnd_useFunc_ARCH3@@YAXXZ 0045db50 f   frontend.obj
 0001:0005cba0       ?FrontEnd_useFunc_NEWSPAPER@@YAXXZ 0045dba0 f   frontend.obj
 0001:0005cbc0       ?FrontEnd_useFunc_HOUSE@@YAXXZ 0045dbc0 f   frontend.obj
 0001:0005cbf0       ?drawCallback@TAG_THOUGHTBOOK@@SAXQAY03MQAX@Z 0045dbf0 f   frontend.obj
 0001:0005cc90       ?init@TAG_THOUGHTBOOK@@QAEXPAUTAG_THOUGHTBUBBLE@@@Z 0045dc90 f   frontend.obj
 0001:0005cce0       ?open@TAG_THOUGHTBOOK@@QAEXXZ 0045dce0 f   frontend.obj
 0001:0005cdf0       ?setWidth@TAG_RECTANGLE@@QAEXM@Z 0045ddf0 f i frontend.obj
 0001:0005ce50       ?setHeight@TAG_RECTANGLE@@QAEXM@Z 0045de50 f i frontend.obj
 0001:0005ceb0       ?close@TAG_THOUGHTBOOK@@QAEXXZ 0045deb0 f   frontend.obj
 0001:0005cf00       ?hasClosed@TAG_THOUGHTBOOK@@UAEXXZ 0045df00 f   frontend.obj
 0001:0005cf40       ?getSize@?$LINKEDLIST@UTAG_PAGEROW@@@@QBEHXZ 0045df40 f i frontend.obj
 0001:0005cf70       ?getSize@?$LINKEDLIST@UTAG_PAGE@@@@QBEHXZ 0045df70 f i frontend.obj
 0001:0005cfa0       ?get@?$LINKEDLIST@UTAG_PAGEROW@@@@QBEPAUTAG_PAGEROW@@H@Z 0045dfa0 f i frontend.obj
 0001:0005d000       ?get@?$LINKEDLIST@UTAG_PAGE@@@@QBEPAUTAG_PAGE@@H@Z 0045e000 f i frontend.obj
 0001:0005d060       ?getNode@?$LINKEDLIST@UTAG_PAGEROW@@@@ABEPAV1@H@Z 0045e060 f i frontend.obj
 0001:0005d0c0       ?getNode@?$LINKEDLIST@UTAG_PAGE@@@@ABEPAV1@H@Z 0045e0c0 f i frontend.obj
 0001:0005d120       ?update@TAG_ICON@@UAEXXZ   0045e120 f   Icon.obj
 0001:0005d290       ?draw@TAG_ICON@@UAEXXZ     0045e290 f   Icon.obj
 0001:0005d3b0       ?init@TAG_ICON@@QAEXPADQBD@Z 0045e3b0 f   Icon.obj
 0001:0005d500       ?init@TAG_ICONCHANGE@@QAEXPAD0Q6AXH@ZQBDII@Z 0045e500 f   Icon.obj
 0001:0005d680       ?draw@TAG_ICONCHANGE@@UAEXXZ 0045e680 f   Icon.obj
 0001:0005d710       ?update@TAG_ICONCHANGE@@UAEXXZ 0045e710 f   Icon.obj
 0001:0005dfd0       ?setOpacity@TAG_PAGEITEM@@QAEPAU1@M@Z 0045efd0 f i Icon.obj
 0001:0005e010       ?getOpacity@TAG_PAGEITEM@@QBEMXZ 0045f010 f i Icon.obj
 0001:0005e040       ?setTiltPhase@TAG_ICON@@QAEXM@Z 0045f040 f i Icon.obj
 0001:0005e090       ?set@TAG_ICONCHANGE@@QAEXI_N@Z 0045f090 f   Icon.obj
 0001:0005e220       ?toggle@TAG_ICONCHANGE@@QAEX_N@Z 0045f220 f   Icon.obj
 0001:0005e310       ?TextFX_escapeCallback@@YAHW4EBFontCallbackReason@@PAU_TBFontCallbackInfo@@@Z 0045f310 f   TextFX.obj
 0001:0005ff80       ?TextFX_init@@YAXXZ        00460f80 f   TextFX.obj
 0001:00060000       ?TextFX_setAlpha@@YAXE@Z   00461000 f   TextFX.obj
 0001:00060030       ?TextFX_resetAlpha@@YAXXZ  00461030 f   TextFX.obj
 0001:00060060       ?TextFX_vGrad@@YAXEEEEEE@Z 00461060 f   TextFX.obj
 0001:000600e0       ?TextFX_vGrad@@YAXABUTAG_COLOUR@@0@Z 004610e0 f   TextFX.obj
 0001:00060130       ?TextFX_setColour@@YAXEEE@Z 00461130 f   TextFX.obj
 0001:000601a0       ?TextFX_select@@YAX_N@Z    004611a0 f   TextFX.obj
 0001:000601d0       ?TextFX_setColour@@YAXABUTAG_COLOUR@@@Z 004611d0 f   TextFX.obj
 0001:00060220       ?TextFX_resetColour@@YAXXZ 00461220 f   TextFX.obj
 0001:00060280       ?TextFX_setClipWidth@@YAXM@Z 00461280 f   TextFX.obj
 0001:000602d0       ?TextFX_resetClipping@@YAXXZ 004612d0 f   TextFX.obj
 0001:00060300       ?drawDebug@TAG_PAGEITEM@@UAEXXZ 00461300 f   TextFX.obj
 0001:00060580       ?moveX@TAG_RECTANGLE@@QBE?AU1@M@Z 00461580 f i TextFX.obj
 0001:000605f0       ?moveY@TAG_RECTANGLE@@QBE?AU1@M@Z 004615f0 f i TextFX.obj
 0001:00060660       ??_0@YA?AUTAG_RECTANGLE@@AAU0@M@Z 00461660 f i TextFX.obj
 0001:000606e0       ??K@YA?AUTAG_RECTANGLE@@ABU0@M@Z 004616e0 f i TextFX.obj
 0001:00060750       ?getDrawScale@TAG_PAGEITEM@@QAEMXZ 00461750 f i TextFX.obj
 0001:00060780       ?draw@TAG_PAGEITEM@@UAEXXZ 00461780 f   TextFX.obj
 0001:00060b90       ?heightAbs@TAG_RECTANGLE@@QBEMXZ 00461b90 f i TextFX.obj
 0001:00060be0       ?init@TAG_PAGEITEM@@IAEXQBD@Z 00461be0 f   TextFX.obj
 0001:00060d00       ?setXAlign@TAG_PAGEITEM@@UAEPAU1@W4PageItemFlag@@@Z 00461d00 f   TextFX.obj
 0001:00060d60       ?setYAlign@TAG_PAGEITEM@@UAEPAU1@W4PageItemFlag@@@Z 00461d60 f   TextFX.obj
 0001:00060dc0       ?setRect@TAG_PAGEITEM@@UAEXABUTAG_RECTANGLE@@@Z 00461dc0 f   TextFX.obj
 0001:00060fa0       ??1TAG_PAGEITEM@@UAE@XZ    00461fa0 f   TextFX.obj
 0001:00060fe0       ?init@TAG_TEXTBOX@@AAEXW4EStringIndex@@_NW4EBFontFormatting@@2UTAG_COLOUR@@3HQAU_TBFont@@@Z 00461fe0 f   TextFX.obj
 0001:00061110       ?setFontSize@TAG_TEXTBOX@@QAEPAU1@M@Z 00462110 f i TextFX.obj
 0001:00061150       ?drawDebug@TAG_TEXTBOX@@UAEXXZ 00462150 f   TextFX.obj
 0001:00061190       ?draw@TAG_TEXTBOX@@UAEXXZ  00462190 f   TextFX.obj
 0001:00061800       ??E@YA?AW4ETextOffsetDirection@@AAW40@@Z 00462800 f i TextFX.obj
 0001:00061840       ?getFontSize@TAG_TEXTBOX@@QBEMXZ 00462840 f i TextFX.obj
 0001:00061870       ?setRect@TAG_TEXTBOX@@UAEXABUTAG_RECTANGLE@@@Z 00462870 f   TextFX.obj
 0001:00061b40       ??D@YA?AUTAG_RECTANGLE@@ABU0@M@Z 00462b40 f i TextFX.obj
 0001:00061bb0       ?getRequiredWidth@TAG_TEXTBOX@@UAEMXZ 00462bb0 f   TextFX.obj
 0001:00061c60       ?getRequiredHeight@TAG_TEXTBOX@@UAEMXZ 00462c60 f   TextFX.obj
 0001:00061d10       ?sprintf8@TAG_TEXTBOX@@QAAPAU1@QBDZZ 00462d10 f   TextFX.obj
 0001:00061dc0       ?sprintf16@TAG_TEXTBOX@@QAAPAU1@QBGZZ 00462dc0 f   TextFX.obj
 0001:00061e50       ?readPointers@TAG_TEXTBOX@@QAEXPADPAG@Z 00462e50 f   TextFX.obj
 0001:00061f30       ?strcatf@TAG_TEXTBOX@@QAAXQBDZZ 00462f30 f   TextFX.obj
 0001:00061fe0       ?setXAlign@TAG_TEXTBOX@@UAEPAUTAG_PAGEITEM@@W4PageItemFlag@@@Z 00462fe0 f   TextFX.obj
 0001:00062060       ?setYAlign@TAG_TEXTBOX@@UAEPAUTAG_PAGEITEM@@W4PageItemFlag@@@Z 00463060 f   TextFX.obj
 0001:000620e0       ?setText@TAG_TEXTBOX@@QAEXW4EStringIndex@@@Z 004630e0 f   TextFX.obj
 0001:000621c0       ?init@TAG_PAGEROW@@AAEXM@Z 004631c0 f   TextFX.obj
 0001:00062240       ??0TAG_PAGEROW@@QAE@XZ     00463240 f   TextFX.obj
 0001:000622b0       ?wantsYPadding@TAG_PAGEROW@@QAE_NXZ 004632b0 f   TextFX.obj
 0001:00062330       ?getYPadding@TAG_PAGEITEM@@QAE_NXZ 00463330 f i TextFX.obj
 0001:00062370       ?getNumItems@TAG_PAGEROW@@QAEHXZ 00463370 f i TextFX.obj
 0001:000623b0       ?getItem@TAG_PAGEROW@@QAEPAUTAG_PAGEITEM@@H@Z 004633b0 f i TextFX.obj
 0001:000623f0       ?setRect@TAG_PAGEROW@@QAEXABUTAG_RECTANGLE@@@Z 004633f0 f   TextFX.obj
 0001:00062670       ?getXPadding@TAG_PAGEITEM@@QAE_NXZ 00463670 f i TextFX.obj
 0001:000626a0       ?insertItem@TAG_PAGEROW@@QAEXQAUTAG_PAGEITEM@@@Z 004636a0 f   TextFX.obj
 0001:000626f0       ?onInsert@TAG_PAGEITEM@@QAEXXZ 004636f0 f i TextFX.obj
 0001:00062730       ?drawDebug@TAG_PAGEROW@@QAEXXZ 00463730 f   TextFX.obj
 0001:000628a0       ?draw@TAG_PAGEROW@@QAEXXZ  004638a0 f   TextFX.obj
 0001:00062920       ?update@TAG_PAGEROW@@QAEXXZ 00463920 f   TextFX.obj
 0001:000629a0       ?getRequiredWidth@TAG_PAGEROW@@QAEMXZ 004639a0 f   TextFX.obj
 0001:00062a30       ?getRequiredHeight@TAG_PAGEROW@@QAEMXZ 00463a30 f   TextFX.obj
 0001:00062af0       ?select@TAG_PAGEROW@@QAEX_N@Z 00463af0 f   TextFX.obj
 0001:00062b60       ?select@TAG_PAGEITEM@@QAEX_N@Z 00463b60 f i TextFX.obj
 0001:00062b90       ?shutdown@TAG_PAGEROW@@UAEXXZ 00463b90 f   TextFX.obj
 0001:00062c50       ?onRemove@TAG_PAGEITEM@@QAE_NXZ 00463c50 f i TextFX.obj
 0001:00062ca0       ??1TAG_PAGEROW@@QAE@XZ     00463ca0 f   TextFX.obj
 0001:00062ce0       ?init@TAG_PAGE@@AAEXQBDQ6AXQAU1@H@Z2222@Z 00463ce0 f   TextFX.obj
 0001:00062e30       ?setXPadding@TAG_PAGEITEM@@QAEPAU1@_N@Z 00463e30 f i TextFX.obj
 0001:00062ea0       ?setYPadding@TAG_PAGEITEM@@QAEPAU1@_N@Z 00463ea0 f i TextFX.obj
 0001:00062f10       ?setRect@TAG_PAGE@@QAEXXZ  00463f10 f   TextFX.obj
 0001:00062f60       ?insertItem@TAG_PAGE@@QAEPAUTAG_PAGEITEM@@QAU2@HH@Z 00463f60 f   TextFX.obj
 0001:00063060       ?insertItem@TAG_PAGE@@QAEPAUTAG_TEXTBOX@@W4EStringIndex@@H@Z 00464060 f   TextFX.obj
 0001:00063150       ?selectItem@TAG_PAGE@@QAEPAUTAG_PAGEITEM@@QAU2@@Z 00464150 f   TextFX.obj
 0001:000631f0       ?getFirstItem@TAG_PAGE@@QAEPAUTAG_PAGEITEM@@XZ 004641f0 f i TextFX.obj
 0001:00063240       ?getFirstItem@TAG_PAGEROW@@QAEPAUTAG_PAGEITEM@@XZ 00464240 f i TextFX.obj
 0001:00063280       ?getFirstRow@TAG_PAGE@@QAEPAUTAG_PAGEROW@@XZ 00464280 f i TextFX.obj
 0001:000632c0       ?update@TAG_PAGE@@UAEXXZ   004642c0 f   TextFX.obj
 0001:00063370       ?drawDebug@TAG_PAGE@@UAEXXZ 00464370 f   TextFX.obj
 0001:000635d0       ?draw@TAG_PAGE@@UAEXXZ     004645d0 f   TextFX.obj
 0001:00063660       ?setRect@TAG_PAGE@@UAEXABUTAG_RECTANGLE@@@Z 00464660 f   TextFX.obj
 0001:000638b0       ?getRequiredWidth@TAG_PAGE@@UAEMXZ 004648b0 f   TextFX.obj
 0001:00063970       ?getRequiredHeight@TAG_PAGE@@UAEMXZ 00464970 f   TextFX.obj
 0001:00063a40       ?getRow@TAG_PAGE@@QAEPAUTAG_PAGEROW@@QBDQAH@Z 00464a40 f   TextFX.obj
 0001:00063b10       ?selectRow@TAG_PAGE@@QAE_NHQBDH@Z 00464b10 f   TextFX.obj
 0001:00063c10       ?shutdown@TAG_PAGE@@UAEXXZ 00464c10 f   TextFX.obj
 0001:00063cc0       ??1TAG_PAGE@@UAE@XZ        00464cc0 f   TextFX.obj
 0001:00063d40       ?getItem@TAG_PAGE@@UAEPAUTAG_PAGEITEM@@QBD@Z 00464d40 f i TextFX.obj
 0001:00063dd0       ?getItem@TAG_PAGEROW@@QAEPAUTAG_PAGEITEM@@QBD@Z 00464dd0 f i TextFX.obj
 0001:00063e80       ??_ETAG_PAGE@@UAEPAXI@Z    00464e80 f i TextFX.obj
 0001:00063e80       ??_GTAG_PAGE@@UAEPAXI@Z    00464e80 f i TextFX.obj
 0001:00063ee0       ?navigateLeft@TAG_PAGE@@QAEXXZ 00464ee0 f   TextFX.obj
 0001:00064040       ?getX@TAG_PAGEITEM@@QAEMXZ 00465040 f i TextFX.obj
 0001:00064080       ?getY@TAG_PAGEITEM@@QAEMXZ 00465080 f i TextFX.obj
 0001:000640c0       ?navigateRight@TAG_PAGE@@QAEXXZ 004650c0 f   TextFX.obj
 0001:00064220       ?navigate@TAG_PAGE@@QAEXM@Z 00465220 f   TextFX.obj
 0001:000643e0       ?getPos@TAG_PAGEITEM@@QAEXQAM@Z 004653e0 f i TextFX.obj
 0001:00064430       ?bmVector2DDistance@@YAMQBM0@Z 00465430 f i TextFX.obj
 0001:00064490       ?respondToNavigation@TAG_PAGE@@QAEXXZ 00465490 f   TextFX.obj
 0001:00064540       ?setName@TAG_PAGE@@QAEPAUTAG_PAGEITEM@@QBD@Z 00465540 f   TextFX.obj
 0001:000645a0       ?setName@TAG_PAGEITEM@@QAEPAU1@QBD@Z 004655a0 f i TextFX.obj
 0001:00064600       ?findPage@TAG_BOOK@@IAEHQBDQAPBUTAG_PAGE@@@Z 00465600 f   TextFX.obj
 0001:000646b0       ?init@TAG_BOOK@@QAEX_N@Z   004656b0 f   TextFX.obj
 0001:00064840       ?open@TAG_BOOK@@QAEXQBD_NH@Z 00465840 f   TextFX.obj
 0001:00064a00       ?open@TAG_PAGE@@QAEXXZ     00465a00 f i TextFX.obj
 0001:00064a60       ?close@TAG_BOOK@@QAEXM_N@Z 00465a60 f   TextFX.obj
 0001:00064c00       ?close@TAG_PAGE@@QAEXXZ    00465c00 f i TextFX.obj
 0001:00064c60       ?draw@TAG_BOOK@@UAEXXZ     00465c60 f   TextFX.obj
 0001:00064d20       ?setRect@TAG_BOOK@@UAEXABUTAG_RECTANGLE@@@Z 00465d20 f   TextFX.obj
 0001:00064dd0       ?addPage@TAG_BOOK@@QAEPAUTAG_PAGE@@Q6AXQAU2@H@ZQBD11@Z 00465dd0 f   TextFX.obj
 0001:00064ef0       ??0TAG_PAGE@@QAE@QBDQ6AXQAU0@H@Z22@Z 00465ef0 f i TextFX.obj
 0001:00064f90       ?addPage@TAG_BOOK@@QAEPAUTAG_PAGE@@QBDQ6AXQAU2@H@Z22@Z 00465f90 f   TextFX.obj
 0001:00064fe0       ?addPage@TAG_BOOK@@QAEPAUTAG_PAGE@@QAUTAG_PAGEITEM@@Q6AXQAU2@H@ZQBD22@Z 00465fe0 f   TextFX.obj
 0001:00065040       ?addPage@TAG_BOOK@@QAEPAUTAG_PAGE@@W4EStringIndex@@Q6AXQAU2@H@ZQBD22@Z 00466040 f   TextFX.obj
 0001:000650a0       ?removePage@TAG_BOOK@@QAEPAUTAG_PAGE@@QAU2@_N@Z 004660a0 f   TextFX.obj
 0001:000651c0       ?getItem@TAG_BOOK@@UAEPAUTAG_PAGEITEM@@QBD@Z 004661c0 f   TextFX.obj
 0001:000652e0       ?nextPage@TAG_BOOK@@QAEPAUTAG_PAGE@@_N@Z 004662e0 f   TextFX.obj
 0001:000653e0       ?prevPage@TAG_BOOK@@QAEPAUTAG_PAGE@@_N@Z 004663e0 f   TextFX.obj
 0001:000654e0       ?gotoPage@TAG_BOOK@@QAEXQBD_N@Z 004664e0 f   TextFX.obj
 0001:00065530       ?gotoPageNumber@TAG_BOOK@@QAEXH_N@Z 00466530 f   TextFX.obj
 0001:00065660       ?changeMode@TAG_BOOK@@QAEXHM@Z 00466660 f   TextFX.obj
 0001:00065700       ?update@TAG_BOOK@@UAEXXZ   00466700 f   TextFX.obj
 0001:00065bd0       ?hasOpened@TAG_PAGE@@QAEXXZ 00466bd0 f i TextFX.obj
 0001:00065c30       ?hasClosed@TAG_PAGE@@QAEXXZ 00466c30 f i TextFX.obj
 0001:00065c90       ?drawDebug@TAG_BOOK@@UAEXXZ 00466c90 f   TextFX.obj
 0001:00065e30       ?getRequiredHeight@TAG_BOOK@@UAEMXZ 00466e30 f   TextFX.obj
 0001:00065ef0       ?getSelectedItem@TAG_BOOK@@QAEPAUTAG_PAGEITEM@@XZ 00466ef0 f   TextFX.obj
 0001:00065f60       ?getCurrentPage@TAG_BOOK@@QAEPAUTAG_PAGE@@XZ 00466f60 f i TextFX.obj
 0001:00065f90       ?shutdown@TAG_BOOK@@UAEXXZ 00466f90 f   TextFX.obj
 0001:00066020       ??1TAG_BOOK@@UAE@XZ        00467020 f   TextFX.obj
 0001:000660a0       ?setName@TAG_BOOK@@QAEPAUTAG_PAGEITEM@@QBD@Z 004670a0 f   TextFX.obj
 0001:00066100       ?getSize@?$LINKEDLIST@UTAG_PAGEITEM@@@@QBEHXZ 00467100 f i TextFX.obj
 0001:00066130       ??0?$LINKEDLIST@UTAG_PAGEITEM@@@@QAE@QAD@Z 00467130 f i TextFX.obj
 0001:00066180       ?init@?$LINKEDLIST@UTAG_PAGEITEM@@@@QAAXQBDZZ 00467180 f i TextFX.obj
 0001:000661c0       ?get@?$LINKEDLIST@UTAG_PAGEITEM@@@@QBEPAUTAG_PAGEITEM@@H@Z 004671c0 f i TextFX.obj
 0001:00066220       ?append@?$LINKEDLIST@UTAG_PAGEITEM@@@@QAEPAUTAG_PAGEITEM@@QAU2@@Z 00467220 f i TextFX.obj
 0001:00066320       ?shutdown@?$LINKEDLIST@UTAG_PAGEITEM@@@@QAEXXZ 00467320 f i TextFX.obj
 0001:000663b0       ??0?$LINKEDLIST@UTAG_PAGEROW@@@@QAE@QAD@Z 004673b0 f i TextFX.obj
 0001:00066400       ?setName@?$LINKEDLIST@UTAG_PAGEROW@@@@QAAXQBDZZ 00467400 f i TextFX.obj
 0001:00066420       ?init@?$LINKEDLIST@UTAG_PAGEROW@@@@QAAXQBDZZ 00467420 f i TextFX.obj
 0001:00066460       ?getLast@?$LINKEDLIST@UTAG_PAGEROW@@@@QBEPAUTAG_PAGEROW@@XZ 00467460 f i TextFX.obj
 0001:00066490       ?append@?$LINKEDLIST@UTAG_PAGEROW@@@@QAEPAUTAG_PAGEROW@@QAU2@@Z 00467490 f i TextFX.obj
 0001:00066590       ?kill@?$LINKEDLIST@UTAG_PAGEROW@@@@QAEXXZ 00467590 f i TextFX.obj
 0001:00066660       ?setName@?$LINKEDLIST@UTAG_PAGE@@@@QAAXQBDZZ 00467660 f i TextFX.obj
 0001:00066680       ?append@?$LINKEDLIST@UTAG_PAGE@@@@QAEPAUTAG_PAGE@@QAU2@@Z 00467680 f i TextFX.obj
 0001:00066780       ?remove@?$LINKEDLIST@UTAG_PAGE@@@@QAEXQBUTAG_PAGE@@@Z 00467780 f i TextFX.obj
 0001:000667e0       ?kill@?$LINKEDLIST@UTAG_PAGE@@@@QAEXXZ 004677e0 f i TextFX.obj
 0001:000668c0       ??_GTAG_PAGEROW@@QAEPAXI@Z 004678c0 f i TextFX.obj
 0001:00066920       ?getNode@?$LINKEDLIST@UTAG_PAGEITEM@@@@ABEPAV1@H@Z 00467920 f i TextFX.obj
 0001:00066980       ??0?$LINKEDLIST@UTAG_PAGEITEM@@@@AAE@QAV0@QAUTAG_PAGEITEM@@0@Z 00467980 f i TextFX.obj
 0001:000669d0       ??0?$LINKEDLIST@UTAG_PAGEROW@@@@AAE@QAV0@QAUTAG_PAGEROW@@0@Z 004679d0 f i TextFX.obj
 0001:00066a20       ?getNode@?$LINKEDLIST@UTAG_PAGE@@@@ABEPAV1@QBUTAG_PAGE@@@Z 00467a20 f i TextFX.obj
 0001:00066a80       ?removeNode@?$LINKEDLIST@UTAG_PAGE@@@@AAEXQAV1@@Z 00467a80 f i TextFX.obj
 0001:00066b20       ??0?$LINKEDLIST@UTAG_PAGE@@@@AAE@QAV0@QAUTAG_PAGE@@0@Z 00467b20 f i TextFX.obj
 0001:00066b70       ?InitialiseIcedomeSpecial@@YAXXZ 00467b70 f   icedomespecial.obj
 0001:00066da0       ?ShutdownIcedomeSpecial@@YAXXZ 00467da0 f   icedomespecial.obj
 0001:00066dc0       ?PrepIcedomeSpecial@@YAXXZ 00467dc0 f   icedomespecial.obj
 0001:000670c0       ?RocketProject@@YAXXZ      004680c0 f   icedomespecial.obj
 0001:00067250       ?UpdateIcedomeSpecial@@YAXXZ 00468250 f   icedomespecial.obj
 0001:000672d0       ?CreateSnowball@@YAPAUTAG_ACTORINSTANCE@@PAU1@QAM1M1IPAD@Z 004682d0 f   snowball.obj
 0001:000674d0       ?InitialiseSpecial@@YAXH@Z 004684d0 f   special.obj
 0001:00067770       ?ShutdownSpecial@@YAXH@Z   00468770 f   special.obj
 0001:00067830       ?PrepSpecial@@YAXH@Z       00468830 f   special.obj
 0001:00067890       ?DrawSpecial@@YAXHPAUTAG_CAMERAINFO@@@Z 00468890 f   special.obj
 0001:00067940       ?draw@TAG_BOSSGAME@@QAEXXZ 00468940 f i special.obj
 0001:00067970       ?DrawSpecial2@@YAXHPAUTAG_CAMERAINFO@@@Z 00468970 f   special.obj
 0001:00067a30       ?UpdateSpecial@@YAXH@Z     00468a30 f   special.obj
 0001:00067b80       ?InitActorList@@YAXXZ      00468b80 f   actors.obj
 0001:00067bc0       ?AddActorToActorList@@YAXPAU_TBActor@@PADI@Z 00468bc0 f   actors.obj
 0001:00067cf0       ?AddActorToActorListByCRC@@YAXPAU_TBActor@@II@Z 00468cf0 f   actors.obj
 0001:00067dd0       ?SubActorFromActorList@@YAPAU_TBActor@@PAD@Z 00468dd0 f   actors.obj
 0001:00067ea0       ?LoadActor@@YAHPAD0H@Z     00468ea0 f   actors.obj
 0001:00067ff0       ?LoadActor@@YAHPAD0PAU_TBPackageIndex@@@Z 00468ff0 f   actors.obj
 0001:00068120       ?LoadSet@@YAHPAD0@Z        00469120 f   actors.obj
 0001:00068260       ?FreeActor@@YAHPAD@Z       00469260 f   actors.obj
 0001:000682f0       ?FreeAllActors@@YAXXZ      004692f0 f   actors.obj
 0001:000683f0       ?FreeAllPermanentActors@@YAXXZ 004693f0 f   actors.obj
 0001:000684c0       ?FindActorInstanceInInstanceList@@YAPAUTAG_ACTORINSTANCE@@PADIPAUTAG_ACTORINSTANCELIST@@@Z 004694c0 f   actors.obj
 0001:00068550       ?FindActorInActorList@@YAPAU_TBActor@@PAD@Z 00469550 f   actors.obj
 0001:000685d0       ?FindActorInActorList@@YAPAU_TBActor@@I@Z 004695d0 f   actors.obj
 0001:00068630       ?InitActorInstanceList@@YAXPAUTAG_ACTORINSTANCELIST@@@Z 00469630 f   actors.obj
 0001:00068690       ?SetInstanceListParms@@YAXPAUTAG_ACTORINSTANCELIST@@H@Z 00469690 f   actors.obj
 0001:000686c0       ?InitActorStructures@@YAXPAUTAG_ACTORINSTANCE@@@Z 004696c0 f   actors.obj
 0001:000687e0       ?CreateActorInstance@@YAPAUTAG_ACTORINSTANCE@@PAUTAG_ACTORINSTANCELIST@@PAD1QAM22F@Z 004697e0 f   actors.obj
 0001:00068ac0       ?AddInstanceToInstanceList@@YAXPAUTAG_ACTORINSTANCE@@PAUTAG_ACTORINSTANCELIST@@@Z 00469ac0 f   actors.obj
 0001:00068b50       ?RemoveInstanceFromInstanceList@@YAXPAUTAG_ACTORINSTANCE@@PAUTAG_ACTORINSTANCELIST@@@Z 00469b50 f   actors.obj
 0001:00068bc0       ?CreateActorInstanceFromActorPtr@@YAPAUTAG_ACTORINSTANCE@@PAUTAG_ACTORINSTANCELIST@@PAU_TBActor@@IPAD@Z 00469bc0 f   actors.obj
 0001:00068dd0       ?CreateActorInstanceBehaviour@@YAHPAUTAG_ACTORINSTANCE@@@Z 00469dd0 f   actors.obj
 0001:00068ea0       ?CreateActorInstanceGenericAI@@YAHPAUTAG_ACTORINSTANCE@@PAUTAG_ACTORINSTANCELIST@@1@Z 00469ea0 f   actors.obj
 0001:00068f30       ?CreateActorInstanceAnimation@@YAHPAUTAG_ACTORINSTANCE@@@Z 00469f30 f   actors.obj
 0001:00068fc0       ?CreateActorInstanceStatus@@YAHPAUTAG_ACTORINSTANCE@@@Z 00469fc0 f   actors.obj
 0001:00069050       ?CreateActorInstanceShadow@@YAHPAUTAG_ACTORINSTANCE@@MMMW4_ShadowType@@@Z 0046a050 f   actors.obj
 0001:00069130       ?CreateActorInstanceCharacterInfo@@YAHPAUTAG_ACTORINSTANCE@@@Z 0046a130 f   actors.obj
 0001:000691c0       ?CreateActorInstancePathInfo@@YAHPAUTAG_ACTORINSTANCE@@@Z 0046a1c0 f   actors.obj
 0001:00069270       ?FreeActorInstanceByName@@YAHPAUTAG_ACTORINSTANCELIST@@PAD@Z 0046a270 f   actors.obj
 0001:00069390       ?FreeActorInstance@@YAHPAUTAG_ACTORINSTANCE@@H@Z 0046a390 f   actors.obj
 0001:000694b0       ?FreeDestructibleInfo@@YAXPAUTAG_DESTRUCTIBLEOBJECTINFO@@@Z 0046a4b0 f   actors.obj
 0001:000695d0       ?FreeActorInstanceMemory@@YAXPAUTAG_ACTORINSTANCE@@H@Z 0046a5d0 f   actors.obj
 0001:0006a0a0       ?FreeAllActorInstances@@YAXPAUTAG_ACTORINSTANCELIST@@@Z 0046b0a0 f   actors.obj
 0001:0006a190       ?DrawActorInstances@@YAXPAUTAG_ACTORINSTANCELIST@@I@Z 0046b190 f   actors.obj
 0001:0006a4e0       ?DrawActorInstances2@@YAXPAUTAG_ACTORINSTANCELIST@@@Z 0046b4e0 f   actors.obj
 0001:0006a740       ?DrawActorInstancesDetails@@YAXPAUTAG_ACTORINSTANCELIST@@@Z 0046b740 f   actors.obj
 0001:0006af00       ?CalculateCurrentAlpha@@YAXPAUTAG_ACTORINSTANCELIST@@MMMMM@Z 0046bf00 f   actors.obj
 0001:0006b150       ?PrepActorInstances@@YAXPAUTAG_ACTORINSTANCELIST@@@Z 0046c150 f   actors.obj
 0001:0006b470       ?AnimateActorInstance@@YAXPAUTAG_ACTORINSTANCE@@@Z 0046c470 f   actors.obj
 0001:0006b550       ?AnimateActorInstances@@YAXPAUTAG_ACTORINSTANCELIST@@@Z 0046c550 f   actors.obj
 0001:0006b5d0       ?EnableActorCartoonRenderMode@@YAXPAU_TBActorInstance@@@Z 0046c5d0 f   actors.obj
 0001:0006b6a0       ?EnableActorLineRenderMode@@YAXPAU_TBActorInstance@@@Z 0046c6a0 f   actors.obj
 0001:0006b6f0       ?EnableActorLineOnlyRenderMode@@YAXPAU_TBActorInstance@@@Z 0046c6f0 f   actors.obj
 0001:0006b740       ?DisableActorCartoonRenderMode@@YAXPAU_TBActorInstance@@@Z 0046c740 f   actors.obj
 0001:0006b790       ?SetActorScale@@YAXPAUTAG_ACTORINSTANCE@@QAM@Z 0046c790 f   actors.obj
 0001:0006b7d0       ?SetActorOrienation@@YAXPAUTAG_ACTORINSTANCE@@QAM@Z 0046c7d0 f   actors.obj
 0001:0006b840       ?SetActorOrienation@@YAXPAUTAG_ACTORINSTANCE@@QBM@Z 0046c840 f   actors.obj
 0001:0006b8b0       ?SetActorPosition@@YAXPAUTAG_ACTORINSTANCE@@QAM@Z 0046c8b0 f   actors.obj
 0001:0006b8f0       ?ChangeActorInstance@@YAHPAUTAG_ACTORINSTANCE@@PAU_TBActor@@H1H@Z 0046c8f0 f   actors.obj
 0001:0006bb60       ?SetCollisionCallback@@YAXPAUTAG_ACTORINSTANCE@@P6AH00@Z@Z 0046cb60 f   actors.obj
 0001:0006bb90       ?SetPreCollisionCallback@@YAXPAUTAG_ACTORINSTANCE@@P6AH00@Z@Z 0046cb90 f   actors.obj
 0001:0006bbc0       ?SetOutsideBoundingBoxCallback@@YAXPAUTAG_ACTORINSTANCE@@P6AH00@Z@Z 0046cbc0 f   actors.obj
 0001:0006bbf0       ?DrawActorInstanceZones@@YAXPAUTAG_ACTORINSTANCELIST@@@Z 0046cbf0 f   actors.obj
 0001:0006caa0       ?InitActorAnimation@@YAXPAUTAG_ACTOR_ANIMATION@@@Z 0046daa0 f   animation.obj
 0001:0006cb30       ?PlayAnimationByOtherActorsName@@YAHPAUTAG_ACTORINSTANCE@@0PADMDDMW4EAnimationPriority@@@Z 0046db30 f   animation.obj
 0001:0006cba0       ?PlayAnimationByName@@YAHPAUTAG_ACTORINSTANCE@@PADMDDMW4EAnimationPriority@@@Z 0046dba0 f   animation.obj
 0001:0006cc20       ?PlayAnimationByCRCOfName@@YAHPAUTAG_ACTORINSTANCE@@IMDDMW4EAnimationPriority@@@Z 0046dc20 f   animation.obj
 0001:0006cca0       ?PlayAnimationByName@@YAHPAU_TBActorInstance@@PADMDDMW4EAnimationPriority@@@Z 0046dca0 f   animation.obj
 0001:0006cd20       ?PlayAnimationByNameAndSetCallback@@YAHPAU_TBActorInstance@@PADMDDMP6AHW4EBQueueCallbackReason@@0PAU_TBActorNodeInstance@@PAU_TBActorAnimSegment@@PAX@Z5@Z 0046dd20 f   animation.obj
 0001:0006cda0       ?PlayAnimationBySegmentPointerAndSetCallback@@YAHPAU_TBActorInstance@@PAU_TBActorAnimSegment@@MDDMP6AHW4EBQueueCallbackReason@@0PAU_TBActorNodeInstance@@1PAX@Z4@Z 0046dda0 f   animation.obj
 0001:0006cec0       ?PlayAnimationByNamePart@@YAHPAUTAG_ACTORINSTANCE@@PADMDDMW4EAnimationPriority@@PAU_TBActorNodeInstance@@@Z 0046dec0 f   animation.obj
 0001:0006cf40       ?PlayAnimationBySegmentPointer@@YAHPAUTAG_ACTORINSTANCE@@PAU_TBActorAnimSegment@@MDDMW4EAnimationPriority@@@Z 0046df40 f   animation.obj
 0001:0006d0d0       ?PlayAnimationBySegmentPointer@@YAHPAU_TBActorInstance@@PAU_TBActorAnimSegment@@MDDMW4EAnimationPriority@@@Z 0046e0d0 f   animation.obj
 0001:0006d210       ?PlayAnimationBySegmentPointerPart@@YAHPAUTAG_ACTORINSTANCE@@PAU_TBActorAnimSegment@@MDDMW4EAnimationPriority@@PAU_TBActorNodeInstance@@@Z 0046e210 f   animation.obj
 0001:0006d3a0       ?CurrentAnimation@@YAPAU_TBActorAnimSegment@@PAUTAG_ACTORINSTANCE@@@Z 0046e3a0 f   animation.obj
 0001:0006d3e0       ?CurrentAnimation@@YAPAU_TBActorAnimSegment@@PAU_TBActorInstance@@@Z 0046e3e0 f   animation.obj
 0001:0006d440       ?CheckIfPlayingAnimationPointedTo@@YAHQAU_TBActorInstance@@QBU_TBActorAnimSegment@@@Z 0046e440 f   animation.obj
 0001:0006d4b0       ?UpdateActorAnimation@@YAXPAUTAG_ACTORINSTANCE@@@Z 0046e4b0 f   animation.obj
 0001:0006d670       ?IsCurrentAnimationLooping@@YAHPAUTAG_ACTORINSTANCE@@@Z 0046e670 f   animation.obj
 0001:0006d700       ?GetPriorityOfCurrentAnimation@@YAHPAUTAG_ACTORINSTANCE@@@Z 0046e700 f   animation.obj
 0001:0006d770       ?GetPriorityOfCurrentAnimation@@YAHPAU_TBActorInstance@@@Z 0046e770 f   animation.obj
 0001:0006d7e0       ?FlushAnimationQueue@@YAXPAUTAG_ACTORINSTANCE@@H@Z 0046e7e0 f   animation.obj
 0001:0006d840       ?FlushAnimationQueue@@YAXPAU_TBActorInstance@@H@Z 0046e840 f   animation.obj
 0001:0006d890       ?PlayFixedBlendOfTwoAnimations@@YAXPAU_TBActorInstance@@PAD1PAMMHM@Z 0046e890 f   animation.obj
 0001:0006dad0       ?SetCallbackOnCurrentAnimation@@YAHPAU_TBActorInstance@@P6AHW4EBQueueCallbackReason@@0PAU_TBActorNodeInstance@@PAU_TBActorAnimSegment@@PAX@Z4@Z 0046ead0 f   animation.obj
 0001:0006dbc0       ?SetCallbackOnLastAnimInQueue@@YAHPAU_TBActorInstance@@P6AHW4EBQueueCallbackReason@@0PAU_TBActorNodeInstance@@PAU_TBActorAnimSegment@@PAX@Z4@Z 0046ebc0 f   animation.obj
 0001:0006dcc0       ?SetCallbackOnNamedAnimation@@YAHPAU_TBActorInstance@@PADP6AHW4EBQueueCallbackReason@@0PAU_TBActorNodeInstance@@PAU_TBActorAnimSegment@@PAX@Z5@Z 0046ecc0 f   animation.obj
 0001:0006dda0       ?InitAttachedInfo@@YAXPAUTAG_ACTORINSTANCE@@@Z 0046eda0 f   attach.obj
 0001:0006de20       ?DestroyAttachedInfo@@YAXPAUTAG_ACTORINSTANCE@@@Z 0046ee20 f   attach.obj
 0001:0006dea0       ?AttachObjectToCharacter@@YAHPAUTAG_ACTORINSTANCE@@PAD1QAM22H@Z 0046eea0 f   attach.obj
 0001:0006e140       ?RemoveObjectFromCharacter@@YAXPAUTAG_ACTORINSTANCE@@H@Z 0046f140 f   attach.obj
 0001:0006e1e0       ?PrepAttachedObjects@@YAXPAUTAG_ACTORINSTANCE@@@Z 0046f1e0 f   attach.obj
 0001:0006e400       ?DrawAttachedObjects@@YAXPAUTAG_ACTORINSTANCE@@@Z 0046f400 f   attach.obj
 0001:0006e4e0       ?UpdateAttachedObjects@@YAXPAUTAG_ACTORINSTANCE@@@Z 0046f4e0 f   attach.obj
 0001:0006e580       ?ReturnAttachedObjectInstance@@YAPAU_TBActorInstance@@PAUTAG_ACTORINSTANCE@@H@Z 0046f580 f   attach.obj
 0001:0006e5d0       ?FindAttachedObjectInstance@@YA_NQBUTAG_ACTORINSTANCE@@QBU_TBActorInstance@@@Z 0046f5d0 f   attach.obj
 0001:0006e640       ?GetAttachedObjectsWorldPosition@@YAXPAUTAG_ACTORINSTANCE@@HQAM@Z 0046f640 f   attach.obj
 0001:0006e6b0       ?GetAttachedObjectsWorldPosition@@YAXPAUTAG_ACTORINSTANCE@@PADQAM@Z 0046f6b0 f   attach.obj
 0001:0006e760       ?GetAttachedObjectsHandle@@YAHPAUTAG_ACTORINSTANCE@@PAD@Z 0046f760 f   attach.obj
 0001:0006e800       ?AnimateAttachedObjects@@YAXPAUTAG_ACTORINSTANCE@@PAU_TBActorAnimSegment@@HMDPAX@Z 0046f800 f   attach.obj
 0001:0006e930       ?FlushAttachedObjects@@YAXPAUTAG_ACTORINSTANCE@@@Z 0046f930 f   attach.obj
 0001:0006e9e0       ?InitialiseCharacterInfo@@YAXPAUTAG_ACTORINSTANCE@@@Z 0046f9e0 f   characters.obj
 0001:0006ecb0       ?DestroyCharacterInfo@@YAXPAUTAG_ACTORINSTANCE@@@Z 0046fcb0 f   characters.obj
 0001:0006eef0       ??_GTAG_EATING@@QAEPAXI@Z  0046fef0 f i characters.obj
 0001:0006ef50       ??_GTAG_BLINKEYES@@QAEPAXI@Z 0046ff50 f i characters.obj
 0001:0006efb0       ??1TAG_BLINKEYES@@QAE@XZ   0046ffb0 f i characters.obj
 0001:0006f010       ??_GTAG_SUPERBURP@@QAEPAXI@Z 00470010 f i characters.obj
 0001:0006f070       ?PrepCharacterInfo@@YAXPAUTAG_ACTORINSTANCE@@@Z 00470070 f   characters.obj
 0001:0006f160       ?PrepInstancesCharacterInfo@@YAXPAUTAG_ACTORINSTANCELIST@@@Z 00470160 f   characters.obj
 0001:0006f1e0       ?DrawCharacterInfo@@YAXPAUTAG_ACTORINSTANCE@@@Z 004701e0 f   characters.obj
 0001:0006f2c0       ?DrawInstancesCharacterInfo@@YAXPAUTAG_ACTORINSTANCELIST@@@Z 004702c0 f   characters.obj
 0001:0006f340       ?UpdateCharacterInfo@@YAXPAUTAG_ACTORINSTANCE@@@Z 00470340 f   characters.obj
 0001:0006f700       ?UpdateInstancesCharacterInfo@@YAXPAUTAG_ACTORINSTANCELIST@@@Z 00470700 f   characters.obj
 0001:0006f780       ?CharacterRespondToSpinMovementInput@@YAXPAUTAG_PADCONTROLSTATUS@@PAUTAG_CAMERAINFO@@PAUTAG_ACTORINSTANCE@@_N@Z 00470780 f   characters.obj
 0001:0006fb50       ?CharacterRespondToSteeringControl@@YAXPAUTAG_PADCONTROLSTATUS@@PAUTAG_CAMERAINFO@@PAUTAG_ACTORINSTANCE@@@Z 00470b50 f   characters.obj
 0001:0006fbf0       ?CharacterRespondToSlideMovementInput@@YAXPAUTAG_PADCONTROLSTATUS@@PAUTAG_CAMERAINFO@@PAUTAG_ACTORINSTANCE@@@Z 00470bf0 f   characters.obj
 0001:0006fea0       ?CharacterRespondToSwingMovementInput@@YAXPAUTAG_PADCONTROLSTATUS@@PAUTAG_CAMERAINFO@@PAUTAG_ACTORINSTANCE@@@Z 00470ea0 f   characters.obj
 0001:000700c0       ?CharacterRespondToPlungerMovementInput@@YAXPAUTAG_PADCONTROLSTATUS@@PAUTAG_CAMERAINFO@@PAUTAG_ACTORINSTANCE@@@Z 004710c0 f   characters.obj
 0001:00070100       ?CharacterRespondToMovementInput@@YAXPAUTAG_PADCONTROLSTATUS@@PAUTAG_CAMERAINFO@@PAUTAG_ACTORINSTANCE@@@Z 00471100 f   characters.obj
 0001:00070170       ?CharacterRespondToMesmerisedMovementInput@@YAXPAUTAG_PADCONTROLSTATUS@@PAUTAG_CAMERAINFO@@PAUTAG_ACTORINSTANCE@@@Z 00471170 f   characters.obj
 0001:000701e0       ?CharacterRespondToPortalMovementInput@@YAXPAUTAG_PADCONTROLSTATUS@@PAUTAG_CAMERAINFO@@PAUTAG_ACTORINSTANCE@@@Z 004711e0 f   characters.obj
 0001:000702b0       ?CharacterRespondToDebugMovementInput@@YAXPAUTAG_PADCONTROLSTATUS@@PAUTAG_CAMERAINFO@@PAUTAG_ACTORINSTANCE@@@Z 004712b0 f   characters.obj
 0001:000703c0       ?CharacterRespondToWaterSlideMovementInput@@YAXPAUTAG_PADCONTROLSTATUS@@PAUTAG_CAMERAINFO@@PAUTAG_ACTORINSTANCE@@@Z 004713c0 f   characters.obj
 0001:00070680       ?CharacterRespondToMovementInputOnIce@@YAXPAUTAG_PADCONTROLSTATUS@@PAUTAG_CAMERAINFO@@PAUTAG_ACTORINSTANCE@@@Z 00471680 f   characters.obj
 0001:00070840       ?CharacterRespondToMovementInputInSphere@@YAXPAUTAG_PADCONTROLSTATUS@@PAUTAG_CAMERAINFO@@PAUTAG_ACTORINSTANCE@@@Z 00471840 f   characters.obj
 0001:00070a20       ?CharacterRespondToMovementWhileJumping@@YAXPAUTAG_PADCONTROLSTATUS@@PAUTAG_CAMERAINFO@@PAUTAG_ACTORINSTANCE@@_N@Z 00471a20 f   characters.obj
 0001:00070bb0       ?CharacterRotateToAngle@@YAXPAUTAG_ACTORINSTANCE@@MMMM@Z 00471bb0 f   characters.obj
 0001:00070d20       ?ChooseMovementAnimationForTaz@@YAPAU_TBActorAnimSegment@@PAUTAG_PADCONTROLSTATUS@@PAUTAG_ACTORINSTANCE@@@Z 00471d20 f   characters.obj
 0001:00070df0       ?ChooseMovementAnimationForTazInSphere@@YAPAU_TBActorAnimSegment@@PAUTAG_PADCONTROLSTATUS@@PAUTAG_ACTORINSTANCE@@@Z 00471df0 f   characters.obj
 0001:00070e50       ?ChooseIdleAnimationForTaz@@YAPAU_TBActorAnimSegment@@PAUTAG_PADCONTROLSTATUS@@PAUTAG_ACTORINSTANCE@@PAUTAG_CAMERAINFO@@@Z 00471e50 f   characters.obj
 0001:000711f0       ?ResetCharacterAfterJump@@YAXPAUTAG_ACTORINSTANCE@@@Z 004721f0 f   characters.obj
 0001:00071270       ?TazBite@@YAXPAUTAG_ACTORINSTANCE@@@Z 00472270 f   characters.obj
 0001:000713a0       ?TazAttack@@YAXPAUTAG_ACTORINSTANCE@@PADQAM@Z 004723a0 f   characters.obj
 0001:000714c0       ?TazSpit@@YAPAUTAG_DEBRIS@@PAUTAG_ACTORINSTANCE@@HQAM1MM@Z 004724c0 f   characters.obj
 0001:00071d10       ?TazScare@@YAXPAUTAG_ACTORINSTANCE@@@Z 00472d10 f   characters.obj
 0001:00071db0       ?GetYAngleBetweenLinesOfSight@@YAMQAU_TBActorInstance@@0@Z 00472db0 f   characters.obj
 0001:00071e40       ?GetYAngleFromLineOfSight@@YAMQAU_TBActorInstance@@0@Z 00472e40 f   characters.obj
 0001:00071f20       ?Update@TAG_BLINKEYES@@QAEXXZ 00472f20 f   characters.obj
 0001:000721a0       ??0TAG_BLINKEYES@@QAE@XZ   004731a0 f   characters.obj
 0001:00072260       ?Draw@TAG_BLINKEYES@@QAEXPAUTAG_CAMERAINFO@@@Z 00473260 f   characters.obj
 0001:00072380       ?DrawBlinkEyes@@YAXPAUTAG_CAMERAINFO@@@Z 00473380 f   characters.obj
 0001:00072540       ?InitialiseCheats@@YAXXZ   00473540 f   Cheats.obj
 0001:000725e0       ?UpdateCheats@@YAXXZ       004735e0 f   Cheats.obj
 0001:00072690       ?GetFlags@TAG_CUTSCENE@@QAEHXZ 00473690 f i Cheats.obj
 0001:000726c0       ?AwardCheat@@YAXW4ECheat@@@Z 004736c0 f   Cheats.obj
 0001:00072700       ?CheatActive@@YA_NW4ECheat@@@Z 00473700 f i Cheats.obj
 0001:00072740       ?ActivateCheat@@YAXW4ECheat@@@Z 00473740 f   Cheats.obj
 0001:00072b10       ??0TAG_CUTSCENE@@QAE@PADH@Z 00473b10 f i Cheats.obj
 0001:00072b60       ?DeactivateCheat@@YA_NW4ECheat@@@Z 00473b60 f   Cheats.obj
 0001:00072cf0       ?DeactivateAllCheats@@YAXXZ 00473cf0 f   Cheats.obj
 0001:00072d40       ?CheatImplemented@@YA_NW4ECheat@@@Z 00473d40 f   Cheats.obj
 0001:00072d90       ?ShutdownCheats@@YAXXZ     00473d90 f   Cheats.obj
 0001:00072db0       ?LookAtWatch@@YAXXZ        00473db0 f   Cheats.obj
 0001:00072f20       ?CheckForWatchLook@@YAXXZ  00473f20 f   Cheats.obj
 0001:000730a0       ?SetWallpaper@@YAXQBD0W4EWallpaperMode@@@Z 004740a0 f   Cheats.obj
 0001:00073420       ??0?$LINKEDLIST@UTAG_CUTSCENEENTRY@@@@QAE@QAD@Z 00474420 f i Cheats.obj
 0001:00073470       ?init@?$LINKEDLIST@UTAG_CUTSCENEENTRY@@@@QAAXQBDZZ 00474470 f i Cheats.obj
 0001:000734b0       ?InitialiseChrisScene@@YAXHPAUTAG_CAMERAINFO@@0@Z 004744b0 f   chrisscene.obj
 0001:000734d0       ?PrepChrisScene@@YAXH@Z    004744d0 f   chrisscene.obj
 0001:000734f0       ?DrawChrisScene@@YAXHPAUTAG_CAMERAINFO@@@Z 004744f0 f   chrisscene.obj
 0001:00073510       ?UpdateChrisScene@@YAXH@Z  00474510 f   chrisscene.obj
 0001:00073530       ?FreeChrisScene@@YAXH@Z    00474530 f   chrisscene.obj
 0001:00073550       ?InitialiseClaudeScene@@YAXHPAUTAG_CAMERAINFO@@0@Z 00474550 f   claudescene.obj
 0001:00073570       ?PrepClaudeScene@@YAXH@Z   00474570 f   claudescene.obj
 0001:00073590       ?DrawClaudeScene@@YAXHPAUTAG_CAMERAINFO@@@Z 00474590 f   claudescene.obj
 0001:00073680       ?UpdateClaudeScene@@YAXH@Z 00474680 f   claudescene.obj
 0001:000736a0       ?FreeClaudeScene@@YAXH@Z   004746a0 f   claudescene.obj
 0001:000736c0       ?InitCollectibleSystem@@YAXXZ 004746c0 f   collectibles.obj
 0001:00073730       ?CreateCollectibleActor@@YAHPADQAMMHDH@Z 00474730 f   collectibles.obj
 0001:00073920       ?CreateCollectibleTexture@@YAHPADQAMMHDQAH@Z 00474920 f   collectibles.obj
 0001:00073a00       ?CollectibleExtraCreateCallback@@YAXPAU_TBExtraSystem@@PAEPAD@Z 00474a00 f   collectibles.obj
 0001:00073f00       ?CollectibleExtraDeleteCallback@@YAHPAU_TBExtraSystem@@PAE@Z 00474f00 f   collectibles.obj
 0001:00073fd0       ?CollectibleStateChange@@YAXPAUTAG_ACTORINSTANCE@@@Z 00474fd0 f   collectibles.obj
 0001:00074090       ?CollectibleExtraUpdateCallback@@YAXPAU_TBExtraSystem@@HPAPAEM@Z 00475090 f   collectibles.obj
 0001:000744e0       ?UpdateCollectible@@YAHPAUTAG_COLLECTIBLE@@@Z 004754e0 f   collectibles.obj
 0001:00074970       ?CollectibleExtraRenderCallback@@YAXPAU_TBExtraSystem@@HPAPAEPAX@Z 00475970 f   collectibles.obj
 0001:00074f60       ?CollectibleExtraSystemInitCallback@@YAXPAU_TBExtraSystem@@H@Z 00475f60 f   collectibles.obj
 0001:00074f80       ?myStateChangeBubble@@YAXPAUTAG_ACTORINSTANCE@@@Z 00475f80 f   collectibles.obj
 0001:00075110       ?ProcessItemCollected@@YAXPAUTAG_ACTORINSTANCE@@PAUTAG_COLLECTIBLE@@@Z 00476110 f   collectibles.obj
 0001:00075aa0       ?UpdateCollectibleFoodScaleAndOrientation@@YAXPAUTAG_COLLECTIBLE@@M@Z 00476aa0 f   collectibles.obj
 0001:00075b40       ?ShutdownTazCameras@@YAXPAUTAG_ACTORINSTANCE@@@Z 00476b40 f   collectibles.obj
 0001:00075b60       ?InitBarrierSystem@@YAXXZ  00476b60 f   collectibles.obj
 0001:00075b80       ?ShutdownBarrierSystem@@YAXXZ 00476b80 f   collectibles.obj
 0001:00075ba0       ?UpdateBarrierSystem@@YAHXZ 00476ba0 f   collectibles.obj
 0001:00075bd0       ?CreatePowerUpBubbles@@YAXPAUTAG_COLLECTIBLE@@@Z 00476bd0 f   collectibles.obj
 0001:00075d40       ?CreateCollectibleTwinkles@@YAXPAUTAG_COLLECTIBLE@@@Z 00476d40 f   collectibles.obj
 0001:00075f70       ?UpdateTwinkles@@YAXPAUTAG_DEBRIS@@@Z 00476f70 f   collectibles.obj
 0001:00076040       ?CreateCollectibleShower@@YAXPAUTAG_COLLECTIBLE@@M@Z 00477040 f   collectibles.obj
 0001:00076280       ?UpdateCollectiblesShower@@YAXPAUTAG_DEBRIS@@@Z 00477280 f   collectibles.obj
 0001:00076380       ??0TAG_COLOUR@@QAE@ABU0@0M_N@Z 00477380 f   Colour.obj
 0001:00076500       ??H@YA?AUTAG_COLOUR@@ABU0@0@Z 00477500 f i Colour.obj
 0001:00076620       ??D@YA?AUTAG_COLOUR@@MABU0@@Z 00477620 f i Colour.obj
 0001:00076660       ?ProcessInput@@YAXPAUTAG_PLAYER@@@Z 00477660 f   control.obj
 0001:00076930       ?CheckForJump@@YA_NQAUTAG_PLAYER@@@Z 00477930 f   control.obj
 0001:00076b90       ?HandleJumpState@@YAXQAUTAG_PLAYER@@_N1@Z 00477b90 f   control.obj
 0001:000770a0       ?CheckForSpin@@YA_NQAUTAG_PLAYER@@@Z 004780a0 f   control.obj
 0001:000771b0       ?HandleSpinUpState@@YAXQAUTAG_PLAYER@@_N@Z 004781b0 f   control.obj
 0001:00077320       ?RequestMood@TAG_MUSICSYSTEM@@QAEXHH@Z 00478320 f i control.obj
 0001:00077370       ?RequestMood@TAG_STREAM@@QAEXH@Z 00478370 f i control.obj
 0001:000773a0       ?HandleSpinState@@YAXQAUTAG_PLAYER@@_N@Z 004783a0 f   control.obj
 0001:00077730       ?SpinDown@@YAXQAUTAG_PLAYER@@@Z 00478730 f   control.obj
 0001:00077970       ?HandleSpinDownState@@YAXQAUTAG_PLAYER@@@Z 00478970 f   control.obj
 0001:00077b70       ?UpdateCharacterState@@YAXPAUTAG_PLAYER@@@Z 00478b70 f   control.obj
 0001:0007e320       ?RespondToStateChange@@YAHPAUTAG_ACTORINSTANCE@@@Z 0047f320 f   control.obj
 0001:0007e4c0       ?RespondToStateChangePost@@YAXPAUTAG_ACTORINSTANCE@@PAUTAG_ACTOR_STATUS@@@Z 0047f4c0 f   control.obj
 0001:0007e520       ?UpdateSlidePitch@@YAXPAUTAG_ACTORINSTANCE@@M@Z 0047f520 f   control.obj
 0001:0007e5f0       ?MatchGroundOrientation@@YAXPAUTAG_ACTORINSTANCE@@@Z 0047f5f0 f   control.obj
 0001:0007e610       ?UpdateController@@YAXPAUTAG_PADCONTROLSTATUS@@@Z 0047f610 f   control.obj
 0001:0007e900       ?CreateInputChannels@@YAXPAUTAG_PADCONTROLSTATUS@@H@Z 0047f900 f   control.obj
 0001:0007f250       ?DeleteInputChannels@@YAXPAUTAG_PADCONTROLSTATUS@@@Z 00480250 f   control.obj
 0001:0007f290       ?BindInputChannels@@YAHPAUTAG_PADCONTROLSTATUS@@H@Z 00480290 f   control.obj
 0001:0007fc10       ?cdSetTimer@@YAXHMH@Z      00480c10 f   countdown.obj
 0001:0007fc70       ?cdKillTimer@@YAXH@Z       00480c70 f   countdown.obj
 0001:0007fca0       ?cdTestTimer@@YAHH@Z       00480ca0 f   countdown.obj
 0001:0007fda0       ?InitDebrisSystem@@YAXXZ   00480da0 f   debris.obj
 0001:0007ff10       ?CreateDebrisActor@@YAPAUTAG_DEBRIS@@PADQAM11MMMMHIHHM@Z 00480f10 f   debris.obj
 0001:00080000       ?CreateDebrisActor@@YAPAUTAG_DEBRIS@@IQAM00MMMMHIHHM@Z 00481000 f   debris.obj
 0001:000800f0       ?CreateDebrisActor@@YAPAUTAG_DEBRIS@@PAU_TBTexture@@QAM11MMMMHIHHM@Z 004810f0 f   debris.obj
 0001:000801e0       ?CreateDebrisActor@@YAPAUTAG_DEBRIS@@PAUTAG_PRECIPITATION@@QAM11MMMMHIHHM@Z 004811e0 f   debris.obj
 0001:000802d0       ?DebrisExtraCreateCallback@@YAXPAU_TBExtraSystem@@PAEPAD@Z 004812d0 f   debris.obj
 0001:000807a0       ?DebrisExtraDeleteCallback@@YAHPAU_TBExtraSystem@@PAE@Z 004817a0 f   debris.obj
 0001:00080970       ?DebrisExtraUpdateCallback@@YAXPAU_TBExtraSystem@@HPAPAEM@Z 00481970 f   debris.obj
 0001:000811f0       ?DebrisExtraRenderCallback@@YAXPAU_TBExtraSystem@@HPAPAEPAX@Z 004821f0 f   debris.obj
 0001:00081320       ?SmokeExtraRenderCallback@@YAXPAU_TBExtraSystem@@HPAPAEPAX@Z 00482320 f   debris.obj
 0001:00081480       ?BubblesExtraSystemRenderCallback@@YAXPAU_TBExtraSystem@@HPAPAEPAX@Z 00482480 f   debris.obj
 0001:000819b0       ?ChimneyPuffExtraRenderCallback@@YAXPAU_TBExtraSystem@@HPAPAEPAX@Z 004829b0 f   debris.obj
 0001:00081b10       ?PrecipitationExtraRenderCallback@@YAXPAU_TBExtraSystem@@HPAPAEPAX@Z 00482b10 f   debris.obj
 0001:00081ed0       ?ChilliPepperExtraRenderCallback@@YAXPAU_TBExtraSystem@@HPAPAEPAX@Z 00482ed0 f   debris.obj
 0001:00082050       ?DebrisExtraSystemInitCallback@@YAXPAU_TBExtraSystem@@H@Z 00483050 f   debris.obj
 0001:00082070       ?AddActorInstanceStructureToDebris@@YAPAUTAG_ACTORINSTANCE@@PAUTAG_DEBRIS@@@Z 00483070 f   debris.obj
 0001:00082100       ?AddActorBehaviourToDebris@@YAHPAUTAG_DEBRIS@@PAUTAG_ACTORINSTANCE@@@Z 00483100 f   debris.obj
 0001:00082270       ?InitialiseExtrasSystemSpriteVertexBuffers@@YAXXZ 00483270 f   debris.obj
 0001:000822a0       ?FreeExtrasSystemSpriteVertexBuffers@@YAXXZ 004832a0 f   debris.obj
 0001:00082320       ?debugAssert@@YAXPADH0@Z   00483320 f   debug.obj
 0001:000823a0       ?erk@@YAXXZ                004833a0 f   debug.obj
 0001:00082460       ?fmemcpy@@YAXPAX0I@Z       00483460 f   debug.obj
 0001:000824a0       ?chrisRenderExtraSystem@@YAXPAU_TBExtraSystem@@@Z 004834a0 f   debug.obj
 0001:000824f0       ?SwitchBetweenScreenModes@@YAXPAUTAG_DISPLAYSETTINGS@@@Z 004834f0 f   display.obj
 0001:00082560       ?SetupDisplay@@YAHPAUTAG_DISPLAYSETTINGS@@@Z 00483560 f   display.obj
 0001:00082660       ?SetFog@@YAXMMUTAG_COLOUR@@@Z 00483660 f   display.obj
 0001:000826f0       ?DisableFog@@YAXXZ         004836f0 f   display.obj
 0001:00082730       ?FadeFieldOfView@@YAXXZ    00483730 f   display.obj
 0001:000827f0       ?SetFadeFieldOfView@@YAXMM@Z 004837f0 f   display.obj
 0001:00082860       ?DrawRectangle@@YAXABUTAG_RECTANGLE@@ABUTAG_COLOUR@@@Z 00483860 f   display.obj
 0001:00082980       ?DrawHollowRect@@YAXABUTAG_RECTANGLE@@ABUTAG_COLOUR@@@Z 00483980 f   display.obj
 0001:00082a50       ?DrawLine@@YAXMMMMABUTAG_COLOUR@@@Z 00483a50 f   display.obj
 0001:00082b90       ?applyFOV@@YAXXZ           00483b90 f   display.obj
 0001:00082c10       ?setFOV@@YAXMQAUSCREEN@@@Z 00483c10 f   display.obj
 0001:00082d30       ?setNumScreens@@YAXHW4ESplitScreenMode@@@Z 00483d30 f   display.obj
 0001:00082f40       ?setWidescreen@@YAX_N@Z    00483f40 f   display.obj
 0001:00083010       ?CreateStatsAtEndOfLevel@@YAHPAUTAG_PLAYERSTATS@@H@Z 00484010 f   endoflevelstats.obj
 0001:00083ab0       ?setBackgroundColour@TAG_PAGEITEM@@QAEPAU1@ABUTAG_COLOUR@@@Z 00484ab0 f i endoflevelstats.obj
 0001:00083af0       ?insertRow@TAG_PAGE@@QAEPAUTAG_PAGEROW@@XZ 00484af0 f i endoflevelstats.obj
 0001:00083bb0       ?CreateNameEntryPageAtEndOfLevel@@YAXPAUTAG_PLAYERSTATS@@@Z 00484bb0 f   endoflevelstats.obj
 0001:00083ec0       ?CreateHighScoreTablePage@@YAXPAUTAG_PLAYERSTATS@@W4EScene@@@Z 00484ec0 f   endoflevelstats.obj
 0001:000847f0       ?UpdateStatsAtEndOfLevel@@YAXPAUTAG_PLAYERSTATS@@@Z 004857f0 f   endoflevelstats.obj
 0001:00084d40       ?UpdateNameEntryPage@@YAXPAUTAG_PLAYERSTATS@@@Z 00485d40 f   endoflevelstats.obj
 0001:00085230       ?DrawStatsAtEndOfLevel@@YAXPAUTAG_PLAYERSTATS@@@Z 00486230 f   endoflevelstats.obj
 0001:00085290       ?IncrementDecrementScoreCharacter@@YADDI@Z 00486290 f   endoflevelstats.obj
 0001:000853a0       ??0TAG_PLAYERSTATS@@QAE@XZ 004863a0 f i events.obj
 0001:00085420       ?CreateEventManagers@@YAHXZ 00486420 f   events.obj
 0001:00085690       ?CreateEventHandlers@@YAHXZ 00486690 f   events.obj
 0001:00085860       ?DeleteEventHandlers@@YAXXZ 00486860 f   events.obj
 0001:000859a0       ?DeleteEventManagers@@YAXXZ 004869a0 f   events.obj
 0001:00085b20       ?CreateTriggerInfo@@YAPAUTAG_TRIGGERINFO@@H@Z 00486b20 f   events.obj
 0001:00085c90       ?CopyTriggerInfo@@YAPAUTAG_TRIGGERINFO@@PAU1@@Z 00486c90 f   events.obj
 0001:00085f70       ?CreateTrigger@@YAHPAUTAG_TRIGGERINFO@@PAD1@Z 00486f70 f   events.obj
 0001:00086080       ?AddTrigger@@YAHPAUTAG_TRIGGERINFO@@PAD1@Z 00487080 f   events.obj
 0001:000860f0       ?SendTrigger@@YAXPAUTAG_TRIGGERINFO@@@Z 004870f0 f   events.obj
 0001:000861a0       ?DeleteTriggerInfo@@YAXPAUTAG_TRIGGERINFO@@@Z 004871a0 f   events.obj
 0001:000862f0       ?RespondToSoundMessages@@YAXXZ 004872f0 f   events.obj
 0001:00086440       ?RespondToFootstepMessages@@YAXXZ 00487440 f   events.obj
 0001:00086750       ?RespondToZooBossMessages@@YAXXZ 00487750 f   events.obj
 0001:000868f0       ?RespondToWestBossMessages@@YAXXZ 004878f0 f   events.obj
 0001:000869f0       ?EnterHubUpdate@@YAXH@Z    004879f0 f   events.obj
 0001:00086af0       ?RespondToSceneChangeMessages@@YAXXZ 00487af0 f   events.obj
 0001:000872c0       ?setText@TAG_TEXTBOX@@QAEXQAD@Z 004882c0 f i events.obj
 0001:00087470       ?RespondToCameraMessages@@YAXXZ 00488470 f   events.obj
 0001:000874e0       ?RespondToTriggerMessages@@YAXXZ 004884e0 f   events.obj
 0001:000875b0       ?ProcessTriggerForSpecialTypes@@YAXPAD0@Z 004885b0 f   events.obj
 0001:00087ff0       ?RespondToPlatformMessages@@YAXXZ 00488ff0 f   events.obj
 0001:00088440       ?RespondToAnimationMessages@@YAXXZ 00489440 f   events.obj
 0001:00088940       ?RespondToSpecialMessages@@YAXXZ 00489940 f   events.obj
 0001:00088f10       ?InitFileSystem@@YAXXZ     00489f10 f   files.obj
 0001:00088f50       ?CloseFileSystem@@YAXXZ    00489f50 f   files.obj
 0001:00088fa0       ?CheckFileTag@@YAHPAD0I@Z  00489fa0 f   files.obj
 0001:00089040       ?InitialisePackfileIndex@@YAXXZ 0048a040 f   files.obj
 0001:00089080       ?AddPackfileToIndex@@YAPAUTAG_PACKAGEENTRY@@PAU_TBPackageIndex@@PAD@Z 0048a080 f   files.obj
 0001:000891b0       ?RemovePackfileFromIndex@@YAXPAU_TBPackageIndex@@PAD@Z 0048a1b0 f   files.obj
 0001:00089290       ?LoadWholePackage@@YAPAU_TBPackageIndex@@PADD@Z 0048a290 f   files.obj
 0001:00089460       ?LoadWholePackageBkg@@YAPAU_TBPackageIndex@@PAD0D@Z 0048a460 f   files.obj
 0001:000894e0       ?PackageLoaded@@YAXPAD0PAX@Z 0048a4e0 f   files.obj
 0001:000895b0       ?FreeWholePackageGroup@@YAXD@Z 0048a5b0 f   files.obj
 0001:00089640       ?FreeWholePackage@@YAXPAD@Z 0048a640 f   files.obj
 0001:000896b0       ?FindPackage@@YAPAU_TBPackageIndex@@PAD@Z 0048a6b0 f   files.obj
 0001:00089740       ?GetPackageState@@YAHPAD@Z 0048a740 f   files.obj
 0001:00089870       ?GetCurrentBkgLoadingStatus@@YAHXZ 0048a870 f   files.obj
 0001:000898f0       ?DrawLoadLoop@@YAXH@Z      0048a8f0 f   files.obj
 0001:00089b70       ?InitialiseLoadingBar@@YAXXZ 0048ab70 f   files.obj
 0001:00089bb0       ?AddToLoadingBar@@YAXH@Z   0048abb0 f   files.obj
 0001:00089be0       ?RemoveFromLoadingBar@@YAXH@Z 0048abe0 f   files.obj
 0001:00089c10       ?DrawLoadingBar@@YAXXZ     0048ac10 f   files.obj
 0001:00089fc0       ?ProcessConfigFile@@YAXXZ  0048afc0 f   files.obj
 0001:00089fe0       ?LoadFont@@YAPAU_TBFont@@PAD0@Z 0048afe0 f   font.obj
 0001:0008a080       ?FreeFont@@YAXPAU_TBFont@@@Z 0048b080 f   font.obj
 0001:0008a0d0       ?LoadStringTable@@YAPAU_TBStringTable@@PAD0@Z 0048b0d0 f   font.obj
 0001:0008a150       ?FreeStringTable@@YAXPAU_TBStringTable@@@Z 0048b150 f   font.obj
 0001:0008a1a0       ?init@TAG_MULTIPLAYER_PREFS@@QAEXXZ 0048b1a0 f   GlobalSettings.obj
 0001:0008a1f0       ??0TAG_MULTIPLAYER_PREFS@@QAE@XZ 0048b1f0 f   GlobalSettings.obj
 0001:0008a230       ?init@TAG_GLOBALSETTINGS@@QAEXXZ 0048b230 f   GlobalSettings.obj
 0001:0008a2c0       ??0TAG_GLOBALSETTINGS@@QAE@XZ 0048b2c0 f   GlobalSettings.obj
 0001:0008a310       ?ReadFromGameSave@TAG_GLOBALSETTINGS@@QAEHXZ 0048b310 f   GlobalSettings.obj
 0001:0008a490       ?WriteToGameSave@TAG_GLOBALSETTINGS@@QAEHXZ 0048b490 f   GlobalSettings.obj
 0001:0008a5b0       ?CreateMenuBar@@YAXXZ      0048b5b0 f   gui.obj
 0001:0008ad90       ?CreateSceneMenu@@YAXXZ    0048bd90 f   gui.obj
 0001:0008afd0       ?GuiCallback@@YAHPAU_TBGuiEventInfo@@@Z 0048bfd0 f   gui.obj
 0001:0008c1e0       ?toggleWidescreen@@YAXXZ   0048d1e0 f i gui.obj
 0001:0008c220       ?guiChangeScene@@YAXH@Z    0048d220 f   gui.obj
 0001:0008c2a0       ?guiCreateEnemy@@YAPAUTAG_ACTORINSTANCE@@PADQAMI@Z 0048d2a0 f   gui.obj
 0001:0008c7c0       ?guiSetCheatTick@@YAXW4ECheat@@@Z 0048d7c0 f   gui.obj
 0001:0008c830       ?guiClearCheatTick@@YAXW4ECheat@@@Z 0048d830 f   gui.obj
 0001:0008c8a0       ?UpdateGuiItems@@YAXXZ     0048d8a0 f   gui.obj
 0001:0008cf30       ?InitCharactersHealth@@YAXPAUTAG_CHARACTERINFO@@M@Z 0048df30 f   health.obj
 0001:0008cfb0       ?InitHealthInfo@@YAXPAUTAG_HEALTH@@@Z 0048dfb0 f   health.obj
 0001:0008d310       ?ResetCharactersHealth@@YAXPAUTAG_CHARACTERINFO@@@Z 0048e310 f   health.obj
 0001:0008d350       ?ReduceCharactersHealth@@YAXPAUTAG_ACTORINSTANCE@@M@Z 0048e350 f   health.obj
 0001:0008d3e0       ?IncreaseCharactersHealth@@YAXPAUTAG_CHARACTERINFO@@M@Z 0048e3e0 f   health.obj
 0001:0008d430       ?IncreaseCharactersBurp@@YAXPAUTAG_CHARACTERINFO@@H@Z 0048e430 f   health.obj
 0001:0008d480       ?ProcessCharacterDeath@@YAXPAUTAG_ACTORINSTANCE@@@Z 0048e480 f   health.obj
 0001:0008d540       ?PrepCharactersHealth@@YAXPAUTAG_ACTORINSTANCE@@@Z 0048e540 f   health.obj
 0001:0008d710       ?CreateHealthThoughtBubble@@YAHPAUTAG_CHARACTERINFO@@@Z 0048e710 f   health.obj
 0001:0008d740       ?DrawCharactersHealth@@YAXPAUTAG_ACTORINSTANCE@@@Z 0048e740 f   health.obj
 0001:0008daa0       ?ResetCharacterPropertiesAfterDeath@@YAXPAUTAG_ACTORINSTANCE@@@Z 0048eaa0 f   health.obj
 0001:0008db20       ?UpdateCharactersHealthDisplay@@YAXPAUTAG_HEALTH@@@Z 0048eb20 f   health.obj
 0001:0008dbe0       ?UpdateCharactersHealthDisplayGeometry@@YAXPAUTAG_ACTORINSTANCE@@@Z 0048ebe0 f   health.obj
 0001:0008de90       ?InitialiseHighScores@@YAXXZ 0048ee90 f   highscores.obj
 0001:0008e050       ?CalculateRankAtEndOfLevel@@YAMPAUTAG_PLAYERSTATS@@@Z 0048f050 f   highscores.obj
 0001:0008e120       ?CalculateRankFromFloat@@YA?AW4EStringIndex@@M@Z 0048f120 f   highscores.obj
 0001:0008e1a0       ?ConvertSceneRefToLevelScoreRef@@YA?AW4ELevelScores@@W4EScene@@@Z 0048f1a0 f   highscores.obj
 0001:0008e270       ?CheckRankAgainstCurrentTopTen@@YAHPAUTAG_PLAYERSTATS@@W4EScene@@@Z 0048f270 f   highscores.obj
 0001:0008e2e0       ?AddNewRecordToStats@@YAXPAUTAG_PLAYERSTATS@@W4EScene@@@Z 0048f2e0 f   highscores.obj
 0001:0008e730       ?CreateInvisibleObject@@YAXPAUTAG_ACTORINSTANCE@@QAM@Z 0048f730 f   invisibleobjects.obj
 0001:0008e7e0       ??0TAG_DISPLAYSETTINGS@@QAE@XZ 0048f7e0 f i main.obj
 0001:0008e830       ??0SCREEN@@QAE@XZ          0048f830 f i main.obj
 0001:0008e8f0       ??0TAG_GAMESTATUS@@QAE@XZ  0048f8f0 f i main.obj
 0001:0008e930       ?Main@@YAXPAX@Z            0048f930 f   main.obj
 0001:0008f800       ?State@TAG_CUTSCENE@@QAE?AW4ECutsceneState@@XZ 00490800 f i main.obj
 0001:0008f850       ?MainLoop@@YAXHP6AXH@ZH0H@Z 00490850 f   main.obj
 0001:0008ffa0       ?MainSplash@@YAXXZ         00490fa0 f   main.obj
 0001:000901f0       ?DefaultPausePredrawFunc@@YAXH@Z 004911f0 f   main.obj
 0001:00090210       ?MainObjectViewer@@YAXXZ   00491210 f   main.obj
 0001:00090350       ?InitGameState@@YAXPAUTAG_GAMESTATUS@@@Z 00491350 f   main.obj
 0001:00090430       ?SetGameState@@YAXPAUTAG_GAMESTATUS@@W4EGameState@@W4ESubGameState@@HH@Z 00491430 f   main.obj
 0001:000904e0       ?SetGameSubState@@YAXPAUTAG_GAMESTATUS@@W4ESubGameState@@@Z 004914e0 f   main.obj
 0001:00090510       ?GetCurrentGameState@@YAHPAUTAG_GAMESTATUS@@@Z 00491510 f   main.obj
 0001:00090540       ?GetCurrentGameSubState@@YAHPAUTAG_GAMESTATUS@@@Z 00491540 f   main.obj
 0001:00090570       ?ChangeScene@@YAHPAUTAG_GAMESTATUS@@H@Z 00491570 f   main.obj
 0001:00090740       ?SetScene@@YAHPAUTAG_GAMESTATUS@@H@Z 00491740 f   main.obj
 0001:000907d0       ?PrintGameText@@YAXPAUTAG_PLAYER@@@Z 004917d0 f   main.obj
 0001:00090c00       ?ApplyGameSpeedAdjustments@@YAXXZ 00491c00 f   main.obj
 0001:00090d30       ?TakeScreenShot@@YAXXZ     00491d30 f   main.obj
 0001:00090d90       _WinMain@16                00491d90 f   main.obj
 0001:00090dd0       ?ProcessCommandLine@@YAXXZ 00491dd0 f   main.obj
 0001:00090e80       ?strcatf@@YAPADQADQBDZZ    00491e80 f   main.obj
 0001:00090ee0       ?Init@TAG_MAP@@AAEHXZ      00491ee0 f   map.obj
 0001:00091000       ??1TAG_MAP@@QAE@XZ         00492000 f   map.obj
 0001:000910a0       ?Draw@TAG_MAP@@QAEXQAM@Z   004920a0 f   map.obj
 0001:000913d0       ?FindClosestPoint@TAG_MAP@@AAEPAUTAG_MAPPOINT@@QAM@Z 004923d0 f   map.obj
 0001:000914a0       ?AddPoint@TAG_MAP@@QAEXPAUTAG_ACTORINSTANCE@@FFEE@Z 004924a0 f   map.obj
 0001:00091560       ?PosterCompleted@TAG_MAP@@QAEXH@Z 00492560 f   map.obj
 0001:00091600       ?getSize@?$LINKEDLIST@UTAG_MAPPOINT@@@@QBEHXZ 00492600 f i map.obj
 0001:00091630       ?get@?$LINKEDLIST@UTAG_MAPPOINT@@@@QBEPAUTAG_MAPPOINT@@H@Z 00492630 f i map.obj
 0001:00091690       ?append@?$LINKEDLIST@UTAG_MAPPOINT@@@@QAEPAUTAG_MAPPOINT@@QAU2@@Z 00492690 f i map.obj
 0001:00091790       ?remove@?$LINKEDLIST@UTAG_MAPPOINT@@@@QAEXQBUTAG_MAPPOINT@@@Z 00492790 f i map.obj
 0001:000917f0       ?getNode@?$LINKEDLIST@UTAG_MAPPOINT@@@@ABEPAV1@QBUTAG_MAPPOINT@@@Z 004927f0 f i map.obj
 0001:00091850       ?getNode@?$LINKEDLIST@UTAG_MAPPOINT@@@@ABEPAV1@H@Z 00492850 f i map.obj
 0001:000918b0       ?removeNode@?$LINKEDLIST@UTAG_MAPPOINT@@@@AAEXQAV1@@Z 004928b0 f i map.obj
 0001:00091950       ??0?$LINKEDLIST@UTAG_MAPPOINT@@@@AAE@QAV0@QAUTAG_MAPPOINT@@0@Z 00492950 f i map.obj
 0001:000919a0       ?InitialiseMap@@YAHPAUTAG_MAPINFO@@@Z 004929a0 f   mapfile.obj
 0001:00091c70       ??0TAG_MAP@@QAE@XZ         00492c70 f i mapfile.obj
 0001:00091cc0       ?FindActorInstanceInMap@@YAPAUTAG_ACTORINSTANCE@@PADIPAUTAG_MAPINFO@@@Z 00492cc0 f   mapfile.obj
 0001:00091ea0       ?PrepareMap@@YAHPAUTAG_MAPINFO@@@Z 00492ea0 f   mapfile.obj
 0001:00092110       ?DrawMapSet@@YAXPAUTAG_MAPINFO@@PAUTAG_CAMERAINFO@@@Z 00493110 f   mapfile.obj
 0001:000921f0       ?DrawMapSetAlpha@@YAXPAUTAG_MAPINFO@@PAUTAG_CAMERAINFO@@@Z 004931f0 f   mapfile.obj
 0001:000922d0       ?DrawMap@@YAHPAUTAG_MAPINFO@@@Z 004932d0 f   mapfile.obj
 0001:000925a0       ?DrawMap2@@YAHPAUTAG_MAPINFO@@@Z 004935a0 f   mapfile.obj
 0001:00092700       ?UpdateInstanceList@@YAXPAUTAG_ACTORINSTANCELIST@@@Z 00493700 f   mapfile.obj
 0001:00092a00       ?MonitorFX_update@@YAXQAUTAG_ACTORINSTANCE@@@Z 00493a00 f i mapfile.obj
 0001:00092a50       ?UpdateMap@@YAHPAUTAG_MAPINFO@@@Z 00493a50 f   mapfile.obj
 0001:00092cb0       ?FreeMap@@YAHPAUTAG_MAPINFO@@@Z 00493cb0 f   mapfile.obj
 0001:00092e60       ??_GTAG_CUTSCENE@@QAEPAXI@Z 00493e60 f i mapfile.obj
 0001:00092ec0       ??_GTAG_MAP@@QAEPAXI@Z     00493ec0 f i mapfile.obj
 0001:00092f20       ?collateObjectInstances@@YAHPAVCPMNode@@PAX@Z 00493f20 f   mapfile.obj
 0001:00096640       ??0TAG_SECURITYBOX@@QAE@QAM0IPAVCPMNode@@1@Z 00497640 f i mapfile.obj
 0001:00096690       ??0TAG_SPINPAD@@QAE@QAM0@Z 00497690 f i mapfile.obj
 0001:000966e0       ?ReceiveAttrib@@YAHPAVCPMAttrib@@PAX@Z 004976e0 f   mapfile.obj
 0001:00096740       ?ReceiveAttribAndCreateTrigger@@YAHPAVCPMAttrib@@PAX@Z 00497740 f   mapfile.obj
 0001:000968f0       ?GetTrigger@@YAPAUTAG_TRIGGERINFO@@PADPAVCPMNode@@@Z 004978f0 f   mapfile.obj
 0001:00096970       ?ReceiveWaterAttribAndStoreObject@@YAHPAVCPMAttrib@@PAX@Z 00497970 f   mapfile.obj
 0001:00096a40       ?GetWaterResetObjectsFromMap@@YAPAUTAG_WATERRESETINFO@@PADPAVCPMNode@@@Z 00497a40 f   mapfile.obj
 0001:00096ad0       ?ReceiveElectricityPathAttribAndStoreObject@@YAHPAVCPMAttrib@@PAX@Z 00497ad0 f   mapfile.obj
 0001:00096b50       ?GetElectricityPathNodesFromMap@@YAPAUTAG_ELECTRICITYPATHINFO@@PADPAVCPMNode@@@Z 00497b50 f   mapfile.obj
 0001:00096be0       ?GetDebrisObjectsFromMap@@YAPAUTAG_DESTRUCTIBLEDEBRISINFO@@PADPAVCPMNode@@@Z 00497be0 f   mapfile.obj
 0001:00096cd0       ?ReceiveDebrisAttribAndStore@@YAHPAVCPMAttrib@@PAX@Z 00497cd0 f   mapfile.obj
 0001:00096e30       ?collateObjectsNodes@@YAHPAVCPMNode@@PAX@Z 00497e30 f   mapfile.obj
 0001:00096f80       ?collateWorldNodes@@YAHPAVCPMNode@@PAX@Z 00497f80 f   mapfile.obj
 0001:000978d0       ?LoadLOMFile@@YAHPAD@Z     004988d0 f   mapfile.obj
 0001:00097be0       ?FillInAttributes@@YAXPAUTAG_MAPOBJECTATTRIBS@@PAVCPMNode@@@Z 00498be0 f   mapfile.obj
 0001:00098140       ?ChangeAttributes@@YAXPAUTAG_MAPOBJECTATTRIBS@@PAVCPMNode@@@Z 00499140 f   mapfile.obj
 0001:0009b760       ??0?$LINKEDLIST@UTAG_MAPPOINT@@@@QAE@QAD@Z 0049c760 f i mapfile.obj
 0001:0009b7b0       ?init@?$LINKEDLIST@UTAG_MAPPOINT@@@@QAAXQBDZZ 0049c7b0 f i mapfile.obj
 0001:0009b7f0       ?Aabs@@YAMM@Z              0049c7f0 f   maths.obj
 0001:0009b870       ?GetAngleAroundYFromQuat@@YAMQAM@Z 0049c870 f   maths.obj
 0001:0009b910       ?FindShortestAngle@@YAMMM@Z 0049c910 f   maths.obj
 0001:0009b9a0       ?FindShortestAngleSigned@@YAMMM@Z 0049c9a0 f   maths.obj
 0001:0009ba20       ?GetAngleAroundYFromVector@@YAMQAM@Z 0049ca20 f   maths.obj
 0001:0009ba70       ?IsPointInPolyXZ@@YAHQAM000@Z 0049ca70 f   maths.obj
 0001:0009bb40       ?LineIntersectXZ@@YAHQAM000@Z 0049cb40 f   maths.obj
 0001:0009bcb0       ?ClipVector@@YAXQAM00@Z    0049ccb0 f   maths.obj
 0001:0009bd20       ?CreateQuatFromPoints@@YAXQAM00M@Z 0049cd20 f   maths.obj
 0001:0009be30       ?CalcCurve@@YAXQAM000HQAY03M@Z 0049ce30 f   maths.obj
 0001:0009c210       ?FindPointOnCurve@@YAXQAM0000M@Z 0049d210 f   maths.obj
 0001:0009c4c0       ??1TAG_MEMCARDBOOK@@UAE@XZ 0049d4c0 f i MemCard.obj
 0001:0009c500       ?MemCard_init@@YAXXZ       0049d500 f   MemCard.obj
 0001:0009d7b0       ?setBorderColour@TAG_PAGEITEM@@QAEPAU1@ABUTAG_COLOUR@@@Z 0049e7b0 f i MemCard.obj
 0001:0009d7f0       ?MemCard_update@@YAXXZ     0049e7f0 f   MemCard.obj
 0001:0009df10       ?MemCard_draw@@YAXXZ       0049ef10 f   MemCard.obj
 0001:0009e000       ?MemCard_save@@YAXQAXPADHQ6AH_N@Z@Z 0049f000 f   MemCard.obj
 0001:0009e0b0       ?MemCard_load@@YAXQAXPADHQ6AH_N@Z@Z 0049f0b0 f   MemCard.obj
 0001:0009e160       ?MemCard_shutdown@@YAXXZ   0049f160 f   MemCard.obj
 0001:0009e1a0       ?init@TAG_MEMCARDBOOK@@AAEXXZ 0049f1a0 f   MemCard.obj
 0001:0009e210       ??0TAG_MEMCARDBOOK@@QAE@XZ 0049f210 f   MemCard.obj
 0001:0009e290       ??_ETAG_MEMCARDBOOK@@UAEPAXI@Z 0049f290 f i MemCard.obj
 0001:0009e290       ??_GTAG_MEMCARDBOOK@@UAEPAXI@Z 0049f290 f i MemCard.obj
 0001:0009e2f0       ?minimize@TAG_MEMCARDBOOK@@QAEXXZ 0049f2f0 f   MemCard.obj
 0001:0009e330       ?maximize@TAG_MEMCARDBOOK@@QAEXXZ 0049f330 f   MemCard.obj
 0001:0009e370       ?ok@TAG_MEMCARDBOOK@@QAEXXZ 0049f370 f   MemCard.obj
 0001:0009e3d0       ?update@TAG_MEMCARDBOOK@@UAEXXZ 0049f3d0 f   MemCard.obj
 0001:0009e4f0       ?draw@TAG_CARDBROWSER@@UAEXXZ 0049f4f0 f   MemCard.obj
 0001:0009e7c0       ?MemCard_updateFunc_CHECKINGMEDIA@@YAXQAUTAG_PAGE@@H@Z 0049f7c0 f   MemCard.obj
 0001:0009e7e0       ?MemCard_updateFunc_NOMEDIA@@YAXQAUTAG_PAGE@@H@Z 0049f7e0 f   MemCard.obj
 0001:0009e8c0       ?MemCard_updateFunc_FORMATMEDIAYN@@YAXQAUTAG_PAGE@@H@Z 0049f8c0 f   MemCard.obj
 0001:0009e9d0       ?MemCard_updateFunc_FORMATINPROGRESS@@YAXQAUTAG_PAGE@@H@Z 0049f9d0 f   MemCard.obj
 0001:0009e9f0       ?MemCard_updateFunc_FORMATFAILED@@YAXQAUTAG_PAGE@@H@Z 0049f9f0 f   MemCard.obj
 0001:0009ea70       ?MemCard_updateFunc_MEDIAFULL@@YAXQAUTAG_PAGE@@H@Z 0049fa70 f   MemCard.obj
 0001:0009eb20       ?MemCard_updateFunc_SAVEINPROGRESS@@YAXQAUTAG_PAGE@@H@Z 0049fb20 f   MemCard.obj
 0001:0009eb40       ?MemCard_updateFunc_SAVEOK@@YAXQAUTAG_PAGE@@H@Z 0049fb40 f   MemCard.obj
 0001:0009eb60       ?MemCard_updateFunc_SAVEFAILED@@YAXQAUTAG_PAGE@@H@Z 0049fb60 f   MemCard.obj
 0001:0009ec10       ?MemCard_updateFunc_LOADNOTFOUND@@YAXQAUTAG_PAGE@@H@Z 0049fc10 f   MemCard.obj
 0001:0009ec50       ?MemCard_updateFunc_LOADINPROGRESS@@YAXQAUTAG_PAGE@@H@Z 0049fc50 f   MemCard.obj
 0001:0009ec70       ?MemCard_updateFunc_LOADOK@@YAXQAUTAG_PAGE@@H@Z 0049fc70 f   MemCard.obj
 0001:0009ec90       ?MemCard_updateFunc_LOADFAILED@@YAXQAUTAG_PAGE@@H@Z 0049fc90 f   MemCard.obj
 0001:0009ed50       ?MemCard_updateFunc_CANCELED@@YAXQAUTAG_PAGE@@H@Z 0049fd50 f   MemCard.obj
 0001:0009ed70       ?MemCard_setupSaveInfo@@YAXXZ 0049fd70 f   MemCard.obj
 0001:0009edb0       ?LoadFinished@@YAH_N@Z     0049fdb0 f   MemCard.obj
 0001:0009ee00       ?SaveFinished@@YAH_N@Z     0049fe00 f   MemCard.obj
 0001:0009ee30       ?LoadGame@@YAXXZ           0049fe30 f   MemCard.obj
 0001:0009eea0       ?SaveGame@@YAXXZ           0049fea0 f   MemCard.obj
 0001:0009ef20       ?InitialiseSaveGameSlot@@YAXIW4EDifficulty@@@Z 0049ff20 f   MemCard.obj
 0001:0009f030       ??0TAG_MUSICSYSTEM@@QAE@XZ 004a0030 f i music.obj
 0001:0009f0f0       ??1TAG_MUSICSYSTEM@@QAE@XZ 004a00f0 f i music.obj
 0001:0009f130       ?InitialiseMusicSystem@TAG_MUSICSYSTEM@@QAEHXZ 004a0130 f   music.obj
 0001:0009f2a0       ?ReadyAudio@TAG_MUSICSYSTEM@@QAEHPAD@Z 004a02a0 f   music.obj
 0001:0009f390       ?IsFree@TAG_STREAM@@QAEHXZ 004a0390 f i music.obj
 0001:0009f3d0       ?StartAudio@TAG_MUSICSYSTEM@@QAEHHHPADMMH@Z 004a03d0 f   music.obj
 0001:0009f4b0       ?SetVolume@TAG_STREAM@@QAEXHM@Z 004a04b0 f i music.obj
 0001:0009f510       ?SetMood@TAG_STREAM@@QAEXH@Z 004a0510 f i music.obj
 0001:0009f550       ?Play@TAG_STREAM@@QAEXXZ   004a0550 f i music.obj
 0001:0009f5c0       ?FadeAndFreeAll@TAG_MUSICSYSTEM@@QAEXM@Z 004a05c0 f   music.obj
 0001:0009f660       ?FadeDownAudio@TAG_MUSICSYSTEM@@QAEXHHMMH@Z 004a0660 f   music.obj
 0001:0009f6f0       ?FadeUpAudio@TAG_MUSICSYSTEM@@QAEXHHMM@Z 004a06f0 f   music.obj
 0001:0009f760       ?UpdateMusicSystem@TAG_MUSICSYSTEM@@QAEXXZ 004a0760 f   music.obj
 0001:0009f850       ?ShutdownMusicSystem@TAG_MUSICSYSTEM@@QAEXXZ 004a0850 f   music.obj
 0001:0009f910       ??_GTAG_STREAM@@QAEPAXI@Z  004a0910 f i music.obj
 0001:0009f970       ??1TAG_STREAM@@QAE@XZ      004a0970 f i music.obj
 0001:0009f9b0       ?Stop@TAG_STREAM@@QAEXXZ   004a09b0 f i music.obj
 0001:0009fa00       ?FreeAudioStream@TAG_STREAM@@QAEXXZ 004a0a00 f i music.obj
 0001:0009fa60       ??0TAG_STREAM@@QAE@XZ      004a0a60 f   music.obj
 0001:0009fb10       ?SetMoodVolume@TAG_STREAM@@QAEXHM@Z 004a0b10 f   music.obj
 0001:0009fb50       ?Reset@TAG_STREAM@@QAEXXZ  004a0b50 f   music.obj
 0001:0009fbd0       ?Update@TAG_STREAM@@QAEXXZ 004a0bd0 f   music.obj
 0001:0009fe20       ?LoadAudioStream@TAG_STREAM@@QAEHPAU_TBPackageIndex@@PAD@Z 004a0e20 f   music.obj
 0001:0009ff20       ?SetDestVolume@TAG_STREAM@@QAEXHMMH@Z 004a0f20 f   music.obj
 0001:0009ffb0       ?InitObjectViewer@@YAXXZ   004a0fb0 f   objectviewer.obj
 0001:000a02b0       ?DrawObjectViewer@@YAXPAU_TBFont@@@Z 004a12b0 f   objectviewer.obj
 0001:000a4090       ?PrepViewerForUpdate@@YAXXZ 004a5090 f   objectviewer.obj
 0001:000a4540       ?UpdateObjectViewer@@YAXXZ 004a5540 f   objectviewer.obj
 0001:000a5410       ?FreeObjectViewer@@YAXXZ   004a6410 f   objectviewer.obj
 0001:000a54b0       ?InitViewerGrid@@YAXXZ     004a64b0 f   objectviewer.obj
 0001:000a5540       ?DrawViewerGrid@@YAXXZ     004a6540 f   objectviewer.obj
 0001:000a5710       ?DrawViewerGround@@YAXXZ   004a6710 f   objectviewer.obj
 0001:000a5ad0       ?DrawZones@@YAXXZ          004a6ad0 f   objectviewer.obj
 0001:000a69f0       ??0CPMAttrib@@QAE@XZ       004a79f0 f   ParseMap.obj
 0001:000a6a70       ??0CPMAttrib@@QAE@PAV0@@Z  004a7a70 f   ParseMap.obj
 0001:000a6b10       ??1CPMAttrib@@QAE@XZ       004a7b10 f   ParseMap.obj
 0001:000a6b80       ?DeleteAll@CPMAttrib@@QAEXXZ 004a7b80 f   ParseMap.obj
 0001:000a6c10       ??_GCPMAttrib@@QAEPAXI@Z   004a7c10 f i ParseMap.obj
 0001:000a6c70       ?Find@CPMAttrib@@QAEPAV1@PAD@Z 004a7c70 f   ParseMap.obj
 0001:000a6ce0       ??0CPMNode@@QAE@XZ         004a7ce0 f   ParseMap.obj
 0001:000a6df0       ??0CPMNode@@QAE@PAV0@@Z    004a7df0 f   ParseMap.obj
 0001:000a6f10       ??1CPMNode@@QAE@XZ         004a7f10 f   ParseMap.obj
 0001:000a7020       ??_GCPMNode@@QAEPAXI@Z     004a8020 f i ParseMap.obj
 0001:000a7080       ?SetType@CPMNode@@QAEXPAD@Z 004a8080 f   ParseMap.obj
 0001:000a70d0       ?AttachChild@CPMNode@@QAEXPAV1@@Z 004a80d0 f   ParseMap.obj
 0001:000a7150       ?FindChar@@YAPADPADH@Z     004a8150 f   ParseMap.obj
 0001:000a71a0       ?Read@CPMNode@@QAEHPAU_TPMFile@@@Z 004a81a0 f   ParseMap.obj
 0001:000a7630       ?Write@CPMNode@@QAEHPAU_TPMFile@@@Z 004a8630 f   ParseMap.obj
 0001:000a7860       ?AddAttrib@CPMNode@@QAEXPAD0@Z 004a8860 f   ParseMap.obj
 0001:000a79d0       ?AddAttrib@CPMNode@@QAEXPADH@Z 004a89d0 f   ParseMap.obj
 0001:000a7ad0       ?AddAttrib@CPMNode@@QAEXPADM@Z 004a8ad0 f   ParseMap.obj
 0001:000a7bd0       ?AddAttrib@CPMNode@@QAEXPAD_N@Z 004a8bd0 f   ParseMap.obj
 0001:000a7cd0       ?GetAttrib@CPMNode@@QAEPADPAD@Z 004a8cd0 f   ParseMap.obj
 0001:000a7d30       ?GetAttrib@CPMNode@@QAEHPADAAH@Z 004a8d30 f   ParseMap.obj
 0001:000a7da0       ?GetAttrib@CPMNode@@QAEHPADAAM@Z 004a8da0 f   ParseMap.obj
 0001:000a7e10       ?GetAttrib@CPMNode@@QAEHPADAA_N@Z 004a8e10 f   ParseMap.obj
 0001:000a7e80       ?GetAttribType@CPMNode@@QAEHPAD@Z 004a8e80 f   ParseMap.obj
 0001:000a7ee0       ?DelAttrib@CPMNode@@QAEHPAD@Z 004a8ee0 f   ParseMap.obj
 0001:000a7f60       ?EnumAttribs@CPMNode@@QAEHP6AHPAVCPMAttrib@@PAX@Z1@Z 004a8f60 f   ParseMap.obj
 0001:000a7fd0       ?EnumNodes@CPMNode@@QAEHP6AHPAV1@PAX@Z1PAD@Z 004a8fd0 f   ParseMap.obj
 0001:000a8090       ?EnumNodes@CPMNode@@QAEHP6AHPAV1@PAX@Z121PAD@Z 004a9090 f   ParseMap.obj
 0001:000a81a0       ??0CPMLevel@@QAE@XZ        004a91a0 f   ParseMap.obj
 0001:000a8270       ??1CPMLevel@@QAE@XZ        004a9270 f   ParseMap.obj
 0001:000a82d0       ?Read@CPMLevel@@QAEXPAU_TPMFile@@@Z 004a92d0 f   ParseMap.obj
 0001:000a8310       ?Write@CPMLevel@@QAEXPAU_TPMFile@@@Z 004a9310 f   ParseMap.obj
 0001:000a83c0       ?EnumNodes@CPMLevel@@QAEHP6AHPAVCPMNode@@PAX@Z1PAD@Z 004a93c0 f   ParseMap.obj
 0001:000a8410       ?EnumNodes@CPMLevel@@QAEHP6AHPAVCPMNode@@PAX@Z121PAD@Z 004a9410 f   ParseMap.obj
 0001:000a86c0       ?pmLoadLevel@@YAPAVCPMLevel@@PADHH@Z 004a96c0 f   ParseMap.obj
 0001:000a87d0       ?pmDeleteLevel@@YAXPAVCPMLevel@@@Z 004a97d0 f   ParseMap.obj
 0001:000a8830       ??_GCPMLevel@@QAEPAXI@Z    004a9830 f i ParseMap.obj
 0001:000a8890       ?pmOpenFile@@YAPAU_TPMFile@@PADHH@Z 004a9890 f   ParseMap.obj
 0001:000a8b90       ?pmCloseFile@@YAXPAU_TPMFile@@@Z 004a9b90 f   ParseMap.obj
 0001:000a8c40       ?KeyCount@@YAHPAVCPMAttrib@@PAX@Z 004a9c40 f   paths.obj
 0001:000a8cb0       ?PositionKeyFrame@@YAHPAVCPMAttrib@@PAX@Z 004a9cb0 f   paths.obj
 0001:000a8d30       ?PositionKeyX@@YAHPAVCPMAttrib@@PAX@Z 004a9d30 f   paths.obj
 0001:000a8da0       ?PositionKeyY@@YAHPAVCPMAttrib@@PAX@Z 004a9da0 f   paths.obj
 0001:000a8e10       ?PositionKeyZ@@YAHPAVCPMAttrib@@PAX@Z 004a9e10 f   paths.obj
 0001:000a8e80       ?ScaleKeyFrame@@YAHPAVCPMAttrib@@PAX@Z 004a9e80 f   paths.obj
 0001:000a8f00       ?ScaleKeyX@@YAHPAVCPMAttrib@@PAX@Z 004a9f00 f   paths.obj
 0001:000a8f70       ?ScaleKeyY@@YAHPAVCPMAttrib@@PAX@Z 004a9f70 f   paths.obj
 0001:000a8fe0       ?ScaleKeyZ@@YAHPAVCPMAttrib@@PAX@Z 004a9fe0 f   paths.obj
 0001:000a9050       ?RotKeyFrame@@YAHPAVCPMAttrib@@PAX@Z 004aa050 f   paths.obj
 0001:000a90d0       ?RotKeyX@@YAHPAVCPMAttrib@@PAX@Z 004aa0d0 f   paths.obj
 0001:000a9140       ?RotKeyY@@YAHPAVCPMAttrib@@PAX@Z 004aa140 f   paths.obj
 0001:000a91b0       ?RotKeyZ@@YAHPAVCPMAttrib@@PAX@Z 004aa1b0 f   paths.obj
 0001:000a9220       ?RotKeyW@@YAHPAVCPMAttrib@@PAX@Z 004aa220 f   paths.obj
 0001:000a9290       ?CollateAnimStream@@YAHPAVCPMNode@@PAX@Z 004aa290 f   paths.obj
 0001:000a9600       ?CreateSpecialTypePath@@YAXPAVCPMNode@@PAUTAG_MAPOBJECTATTRIBS@@QAM22@Z 004aa600 f   paths.obj
 0001:000a9f70       ?InitialisePathList@@YAXXZ 004aaf70 f   paths.obj
 0001:000a9fb0       ?DestroyPathList@@YAXXZ    004aafb0 f   paths.obj
 0001:000aa050       ?AddPathToList@@YAXPAUTAG_PATH@@PAD@Z 004ab050 f   paths.obj
 0001:000aa170       ?RemovePathFromList@@YAXPAUTAG_PATHLISTENTRY@@@Z 004ab170 f   paths.obj
 0001:000aa1c0       ?FindPathInList@@YAPAUTAG_PATH@@PADI@Z 004ab1c0 f   paths.obj
 0001:000aa250       ?CreatePath@@YAHPAUTAG_PATH@@I@Z 004ab250 f   paths.obj
 0001:000aa2c0       ?DestroyPath@@YAXPAUTAG_PATH@@@Z 004ab2c0 f   paths.obj
 0001:000aa320       ?SetPathNodeLocation@@YAXPAUTAG_PATH@@IQAM11H@Z 004ab320 f   paths.obj
 0001:000aa3b0       ?SetPathNodeAttributes@@YAXPAUTAG_PATH@@M@Z 004ab3b0 f   paths.obj
 0001:000aa3d0       ?ResetPathInfo@@YAXPAUTAG_PATHINFO@@PAUTAG_PATH@@@Z 004ab3d0 f   paths.obj
 0001:000aa470       ?PrepInstancesPathInfo@@YAXPAUTAG_ACTORINSTANCELIST@@@Z 004ab470 f   paths.obj
 0001:000aa5a0       ?UpdatePathInfoInstances@@YAXPAUTAG_ACTORINSTANCELIST@@M@Z 004ab5a0 f   paths.obj
 0001:000aa620       ?UpdatePathInfo@@YAXPAUTAG_ACTORINSTANCE@@M@Z 004ab620 f   paths.obj
 0001:000ab320       ?FollowPathClockwise@@YAXPAUTAG_PATHINFO@@@Z 004ac320 f   paths.obj
 0001:000ab400       ?FollowPathAntiClockwise@@YAXPAUTAG_PATHINFO@@@Z 004ac400 f   paths.obj
 0001:000ab540       ?GetPathPosition@@YAXPAUTAG_PATHINFO@@QAM@Z 004ac540 f   paths.obj
 0001:000ab580       ?GetPathScale@@YAXPAUTAG_PATHINFO@@QAM@Z 004ac580 f   paths.obj
 0001:000ab5c0       ?GetPathOrientation@@YAXPAUTAG_PATHINFO@@QAM@Z 004ac5c0 f   paths.obj
 0001:000ab600       ?SetPathType@@YAXPAUTAG_PATHINFO@@W4EPathType@@@Z 004ac600 f   paths.obj
 0001:000ab630       ?SetPathLoop@@YAXPAUTAG_PATHINFO@@W4EPathLoopMode@@@Z 004ac630 f   paths.obj
 0001:000ab660       ?ChangePathState@@YAXPAUTAG_PATHINFO@@W4EPathInfoState@@@Z 004ac660 f   paths.obj
 0001:000ab880       ?UpdateActorOnPlatform@@YAXPAUTAG_ACTORINSTANCE@@@Z 004ac880 f   paths.obj
 0001:000abe00       ?musicSliderUpdateFunc@@YAXM@Z 004ace00 f   pause.obj
 0001:000abe50       ?sfxSliderUpdateFunc@@YAXM@Z 004ace50 f   pause.obj
 0001:000abea0       ?OpenPauseOptions@@YAXXZ   004acea0 f   pause.obj
 0001:000ac3e0       ?ClosePauseOptions@@YAXXZ  004ad3e0 f   pause.obj
 0001:000ac430       ?removePage@TAG_BOOK@@QAEPAUTAG_PAGE@@H_N@Z 004ad430 f i pause.obj
 0001:000ac480       ?UpdatePauseOptions@@YAXXZ 004ad480 f   pause.obj
 0001:000ac5c0       ?OpenExitMenu@@YAXXZ       004ad5c0 f   pause.obj
 0001:000aca30       ?PauseToExitMenu@@YAXXZ    004ada30 f   pause.obj
 0001:000aca90       ?CloseExitMenu@@YAXXZ      004ada90 f   pause.obj
 0001:000acae0       ?UpdateExitMenu@@YAXXZ     004adae0 f   pause.obj
 0001:000ace80       ?DefaultPauseUpdateFunc@@YAXH@Z 004ade80 f   pause.obj
 0001:000ad160       ?EnterPauseMode@@YAXXZ     004ae160 f   pause.obj
 0001:000ad5b0       ?ExitPauseMode@@YAXXZ      004ae5b0 f   pause.obj
 0001:000ad6d0       ?ReturnToHub@@YAXXZ        004ae6d0 f   pause.obj
 0001:000ad7a0       ??0TAG_CONFIRM@@QAE@H@Z    004ae7a0 f   pause.obj
 0001:000ada40       ??_ETAG_CONFIRM@@UAEPAXI@Z 004aea40 f i pause.obj
 0001:000ada40       ??_GTAG_CONFIRM@@UAEPAXI@Z 004aea40 f i pause.obj
 0001:000adaa0       ??1TAG_CONFIRM@@UAE@XZ     004aeaa0 f   pause.obj
 0001:000adae0       ?Update@TAG_CONFIRM@@QAEHXZ 004aeae0 f   pause.obj
 0001:000add40       ?InitialisePhilScene@@YAXXZ 004aed40 f   PhilScene.obj
 0001:000add90       ?PrepPhilScene@@YAXH@Z     004aed90 f   PhilScene.obj
 0001:000addb0       ?DrawPhilScene@@YAXHPAUTAG_CAMERAINFO@@@Z 004aedb0 f   PhilScene.obj
 0001:000adde0       ?UpdatePhilScene@@YAXH@Z   004aede0 f   PhilScene.obj
 0001:000adee0       ?FreePhilScene@@YAXH@Z     004aeee0 f   PhilScene.obj
 0001:000adf00       ?InitialisePlayers@@YAXXZ  004aef00 f   player.obj
 0001:000adfa0       ?SetupPlayer@@YAPAUTAG_PLAYER@@HPAUTAG_ACTORINSTANCE@@PAUTAG_CAMERAINFO@@PAUTAG_PADCONTROLSTATUS@@@Z 004aefa0 f   player.obj
 0001:000ae070       ?LoadSheDevil@@YAPAUTAG_ACTORINSTANCE@@XZ 004af070 f   player.obj
 0001:000ae210       ?LoadTaz@@YAPAUTAG_ACTORINSTANCE@@XZ 004af210 f   player.obj
 0001:000ae390       ?LoadGameCharacter@@YAPAUTAG_ACTORINSTANCE@@PAD0@Z 004af390 f   player.obj
 0001:000ae530       ?CreatePlayers@@YAXH@Z     004af530 f   player.obj
 0001:000aea30       ?InitialisePlayerStatsAtStartOfGame@@YAXPAUTAG_PLAYERSTATS@@@Z 004afa30 f   playerstats.obj
 0001:000aeae0       ?InitialisePlayerStatsAtStartOfLevel@@YAXXZ 004afae0 f   playerstats.obj
 0001:000aec70       ?AddMoneyToBounty@@YAXPAUTAG_ACTORINSTANCE@@0I@Z 004afc70 f   playerstats.obj
 0001:000aef30       ?InitialiseCharacterResetPoints@@YAXPAUTAG_ACTORINSTANCE@@PAUTAG_ACTORINSTANCELIST@@@Z 004aff30 f   playerstats.obj
 0001:000aefd0       ?InitialisePlayerStatsAtStartOfLevel@@YAXPAUTAG_PLAYERSTATS@@@Z 004affd0 f   playerstats.obj
 0001:000af0c0       ?LevelCompleted@@YAXPAUTAG_ACTORINSTANCE@@@Z 004b00c0 f   playerstats.obj
 0001:000af280       ?AddWantedPosterToStats@@YAHHPAUTAG_ACTORINSTANCE@@I@Z 004b0280 f   playerstats.obj
 0001:000af470       ?AddMailboxToStats@@YAHPAUTAG_ACTORINSTANCE@@0I@Z 004b0470 f   playerstats.obj
 0001:000af540       ?ZeroTazTopCounter@@YAXPAUTAG_ACTORINSTANCE@@@Z 004b0540 f   playerstats.obj
 0001:000af560       ?IncrementTazTopCounter@@YAXPAUTAG_ACTORINSTANCE@@I@Z 004b0560 f   playerstats.obj
 0001:000af5f0       ?setMaxTilt@TAG_ICON@@QAEXM@Z 004b05f0 f i playerstats.obj
 0001:000af630       ?CalculateTotalPauseStats@@YAIQAY09D@Z 004b0630 f   playerstats.obj
 0001:000af6b0       ?CalculatePauseStatsForLevel@@YAIQAY09DI@Z 004b06b0 f   playerstats.obj
 0001:000af720       ?InitOverlay@@YAXXZ        004b0720 f   playerstats.obj
 0001:000af800       ?DrawOverlay@@YAXPAUTAG_PLAYERSTATS@@@Z 004b0800 f   playerstats.obj
 0001:000af950       ?UpdateOverlay@@YAXXZ      004b0950 f   playerstats.obj
 0001:000af970       ?DrawPlayerStats@@YAXPAUTAG_PLAYER@@@Z 004b0970 f   playerstats.obj
 0001:000afca0       ?UpdatePlayerStats@@YAXPAUTAG_PLAYER@@@Z 004b0ca0 f   playerstats.obj
 0001:000b0450       ?DeletePlayerStats@@YAXPAUTAG_PLAYER@@@Z 004b1450 f   playerstats.obj
 0001:000b0500       ?InitialisePlayerStats@@YAXPAUTAG_PLAYER@@@Z 004b1500 f   playerstats.obj
 0001:000b0b10       ?setLag@TAG_ICON@@QAEXM@Z  004b1b10 f i playerstats.obj
 0001:000b0b50       ?setMaxTiltDecay@TAG_ICON@@QAEXM@Z 004b1b50 f i playerstats.obj
 0001:000b0b90       ?ActivateRadarOverlay@@YAXPAUTAG_PLAYER@@@Z 004b1b90 f   playerstats.obj
 0001:000b0c00       ?ActivateMoneyOverlay@@YAXPAUTAG_PLAYER@@@Z 004b1c00 f   playerstats.obj
 0001:000b0c70       ?ActivatePosterDisplay@@YAXPAUTAG_PLAYER@@@Z 004b1c70 f   playerstats.obj
 0001:000b0ce0       ?InitBountyList@@YAXXZ     004b1ce0 f   playerstats.obj
 0001:000b0d20       ?UpdateBountyList@@YAXPAUTAG_BOUNTYLIST@@@Z 004b1d20 f   playerstats.obj
 0001:000b0ec0       ?RemoveBountyFromList@@YAXPAUTAG_BOUNTYLISTENTRY@@@Z 004b1ec0 f   playerstats.obj
 0001:000b0f90       ?DrawBountyList@@YAHPAUTAG_BOUNTYLIST@@@Z 004b1f90 f   playerstats.obj
 0001:000b1190       ?MoneyOverlayCallBack@@YAHW4EBFontCallbackReason@@PAU_TBFontCallbackInfo@@@Z 004b2190 f   playerstats.obj
 0001:000b1be0       ?PlaceActorAtSafePoint@@YAHPAUTAG_ACTORINSTANCE@@@Z 004b2be0 f   playerstats.obj
 0001:000b1d40       ?CalculateGameTimeFormatted@@YAXMPAH00@Z 004b2d40 f   playerstats.obj
 0001:000b1dd0       ?draw@TAG_RECTANGLE@@QBEXABUTAG_COLOUR@@HHHM@Z 004b2dd0 f   Rectangle.obj
 0001:000b2200       ??0TAG_MAPINFO@@QAE@XZ     004b3200 f i scene.obj
 0001:000b2240       ?InitialiseScene@@YAHH@Z   004b3240 f   scene.obj
 0001:000b2850       ?PrepareScene@@YAHH@Z      004b3850 f   scene.obj
 0001:000b2960       ?StartSceneLevelDraw@@YAXHPAUTAG_CAMERAINFO@@@Z 004b3960 f   scene.obj
 0001:000b29b0       ?StartSceneLevelDrawAlpha@@YAXHPAUTAG_CAMERAINFO@@@Z 004b39b0 f   scene.obj
 0001:000b2a60       ?DrawScene@@YAHHPAUTAG_CAMERAINFO@@@Z 004b3a60 f   scene.obj
 0001:000b2cf0       ?DrawScene2@@YAHHPAUTAG_CAMERAINFO@@@Z 004b3cf0 f   scene.obj
 0001:000b2e90       ?UpdateScenePreLevel@@YAXH@Z 004b3e90 f   scene.obj
 0001:000b2ee0       ?UpdateScene@@YAHH@Z       004b3ee0 f   scene.obj
 0001:000b3090       ?FreeScene@@YAHH@Z         004b4090 f   scene.obj
 0001:000b32a0       ?LoadLevelSpecificObjects@@YAXH@Z 004b42a0 f   scene.obj
 0001:000b34f0       ?FreeLevelSpecificObjects@@YAXH@Z 004b44f0 f   scene.obj
 0001:000b3690       ?LoadGenericObjects@@YAXH@Z 004b4690 f   scene.obj
 0001:000b3980       ?LoadPermanentResources@@YAXXZ 004b4980 f   scene.obj
 0001:000b3cf0       ?FreePermanentResources@@YAXXZ 004b4cf0 f   scene.obj
 0001:000b3d60       ?FreeStatsDisplays@@YAXXZ  004b4d60 f   scene.obj
 0001:000b3e20       ?LoadSamples@@YAHPAD@Z     004b4e20 f   sfx.obj
 0001:000b3eb0       ?FreeSamples@@YAXPAD@Z     004b4eb0 f   sfx.obj
 0001:000b3ef0       ?PlaySample@@YAHPADHQAMI@Z 004b4ef0 f   sfx.obj
 0001:000b3fc0       ?PlaySample@@YAHPADHHHQAMI@Z 004b4fc0 f   sfx.obj
 0001:000b40a0       ?PlayTrackingSample@@YAHPADHQAMIH@Z 004b50a0 f   sfx.obj
 0001:000b4160       ?ResetSoundCallbacks@@YAXXZ 004b5160 f   sfx.obj
 0001:000b41d0       ?CallbackWhenSampleFinished@@YAXHP6AXPAX@Z0@Z 004b51d0 f   sfx.obj
 0001:000b4230       ?MonitorSampleCallbacks@@YAXXZ 004b5230 f   sfx.obj
 0001:000b42e0       ?InitCharacterSoundHandles@@YAXPAUTAG_CHARACTERSOUNDHANDLES@@@Z 004b52e0 f   sfx.obj
 0001:000b4330       ?CharacterSoundsFinishedCallback@@YAXPAX@Z 004b5330 f   sfx.obj
 0001:000b4370       ?LoadSplashScreen@@YAHPAUTAG_SPLASHSCREEN@@PAD1@Z 004b5370 f   splashscreen.obj
 0001:000b4410       ?DrawSplashScreen@@YAXPAUTAG_SPLASHSCREEN@@@Z 004b5410 f   splashscreen.obj
 0001:000b4460       ?FreeSplashScreen@@YAXPAUTAG_SPLASHSCREEN@@@Z 004b5460 f   splashscreen.obj
 0001:000b44c0       ?InitActorStatus@@YAXPAUTAG_ACTOR_STATUS@@@Z 004b54c0 f   status.obj
 0001:000b46a0       ?RequestStateChange@@YAHPAUTAG_ACTORINSTANCE@@W4ECharState@@@Z 004b56a0 f   status.obj
 0001:000b4780       ?RequestStateChangePlus@@YAHPAUTAG_ACTORINSTANCE@@W4ECharState@@P6AX0@Z@Z 004b5780 f   status.obj
 0001:000b4800       ?UpdateActorStatusInstances@@YAXPAUTAG_ACTORINSTANCELIST@@@Z 004b5800 f   status.obj
 0001:000b4880       ?UpdateActorStatus@@YAXPAUTAG_ACTORINSTANCE@@@Z 004b5880 f   status.obj
 0001:000b4dd0       ?GetHeightOfActor@@YAMPAUTAG_ACTORINSTANCE@@M@Z 004b5dd0 f   status.obj
 0001:000b4f40       ?GetHeightOfPoint@@YAMQAMH@Z 004b5f40 f   status.obj
 0001:000b4fd0       ?CalculateSpeedBeforeJump@@YAXPAUTAG_ACTORINSTANCE@@@Z 004b5fd0 f   status.obj
 0001:000b5070       ?StopCollidingWith@@YAXPAUTAG_ACTORINSTANCE@@0@Z 004b6070 f   status.obj
 0001:000b50b0       ?StopCollidingWith@@YAXPAUTAG_ACTORINSTANCE@@0M@Z 004b60b0 f   status.obj
 0001:000b5100       ?SetStartPosition@@YAXPAUTAG_ACTORINSTANCE@@QAM1@Z 004b6100 f   status.obj
 0001:000b53b0       ?PageClosed@@YAXQAUTAG_PAGE@@H@Z 004b63b0 f   subtitle.obj
 0001:000b5410       ?Subtitle@@YAPAUTAG_SUBTITLE@@W4EStringIndex@@MH@Z 004b6410 f   subtitle.obj
 0001:000b54c0       ?InitialiseSubtitles@@YAXXZ 004b64c0 f   subtitle.obj
 0001:000b55b0       ?UpdateSubtitles@@YAXXZ    004b65b0 f   subtitle.obj
 0001:000b57d0       ?DrawSubtitles@@YAXXZ      004b67d0 f   subtitle.obj
 0001:000b58b0       ?DestroySubtitles@@YAXXZ   004b68b0 f   subtitle.obj
 0001:000b5920       ?CloseCurrentSubtitle@@YAXXZ 004b6920 f   subtitle.obj
 0001:000b5960       ?getSize@?$LINKEDLIST@UTAG_SUBTITLE@@@@QBEHXZ 004b6960 f i subtitle.obj
 0001:000b5990       ??0?$LINKEDLIST@UTAG_SUBTITLE@@@@QAE@QAD@Z 004b6990 f i subtitle.obj
 0001:000b59e0       ?init@?$LINKEDLIST@UTAG_SUBTITLE@@@@QAAXQBDZZ 004b69e0 f i subtitle.obj
 0001:000b5a20       ?get@?$LINKEDLIST@UTAG_SUBTITLE@@@@QBEPAUTAG_SUBTITLE@@H@Z 004b6a20 f i subtitle.obj
 0001:000b5a80       ?append@?$LINKEDLIST@UTAG_SUBTITLE@@@@QAEPAUTAG_SUBTITLE@@QAU2@@Z 004b6a80 f i subtitle.obj
 0001:000b5b80       ?remove@?$LINKEDLIST@UTAG_SUBTITLE@@@@QAEXQBUTAG_SUBTITLE@@@Z 004b6b80 f i subtitle.obj
 0001:000b5be0       ?kill@?$LINKEDLIST@UTAG_SUBTITLE@@@@QAEXXZ 004b6be0 f i subtitle.obj
 0001:000b5ca0       ?getNode@?$LINKEDLIST@UTAG_SUBTITLE@@@@ABEPAV1@QBUTAG_SUBTITLE@@@Z 004b6ca0 f i subtitle.obj
 0001:000b5d00       ?getNode@?$LINKEDLIST@UTAG_SUBTITLE@@@@ABEPAV1@H@Z 004b6d00 f i subtitle.obj
 0001:000b5d60       ?removeNode@?$LINKEDLIST@UTAG_SUBTITLE@@@@AAEXQAV1@@Z 004b6d60 f i subtitle.obj
 0001:000b5e00       ??0?$LINKEDLIST@UTAG_SUBTITLE@@@@AAE@QAV0@QAUTAG_SUBTITLE@@0@Z 004b6e00 f i subtitle.obj
 0001:000b5e50       ?LoadTextures@@YAHPAD@Z    004b6e50 f   textures.obj
 0001:000b5f30       ?FreeTextures@@YAXPAD@Z    004b6f30 f   textures.obj
 0001:000b5f80       ?ListAnimatingTextures@@YAXXZ 004b6f80 f   textures.obj
 0001:000b60e0       ?UpdateAnimatingTextures@@YAXXZ 004b70e0 f   textures.obj
 0001:000b6170       ?SetTextureFrame@@YAXHH@Z  004b7170 f   textures.obj
 0001:000b61c0       ?FreeAnimatingTextures@@YAXXZ 004b71c0 f   textures.obj
 0001:000b6210       ?SpecifyTexturesToAnimateManually@@YAXPAD@Z 004b7210 f   textures.obj
 0001:000b6290       ?SearchForTexturesToAnimateManually@@YAHPAU_TBTexture@@@Z 004b7290 f   textures.obj
 0001:000b6300       ?SetTextureFrameManually@@YAXPAU_TBTexture@@H@Z 004b7300 f   textures.obj
 0001:000b6340       ?InitialiseCommonlyUsedTextures@@YAXXZ 004b7340 f   textures.obj
 0001:000b6a50       ?InitialiseProfileTimer@@YAXPAUTAG_TIMER@@@Z 004b7a50 f   timer.obj
 0001:000b6aa0       ?StartProfileTimer@@YAXPAUTAG_PROFILE@@HPAD@Z 004b7aa0 f   timer.obj
 0001:000b6bb0       ?EndProfileTimer@@YAXPAUTAG_PROFILE@@H@Z 004b7bb0 f   timer.obj
 0001:000b6c60       ?InitialiseProfile@@YAXPAUTAG_PROFILE@@@Z 004b7c60 f   timer.obj
 0001:000b6d00       ?StartProfile@@YAXPAUTAG_PROFILE@@@Z 004b7d00 f   timer.obj
 0001:000b6d70       ?EndProfile@@YAXPAUTAG_PROFILE@@@Z 004b7d70 f   timer.obj
 0001:000b6ef0       ?DisplayProfile@@YAXPAUTAG_PROFILE@@@Z 004b7ef0 f   timer.obj
 0001:000b75d0       ?TimeFX_jump@@YAXM@Z       004b85d0 f   timer.obj
 0001:000b7600       ?TimeFX_queueJump@@YAXM@Z  004b8600 f   timer.obj
 0001:000b7650       ?TimeFX_setGlobalRate@@YAXM@Z 004b8650 f   timer.obj
 0001:000b7690       ?TimeFX_queueGlobalRate@@YAXM@Z 004b8690 f   timer.obj
 0001:000b76d0       ?TimeFX_queueRate@@YAXMMM@Z 004b86d0 f   timer.obj
 0001:000b7760       ?TimeFX_queueTimeslice@@YAXXZ 004b8760 f   timer.obj
 0001:000b77c0       ?TimeFX_update@@YAXXZ      004b87c0 f   timer.obj
 0001:000b7940       ?TimeFX_cancelRates@@YAXXZ 004b8940 f   timer.obj
 0001:000b7990       ?init@?$LOOPARRAY@UTIMERATE@@$09@@QAEXQBD@Z 004b8990 f i timer.obj
 0001:000b79f0       ??0?$LOOPARRAY@UTIMERATE@@$09@@QAE@QBD@Z 004b89f0 f i timer.obj
 0001:000b7a30       ?getNew@?$LOOPARRAY@UTIMERATE@@$09@@QAEPAUTIMERATE@@H@Z 004b8a30 f i timer.obj
 0001:000b7ba0       ?getOldest@?$LOOPARRAY@UTIMERATE@@$09@@QAEPAUTIMERATE@@H@Z 004b8ba0 f i timer.obj
 0001:000b7c20       ?discardOldest@?$LOOPARRAY@UTIMERATE@@$09@@QAEXH@Z 004b8c20 f i timer.obj
 0001:000b7ce0       ?InitialiseTonyScene@@YAXXZ 004b8ce0 f   tonyscene.obj
 0001:000b7d00       ?PrepTonyScene@@YAXH@Z     004b8d00 f   tonyscene.obj
 0001:000b7d20       ?DrawTonyScene@@YAXHPAUTAG_CAMERAINFO@@@Z 004b8d20 f   tonyscene.obj
 0001:000b7d40       ?UpdateTonyScene@@YAXH@Z   004b8d40 f   tonyscene.obj
 0001:000b7d60       ?FreeTonyScene@@YAXH@Z     004b8d60 f   tonyscene.obj
 0001:000b7d80       ?trailSetUp@@YAXPAUTAG_ACTORINSTANCE@@@Z 004b8d80 f   trail.obj
 0001:000b7e90       ?trailFree@@YAXPAUTAG_ACTORINSTANCE@@@Z 004b8e90 f   trail.obj
 0001:000b7f80       ?trailReset@@YAXPAUTAG_ACTORINSTANCE@@H@Z 004b8f80 f   trail.obj
 0001:000b8080       ?trailAddPosition@@YAXPAUTAG_ACTORINSTANCE@@@Z 004b9080 f   trail.obj
 0001:000b84f0       ?trailGetPosFromFramesAgo@@YAHPAUTAG_ACTORINSTANCE@@QAMH@Z 004b94f0 f   trail.obj
 0001:000b85c0       ?trailFindNearestPoint@@YAHPAUTAG_ACTORINSTANCE@@QAM1@Z 004b95c0 f   trail.obj
 0001:000b8770       ?trailFindBestPoint@@YAHPAUTAG_ACTORINSTANCE@@QAM1@Z 004b9770 f   trail.obj
 0001:000b8850       ?trailGetIndexedPoint@@YAHPAUTAG_ACTORINSTANCE@@HQAM@Z 004b9850 f   trail.obj
 0001:000b88b0       ?trailAdvanceToNext@@YAXPAUTAG_ACTORINSTANCE@@PAH@Z 004b98b0 f   trail.obj
 0001:000b8920       ?trailDraw@@YAXPAUTAG_ACTORINSTANCE@@@Z 004b9920 f   trail.obj
 0001:000b8a90       ?trailHowFarBehind@@YAMPAUTAG_ACTORINSTANCE@@QAM@Z 004b9a90 f   trail.obj
 0001:000b8b40       ?CreateTriggerObjectInstance@@YAHPAUTAG_ACTORINSTANCE@@@Z 004b9b40 f   trigger.obj
 0001:000b8bf0       ?TriggerCallback@@YAHPAUTAG_ACTORINSTANCE@@0@Z 004b9bf0 f   trigger.obj
 0001:000b8c50       ?CheckForAreaTriggers@@YAXPAUTAG_ACTORINSTANCE@@PAUTAG_ACTORINSTANCELIST@@@Z 004b9c50 f   trigger.obj
 0001:000b9160       ?util3DText@@YAXQADQAM@Z   004ba160 f   util.obj
 0001:000b92b0       ?utilWait@@YAXM@Z          004ba2b0 f   util.obj
 0001:000b9330       ?utilFontPrint@@YAXPADHHMH@Z 004ba330 f   util.obj
 0001:000b9580       ?utilGetPrettyTime@@YAHPADM0@Z 004ba580 f   util.obj
 0001:000b9660       ?utilBaseStringtoLong@@YAIPADHH@Z 004ba660 f   util.obj
 0001:000b9800       ?utilLongtoBaseString@@YAHPADHH@Z 004ba800 f   util.obj
 0001:000b9920       ?utilFindChar@@YAHPADD@Z   004ba920 f   util.obj
 0001:000b9980       ?utilDraw2DSprite@@YAXQAU_TBTexture@@QBMMMMABUTAG_COLOUR@@_N3QAMM@Z 004ba980 f   util.obj
 0001:000b9bf0       ?utilDrawSphere@@YAXQBMMABUTAG_COLOUR@@@Z 004babf0 f   util.obj
 0001:000b9e40       ?utilDrawCircle@@YAXQBMMABUTAG_COLOUR@@@Z 004bae40 f   util.obj
 0001:000b9fd0       ?utilDrawCircleSector@@YAXQBMMMMABUTAG_COLOUR@@@Z 004bafd0 f   util.obj
 0001:000ba1e0       ?utilNormaliseQuaternion@@YAXQAM@Z 004bb1e0 f   util.obj
 0001:000ba2b0       ?utilGenerateRandomNonZeroVector@@YAXQAMMH@Z 004bb2b0 f   util.obj
 0001:000ba3c0       ?InitCamera@@YAXPAUTAG_CAMERAINFO@@QAM1_N@Z 004bb3c0 f   camera.obj
 0001:000ba630       ?CreateCameraCollSphere@@YAXPAUTAG_CAMERAINFO@@QAMMM@Z 004bb630 f   camera.obj
 0001:000ba710       ?DestroyCamera@@YAXPAUTAG_CAMERAINFO@@@Z 004bb710 f   camera.obj
 0001:000ba7d0       ?UpdateCamera@@YAXPAUTAG_CAMERAINFO@@@Z 004bb7d0 f   camera.obj
 0001:000bb3c0       ?SendCamera@@YAXPAUTAG_CAMERAINFO@@@Z 004bc3c0 f   camera.obj
 0001:000bb630       ?SetCameraPosition@@YAXPAUTAG_CAMERAINFO@@QAM@Z 004bc630 f   camera.obj
 0001:000bb680       ?SetCameraPositionOffset@@YAXPAUTAG_CAMERAINFO@@QAM@Z 004bc680 f   camera.obj
 0001:000bb6f0       ?SetCameraLookAtPosition@@YAXPAUTAG_CAMERAINFO@@QAM@Z 004bc6f0 f   camera.obj
 0001:000bb740       ?SetCameraLookAtOffset@@YAXPAUTAG_CAMERAINFO@@QAM@Z 004bc740 f   camera.obj
 0001:000bb7b0       ?SetCameraPositionDestination@@YAXPAUTAG_CAMERAINFO@@QAM@Z 004bc7b0 f   camera.obj
 0001:000bb7f0       ?SetCameraLookAtDestination@@YAXPAUTAG_CAMERAINFO@@QAM@Z 004bc7f0 f   camera.obj
 0001:000bb830       ?SetCameraLookAtFollowActorInstance@@YAXPAUTAG_CAMERAINFO@@PAUTAG_ACTORINSTANCE@@PAU_TBActorInstance@@PAU_TBActorNodeInstance@@@Z 004bc830 f   camera.obj
 0001:000bb8a0       ?SetCameraLookAtFollowActorInstance@@YAXPAUTAG_CAMERAINFO@@PAUTAG_ACTORINSTANCE@@PAU_TBActorInstance@@PAD@Z 004bc8a0 f   camera.obj
 0001:000bb910       ?DisableCameraLookAtFollowActorInstance@@YAXPAUTAG_CAMERAINFO@@@Z 004bc910 f   camera.obj
 0001:000bb940       ?SetCameraLookAtActorInstanceOffset@@YAXPAUTAG_CAMERAINFO@@QAM@Z 004bc940 f   camera.obj
 0001:000bb980       ?SetCameraPosFollowActorInstance@@YAXPAUTAG_CAMERAINFO@@PAU_TBActorInstance@@PAD@Z 004bc980 f   camera.obj
 0001:000bb9e0       ?RotateCameraAroundLookAt@@YAXPAUTAG_CAMERAINFO@@MM@Z 004bc9e0 f   camera.obj
 0001:000bba60       ?ConvertFromCameraToGlobalRotation@@YAMPAUTAG_CAMERAINFO@@M@Z 004bca60 f   camera.obj
 0001:000bbb70       ?SetFixedDistanceToLookAt@@YAXPAUTAG_CAMERAINFO@@M@Z 004bcb70 f   camera.obj
 0001:000bbba0       ?EnableCameraAngleAboveHorizontal@@YAXPAUTAG_CAMERAINFO@@M@Z 004bcba0 f   camera.obj
 0001:000bbbe0       ?SetDefaultCameraAngleAboveHorizontal@@YAXPAUTAG_CAMERAINFO@@M@Z 004bcbe0 f   camera.obj
 0001:000bbc10       ?EnableCameraRotateBehind@@YAXPAUTAG_CAMERAINFO@@M@Z 004bcc10 f   camera.obj
 0001:000bbc50       ?DisableCameraRotateBehind@@YAXPAUTAG_CAMERAINFO@@@Z 004bcc50 f   camera.obj
 0001:000bbc80       ?EnableCameraFollowBehind@@YAXPAUTAG_CAMERAINFO@@PAUTAG_ACTORINSTANCE@@@Z 004bcc80 f   camera.obj
 0001:000bbcc0       ?DisableCameraFollowBehind@@YAXPAUTAG_CAMERAINFO@@@Z 004bccc0 f   camera.obj
 0001:000bbcf0       ?EnableCameraBigFall@@YAXPAUTAG_CAMERAINFO@@PAUTAG_ACTORINSTANCE@@@Z 004bccf0 f   camera.obj
 0001:000bbd80       ?DisableCameraBigFall@@YAXPAUTAG_CAMERAINFO@@@Z 004bcd80 f   camera.obj
 0001:000bbdd0       ?EnableCameraCatchup@@YAXPAUTAG_CAMERAINFO@@PAUTAG_ACTORINSTANCE@@@Z 004bcdd0 f   camera.obj
 0001:000bbe30       ?DisableCameraCatchup@@YAXPAUTAG_CAMERAINFO@@@Z 004bce30 f   camera.obj
 0001:000bbe60       ?EnableCameraChaseCam@@YAXPAUTAG_CAMERAINFO@@MQAM@Z 004bce60 f   camera.obj
 0001:000bbeb0       ?DisableCameraChaseCam@@YAXPAUTAG_CAMERAINFO@@@Z 004bceb0 f   camera.obj
 0001:000bbee0       ?DisableCameraAngleAboveHorizontal@@YAXPAUTAG_CAMERAINFO@@@Z 004bcee0 f   camera.obj
 0001:000bbf10       ?SetCameraCollision@@YAXPAUTAG_CAMERAINFO@@H@Z 004bcf10 f   camera.obj
 0001:000bbf60       ?SetCameraSmooth@@YAXPAUTAG_CAMERAINFO@@MM@Z 004bcf60 f   camera.obj
 0001:000bbfa0       ?SaveCameraSettings@@YAXPAUTAG_CAMERAINFO@@0@Z 004bcfa0 f   camera.obj
 0001:000bbfe0       ?RestoreCameraSettings@@YAXPAUTAG_CAMERAINFO@@0@Z 004bcfe0 f   camera.obj
 0001:000bc070       ?SetCameraCase@@YAXPAUTAG_CAMERAINFO@@PAUTAG_CAMERACASE@@@Z 004bd070 f   camera.obj
 0001:000bc0a0       ?RespondToCameraControl@@YAXPAUTAG_PLAYER@@@Z 004bd0a0 f   camera.obj
 0001:000bc320       ?ResetCamera@@YAXPAUTAG_CAMERAINFO@@@Z 004bd320 f   camera.obj
 0001:000bc380       ?InitCameraCaseList@@YAXXZ 004bd380 f   cameracase.obj
 0001:000bc3c0       ?CreateCameraCase@@YAPAUTAG_CAMERACASE@@PADH@Z 004bd3c0 f   cameracase.obj
 0001:000bc500       ?CameraCasePan@@YAXPAUTAG_CAMERACASE@@PAD1QAM2M@Z 004bd500 f   cameracase.obj
 0001:000bc5c0       ?CameraCasePan@@YAXPAUTAG_CAMERACASE@@IIIIM@Z 004bd5c0 f   cameracase.obj
 0001:000bc610       ?CameraCaseFixedPoint@@YAXPAUTAG_CAMERACASE@@PAD1M@Z 004bd610 f   cameracase.obj
 0001:000bc690       ?CameraCaseFixedPoint@@YAXPAUTAG_CAMERACASE@@IIMI@Z 004bd690 f   cameracase.obj
 0001:000bc6e0       ?CameraCaseRotateAround@@YAXPAUTAG_CAMERACASE@@PADMMD@Z 004bd6e0 f   cameracase.obj
 0001:000bc750       ?CameraCaseRotateAround@@YAXPAUTAG_CAMERACASE@@IMMD@Z 004bd750 f   cameracase.obj
 0001:000bc7a0       ?CameraCaseKeepOnScreen@@YAXQAUTAG_CAMERACASE@@QBM@Z 004bd7a0 f   cameracase.obj
 0001:000bc870       ??0TAG_KOSCAMDATA@@QAE@QBM@Z 004bd870 f i cameracase.obj
 0001:000bc8d0       ?CameraCaseAttribs@@YAXPAUTAG_CAMERACASE@@II@Z 004bd8d0 f   cameracase.obj
 0001:000bc910       ?DeleteCameraCase@@YAXPAUTAG_CAMERACASE@@@Z 004bd910 f   cameracase.obj
 0001:000bca50       ??_GTAG_KOSCAMDATA@@QAEPAXI@Z 004bda50 f i cameracase.obj
 0001:000bcab0       ??1TAG_KOSCAMDATA@@QAE@XZ  004bdab0 f i cameracase.obj
 0001:000bcaf0       ?DeleteAllCameraCases@@YAXXZ 004bdaf0 f   cameracase.obj
 0001:000bcb50       ?FindCameraCase@@YAPAUTAG_CAMERACASE@@PAD@Z 004bdb50 f   cameracase.obj
 0001:000bcbd0       ?FindCameraCase@@YAPAUTAG_CAMERACASE@@I@Z 004bdbd0 f   cameracase.obj
 0001:000bcc30       ?ProcessCameraMessages@@YAXPAD@Z 004bdc30 f   cameracase.obj
 0001:000bcd00       ?StartCameraCase@@YAHPAUTAG_CAMERACASE@@PAUTAG_CAMERAINFO@@@Z 004bdd00 f   cameracase.obj
 0001:000bd5b0       ?SendCameraCaseMessages@@YAXPAUTAG_CAMERAINFO@@PAUTAG_CAMERACASE@@@Z 004be5b0 f   cameracase.obj
 0001:000bd6d0       ?StopCameraCase@@YAXPAUTAG_CAMERAINFO@@PAUTAG_CAMERACASE@@@Z 004be6d0 f   cameracase.obj
 0001:000bd8a0       ?UpdateCameraCase@@YAXPAUTAG_CAMERAINFO@@PAUTAG_CAMERACASE@@@Z 004be8a0 f   cameracase.obj
 0001:000bdab0       ??0?$LINKEDLIST@UTAG_KOSCAMTARGET@@@@QAE@QAD@Z 004beab0 f i cameracase.obj
 0001:000bdb00       ?init@?$LINKEDLIST@UTAG_KOSCAMTARGET@@@@QAAXQBDZZ 004beb00 f i cameracase.obj
 0001:000bdb40       ?kill@?$LINKEDLIST@UTAG_KOSCAMTARGET@@@@QAEXXZ 004beb40 f i cameracase.obj
 0001:000bdc00       ?Init@TAG_CUTSCENE@@AAEHPADH@Z 004bec00 f   cutscene.obj
 0001:000bdca0       ?Load@TAG_CUTSCENE@@QAEXXZ 004beca0 f   cutscene.obj
 0001:000bdd30       ?FinishedLoading@TAG_CUTSCENE@@QAEHXZ 004bed30 f   cutscene.obj
 0001:000bdd80       ?FinishedPlaying@TAG_CUTSCENE@@QAEHXZ 004bed80 f   cutscene.obj
 0001:000bddf0       ?Setup@TAG_CUTSCENE@@QAEXXZ 004bedf0 f   cutscene.obj
 0001:000be250       ?Play@TAG_CUTSCENE@@QAEXPAUTAG_CAMERAINFO@@@Z 004bf250 f   cutscene.obj
 0001:000be500       ?Stop@TAG_CUTSCENE@@QAEXXZ 004bf500 f   cutscene.obj
 0001:000be650       ??1TAG_CUTSCENE@@QAE@XZ    004bf650 f   cutscene.obj
 0001:000be6a0       ?AddEntry@TAG_CUTSCENE@@QAEXW4EEntryType@@PAD@Z 004bf6a0 f   cutscene.obj
 0001:000be740       ?AddEntry@TAG_CUTSCENE@@QAEXW4EEntryType@@I@Z 004bf740 f   cutscene.obj
 0001:000be7d0       ?getSize@?$LINKEDLIST@UTAG_CUTSCENEENTRY@@@@QBEHXZ 004bf7d0 f i cutscene.obj
 0001:000be800       ?get@?$LINKEDLIST@UTAG_CUTSCENEENTRY@@@@QBEPAUTAG_CUTSCENEENTRY@@H@Z 004bf800 f i cutscene.obj
 0001:000be860       ?append@?$LINKEDLIST@UTAG_CUTSCENEENTRY@@@@QAEPAUTAG_CUTSCENEENTRY@@QAU2@@Z 004bf860 f i cutscene.obj
 0001:000be960       ?kill@?$LINKEDLIST@UTAG_CUTSCENEENTRY@@@@QAEXXZ 004bf960 f i cutscene.obj
 0001:000bea20       ?getNode@?$LINKEDLIST@UTAG_CUTSCENEENTRY@@@@ABEPAV1@H@Z 004bfa20 f i cutscene.obj
 0001:000bea80       ??0?$LINKEDLIST@UTAG_CUTSCENEENTRY@@@@AAE@QAV0@QAUTAG_CUTSCENEENTRY@@0@Z 004bfa80 f i cutscene.obj
 0001:000bead0       ?KOScam_update@@YAXQAUTAG_CAMERACASE@@@Z 004bfad0 f   KOScam.obj
 0001:000bf050       ?numTargets@TAG_KOSCAMDATA@@QBEHXZ 004c0050 f i KOScam.obj
 0001:000bf260       ?getTarget@TAG_KOSCAMDATA@@QBEPAUTAG_KOSCAMTARGET@@H@Z 004c0260 f i KOScam.obj
 0001:000bf2a0       ?getSize@?$LINKEDLIST@UTAG_KOSCAMTARGET@@@@QBEHXZ 004c02a0 f i KOScam.obj
 0001:000bf2d0       ?get@?$LINKEDLIST@UTAG_KOSCAMTARGET@@@@QBEPAUTAG_KOSCAMTARGET@@H@Z 004c02d0 f i KOScam.obj
 0001:000bf330       ?getNode@?$LINKEDLIST@UTAG_KOSCAMTARGET@@@@ABEPAV1@H@Z 004c0330 f i KOScam.obj
 0001:000bf390       ?InitCameraOffsets@@YAXQAUTAG_CAMERAINFO@@@Z 004c0390 f   quakecam.obj
 0001:000bf430       ?UpdateQuakeCam@@YAXPAUTAG_CAMERAINFO@@@Z 004c0430 f   quakecam.obj
 0001:000bf8c0       ?CheckQuakeVectorForOpposites@@YAXQAM0@Z 004c08c0 f   quakecam.obj
 0001:000bf980       ?CheckQuakeTiltForOpposites@@YAMMM@Z 004c0980 f   quakecam.obj
 0001:000bfa00       ?UpdateRumbleCam@@YAXPAUTAG_CAMERAINFO@@@Z 004c0a00 f   quakecam.obj
 0001:000bfc40       ?rumbleCam_explosion@@YAXPAUTAG_CAMERAINFO@@QAMM@Z 004c0c40 f   quakecam.obj
 0001:000bfdb0       ?RumbleCamAng@@YAXQAUTAG_CAMERAINFO@@QAM@Z 004c0db0 f i quakecam.obj
 0001:000bfe10       ?destructHandler@@YAHH@Z   004c0e10 f   destruct.obj
 0001:000c0c90       ?setColour@TAG_TEXTBOX@@QAEXABUTAG_COLOUR@@@Z 004c1c90 f i destruct.obj
 0001:000c0cd0       ?setVGrad@TAG_TEXTBOX@@QAEX_N@Z 004c1cd0 f i destruct.obj
 0001:000c0d30       ?dinerHandler@@YAHH@Z      004c1d30 f   diner.obj
 0001:000c0d60       ?mpInit@@YAHHHPAUTAG_ACTORINSTANCE@@0@Z 004c1d60 f   multiplayer.obj
 0001:000c0de0       ?mpPrep@@YAHXZ             004c1de0 f   multiplayer.obj
 0001:000c0e30       ?mpPoll@@YAHXZ             004c1e30 f   multiplayer.obj
 0001:000c0e80       ?mpDraw@@YAHPAUTAG_CAMERAINFO@@@Z 004c1e80 f   multiplayer.obj
 0001:000c0ee0       ?mpKill@@YAHXZ             004c1ee0 f   multiplayer.obj
 0001:000c1030       ?mpPageUpdateAndClose@@YAXQAUTAG_PAGE@@H@Z 004c2030 f   multiplayer.obj
 0001:000c10a0       ?getScale@TAG_PAGEITEM@@QAEMXZ 004c20a0 f i multiplayer.obj
 0001:000c10e0       ?getLastItem@TAG_PAGE@@QAEPAUTAG_PAGEITEM@@XZ 004c20e0 f i multiplayer.obj
 0001:000c1130       ?getLastItem@TAG_PAGEROW@@QAEPAUTAG_PAGEITEM@@XZ 004c2130 f i multiplayer.obj
 0001:000c1180       ?mpPageUpdate@@YAXQAUTAG_PAGE@@H@Z 004c2180 f   multiplayer.obj
 0001:000c11d0       ?mpPageOpen@@YAXQAUTAG_PAGE@@H@Z 004c21d0 f   multiplayer.obj
 0001:000c1220       ?mpPageClose@@YAXQAUTAG_PAGE@@H@Z 004c2220 f   multiplayer.obj
 0001:000c1240       ?mpCountdownSetup@@YAXXZ   004c2240 f   multiplayer.obj
 0001:000c1370       ?mpCountdownDraw@@YAXXZ    004c2370 f   multiplayer.obj
 0001:000c1560       ?mpCountdownUpdate@@YAHXZ  004c2560 f   multiplayer.obj
 0001:000c1590       ?mpCountdownKill@@YAXXZ    004c2590 f   multiplayer.obj
 0001:000c15d0       ?mpEndGameMenuSetUp@@YAXPAHHPAD@Z 004c25d0 f   multiplayer.obj
 0001:000c1a20       ?mpEndGameMenuHandler@@YAXH@Z 004c2a20 f   multiplayer.obj
 0001:000c1ca0       ?mpEndGameMenuKill@@YAXXZ  004c2ca0 f   multiplayer.obj
 0001:000c1d20       ?raceAddTarget@@YAXQAM0@Z  004c2d20 f   race.obj
 0001:000c1f20       ?raceAddCheckPoint@@YAXQAM0HM@Z 004c2f20 f   race.obj
 0001:000c23a0       ?raceHandler@@YAHH@Z       004c33a0 f   race.obj
 0001:000c42b0       ?bmVector2DSquaredLen@@YAMQBM@Z 004c52b0 f i race.obj
 0001:000c42f0       ?setWrap@TAG_TEXTBOX@@QAEPAU1@_N@Z 004c52f0 f i race.obj
 0001:000c4330       ??0TAG_PAGE@@QAE@XZ        004c5330 f i race.obj
 0001:000c43d0       ?CreateActorInstanceMechaTweety@@YAHPAUTAG_ACTORINSTANCE@@@Z 004c53d0 f   mechatweety.obj
 0001:000c46a0       ?MechaTweetyIdleCallback@@YAHPAUTAG_MECHATWEETYINFO@@@Z 004c56a0 f   mechatweety.obj
 0001:000c46e0       ?MechaTweetyStageOneAttackCallback@@YAHPAUTAG_MECHATWEETYINFO@@@Z 004c56e0 f   mechatweety.obj
 0001:000c4710       ?MechaTweetyStageOneMoveCallback@@YAHPAUTAG_MECHATWEETYINFO@@@Z 004c5710 f   mechatweety.obj
 0001:000c4880       ?MechaTweetyStateChangeCallback@@YAHPAUTAG_MECHATWEETYINFO@@W4EMTweetyAIState@@1@Z 004c5880 f   mechatweety.obj
 0001:000c4a10       ?MechaTweetyDefendCallback@@YAHPAUTAG_MECHATWEETYINFO@@@Z 004c5a10 f   mechatweety.obj
 0001:000c4a40       ?MechaTweetyTurnCallback@@YAHPAUTAG_MECHATWEETYINFO@@@Z 004c5a40 f   mechatweety.obj
 0001:000c4b00       ?MechaTweetyStageOneGetCrateCallback@@YAHPAUTAG_MECHATWEETYINFO@@@Z 004c5b00 f   mechatweety.obj
 0001:000c4b30       ?MechaTweetyStunnedCallback@@YAHPAUTAG_MECHATWEETYINFO@@@Z 004c5b30 f   mechatweety.obj
 0001:000c4b60       ?UpdateMechaTweety@@YAXPAUTAG_ACTORINSTANCE@@@Z 004c5b60 f   mechatweety.obj
 0001:000c4c00       ?UpdateMechaTweetyBossGameLogic@@YAXPAUTAG_ACTORINSTANCELIST@@@Z 004c5c00 f   mechatweety.obj
 0001:000c4f20       ??1?$LOOPARRAY@UTAG_BALLEXPLOSION@@$02@@QAE@XZ 004c5f20 f i BallExp.obj
 0001:000c4f70       ??1TAG_BALLEXPLOSION@@QAE@XZ 004c5f70 f i BallExp.obj
 0001:000c4fb0       ?init@TAG_BALLEXPBALL@@QAEXQAM0M@Z 004c5fb0 f   BallExp.obj
 0001:000c5070       ?pos@TAG_BALLEXPBALL@@QAEAAY03MXZ 004c6070 f i BallExp.obj
 0001:000c50a0       ?update@TAG_BALLEXPBALL@@QAEXAAV?$LOOPARRAY@UTAG_BALLEXPBALL@@$0PK@@@@Z 004c60a0 f   BallExp.obj
 0001:000c5560       ?draw@TAG_BALLEXPBALL@@QAEXXZ 004c6560 f   BallExp.obj
 0001:000c5620       ?init@TAG_BALLEXPBRANCH@@QAEXXZ 004c6620 f   BallExp.obj
 0001:000c5660       ?init@TAG_BALLEXPBRANCH@@QAEXQAM0MW4EBallExpDirection@@HH@Z 004c6660 f   BallExp.obj
 0001:000c5720       ?update@TAG_BALLEXPBRANCH@@QAEXXZ 004c6720 f   BallExp.obj
 0001:000c5dd0       ?pos@TAG_ACTORINSTANCEUSER@@QBEAAY03MXZ 004c6dd0 f i BallExp.obj
 0001:000c5e00       ?getGridX@TAG_WESTBOSSGAME@@CAHM@Z 004c6e00 f i BallExp.obj
 0001:000c5e40       ?getGridY@TAG_WESTBOSSGAME@@CAHM@Z 004c6e40 f i BallExp.obj
 0001:000c5e80       ?getYang@TAG_BALLEXPBRANCH@@QBEMXZ 004c6e80 f i BallExp.obj
 0001:000c5ec0       ?draw@TAG_BALLEXPBRANCH@@QAEXXZ 004c6ec0 f   BallExp.obj
 0001:000c5f60       ?update@TAG_BALLEXPLOSION@@QAEXXZ 004c6f60 f   BallExp.obj
 0001:000c6000       ?init@TAG_BALLEXPLOSION@@QAE_NHHH@Z 004c7000 f   BallExp.obj
 0001:000c63e0       ?shutdown@TAG_BALLEXPLOSION@@QAEXXZ 004c73e0 f   BallExp.obj
 0001:000c6410       ?draw@TAG_BALLEXPLOSION@@QAEXXZ 004c7410 f   BallExp.obj
 0001:000c64a0       ?BallExp_init@@YAXXZ       004c74a0 f   BallExp.obj
 0001:000c6500       ?BallExp_create@@YA_NHHH@Z 004c7500 f   BallExp.obj
 0001:000c6550       ?BallExp_shutdown@@YAXXZ   004c7550 f   BallExp.obj
 0001:000c65d0       ?BallExp_update@@YAXXZ     004c75d0 f   BallExp.obj
 0001:000c6680       ?BallExp_draw@@YAXXZ       004c7680 f   BallExp.obj
 0001:000c6760       ?init@?$LOOPARRAY@UTAG_BALLEXPBALL@@$0PK@@@QAEXQBD@Z 004c7760 f i BallExp.obj
 0001:000c67c0       ?getNew@?$LOOPARRAY@UTAG_BALLEXPBALL@@$0PK@@@QAEPAUTAG_BALLEXPBALL@@H@Z 004c77c0 f i BallExp.obj
 0001:000c6930       ?discardOldest@?$LOOPARRAY@UTAG_BALLEXPBALL@@$0PK@@@QAEXH@Z 004c7930 f i BallExp.obj
 0001:000c69f0       ??0?$LOOPARRAY@UTAG_BALLEXPLOSION@@$02@@QAE@QBD@Z 004c79f0 f i BallExp.obj
 0001:000c6a80       ??0TAG_BALLEXPLOSION@@QAE@XZ 004c7a80 f i BallExp.obj
 0001:000c6ad0       ??0TAG_BALLEXPBRANCH@@QAE@XZ 004c7ad0 f i BallExp.obj
 0001:000c6b20       ??0?$LOOPARRAY@UTAG_BALLEXPBALL@@$0PK@@@QAE@QBD@Z 004c7b20 f i BallExp.obj
 0001:000c6b80       ??0TAG_BALLEXPBALL@@QAE@XZ 004c7b80 f i BallExp.obj
 0001:000c6bd0       ?init@TAG_BALLEXPBALL@@QAEXXZ 004c7bd0 f i BallExp.obj
 0001:000c6c00       ?getNew@?$LOOPARRAY@UTAG_BALLEXPLOSION@@$02@@QAEPAUTAG_BALLEXPLOSION@@H@Z 004c7c00 f i BallExp.obj
 0001:000c6d70       ?discardOldest@?$LOOPARRAY@UTAG_BALLEXPLOSION@@$02@@QAEXH@Z 004c7d70 f i BallExp.obj
 0001:000c6e30       ?init@?$LOOPARRAY@UTAG_BALLEXPLOSION@@$02@@QAEXQBD@Z 004c7e30 f i BallExp.obj
 0001:000c6e90       ?init@TAG_BOSSGAME@@QAEXXZ 004c7e90 f   Boss.obj
 0001:000c6f20       ?shutdown@TAG_BOSSGAME@@QAEXXZ 004c7f20 f   Boss.obj
 0001:000c6fb0       ?draw2@TAG_BOSSGAME@@QAEXXZ 004c7fb0 f   Boss.obj
 0001:000c70e0       ?update@TAG_BOSSGAME@@QAEXXZ 004c80e0 f   Boss.obj
 0001:000c7170       ?createActorInstance@TAG_BOSSGAME@@SAPAUTAG_ACTORINSTANCE@@QADQAMMHQAUTAG_ACTORINSTANCELIST@@@Z 004c8170 f   Boss.obj
 0001:000c7300       ?init@TAG_ACTORINSTANCEUSER@@QAEXQADQAMMHPAUTAG_ACTORINSTANCELIST@@@Z 004c8300 f   Boss.obj
 0001:000c7370       ?init@TAG_ACTORINSTANCEUSER@@QAEXQADHPAUTAG_ACTORINSTANCELIST@@@Z 004c8370 f   Boss.obj
 0001:000c73e0       ?init@TAG_ACTORINSTANCEUSER@@QAEXXZ 004c83e0 f   Boss.obj
 0001:000c7430       ?update@TAG_ACTORINSTANCEUSER@@QAEXXZ 004c8430 f   Boss.obj
 0001:000c74a0       ?shutdown@TAG_ACTORINSTANCEUSER@@QAEXXZ 004c84a0 f   Boss.obj
 0001:000c74e0       ?playAnim@TAG_ACTORINSTANCEUSER@@QAEXPAU_TBActorAnimSegment@@_N1M@Z 004c84e0 f   Boss.obj
 0001:000c7580       ?playAnim@TAG_ACTORINSTANCEUSER@@QAEXQAD_N1M@Z 004c8580 f   Boss.obj
 0001:000c75f0       ?init@TAG_BRICKDISPLAY@@QAEXQBD@Z 004c85f0 f   BrickDisplay.obj
 0001:000c7660       ?setScore@TAG_BRICKDISPLAY@@QAEXHH@Z 004c8660 f   BrickDisplay.obj
 0001:000c7720       ?decreaseScore@TAG_BRICKDISPLAY@@QAEHXZ 004c8720 f   BrickDisplay.obj
 0001:000c7770       ?getScore@TAG_BRICKDISPLAY@@QBEHXZ 004c8770 f i BrickDisplay.obj
 0001:000c77a0       ?update@TAG_BRICKDISPLAY@@UAEXXZ 004c87a0 f   BrickDisplay.obj
 0001:000c7940       ?updateBrickAlphas@TAG_BRICKDISPLAY@@AAEXXZ 004c8940 f i BrickDisplay.obj
 0001:000c79b0       ?draw@TAG_BRICKDISPLAY@@UAEXXZ 004c89b0 f   BrickDisplay.obj
 0001:000c7c60       ??0ATLASSPHERE@@QAE@PAUTAG_ACTORINSTANCE@@PAD@Z 004c8c60 f   CityBoss.obj
 0001:000c7f60       ??1ATLASSPHERE@@QAE@XZ     004c8f60 f   CityBoss.obj
 0001:000c7fd0       ?calculateAI@ATLASSPHERE@@QAEXXZ 004c8fd0 f   CityBoss.obj
 0001:000c8120       ?applySphereRotationToActor@ATLASSPHERE@@QAEXXZ 004c9120 f   CityBoss.obj
 0001:000c8170       ?beforeYouCallAnythingElseCallThis@ATLASSPHERE@@QAEXXZ 004c9170 f   CityBoss.obj
 0001:000c8250       ?calculateRoll@ATLASSPHERE@@QAEXXZ 004c9250 f   CityBoss.obj
 0001:000c8480       ?calculateSphereCollision@ATLASSPHERE@@QAEXXZ 004c9480 f   CityBoss.obj
 0001:000c8730       ?calculateMagnets@ATLASSPHERE@@QAEXPAPAUTAG_ACTORINSTANCE@@H@Z 004c9730 f   CityBoss.obj
 0001:000c8830       ?originSetNormal@ATLASSPHERE@@QAEXPAUTAG_ACTORINSTANCE@@@Z 004c9830 f   CityBoss.obj
 0001:000c8920       ?originSetSpecial@ATLASSPHERE@@QAEXPAUTAG_ACTORINSTANCE@@@Z 004c9920 f   CityBoss.obj
 0001:000c8a10       ?draw@ATLASSPHERE@@QAEXXZ  004c9a10 f   CityBoss.obj
 0001:000c8a90       ?CreateSpriteFountain@@YAXQAMPAHM@Z 004c9a90 f   CityBoss.obj
 0001:000c8c00       ?cityBossTouchedPad@@YAXH@Z 004c9c00 f   CityBoss.obj
 0001:000c9010       ??1TAG_CITYBOSSGAME@@QAE@XZ 004ca010 f i CityBoss.obj
 0001:000c9050       ??0TAG_CITYBOSSGAME@@QAE@XZ 004ca050 f i CityBoss.obj
 0001:000c90a0       ?initMessageBook@TAG_BOSSGAME@@MAEXXZ 004ca0a0 f i CityBoss.obj
 0001:000c90d0       ?initScoreBook@TAG_BOSSGAME@@MAEXXZ 004ca0d0 f i CityBoss.obj
 0001:000c9100       ?initInstructionBook@TAG_BOSSGAME@@MAEXXZ 004ca100 f i CityBoss.obj
 0001:000c9130       ??1TAG_BOSSGAME@@QAE@XZ    004ca130 f i CityBoss.obj
 0001:000c91c0       ??0TAG_BOSSGAME@@QAE@XZ    004ca1c0 f i CityBoss.obj
 0001:000c9260       ?shoveItUp@TAG_CITYBOSSGAME@@QAEXPAUTAG_ACTORINSTANCE@@@Z 004ca260 f   CityBoss.obj
 0001:000c92c0       ?pullItDown@TAG_CITYBOSSGAME@@QAEXPAUTAG_ACTORINSTANCE@@@Z 004ca2c0 f   CityBoss.obj
 0001:000c9320       ?toggleIt@TAG_CITYBOSSGAME@@QAEXPAUTAG_ACTORINSTANCE@@@Z 004ca320 f   CityBoss.obj
 0001:000c9380       ?init@TAG_CITYBOSSGAME@@QAEXXZ 004ca380 f   CityBoss.obj
 0001:000caff0       ?setColour@TAG_TEXTBOX@@QAEXABUTAG_COLOUR@@0@Z 004cbff0 f i CityBoss.obj
 0001:000cb040       ?draw2@TAG_CITYBOSSGAME@@QAEXXZ 004cc040 f   CityBoss.obj
 0001:000cb2b0       ?update@TAG_CITYBOSSGAME@@QAEXXZ 004cc2b0 f   CityBoss.obj
 0001:000cc4d0       ?shutdown@TAG_CITYBOSSGAME@@QAEXXZ 004cd4d0 f   CityBoss.obj
 0001:000cc5f0       ??_GATLASSPHERE@@QAEPAXI@Z 004cd5f0 f i CityBoss.obj
 0001:000cc650       ?init@GOLFBAR@@QAEXPBMMP6AXJM@ZJQBD@Z 004cd650 f   GolfBar.obj
 0001:000cc720       ?draw@GOLFBAR@@UAEXXZ      004cd720 f   GolfBar.obj
 0001:000cc800       ?bottomPortion@TAG_RECTANGLE@@QBE?AU1@M@Z 004cd800 f i GolfBar.obj
 0001:000cc870       ?update@GOLFBAR@@UAEXXZ    004cd870 f   GolfBar.obj
 0001:000ccab0       ??1TAG_TAZBOSS1GAME@@QAE@XZ 004cdab0 f i tazboss1.obj
 0001:000ccb60       ??0TAG_TAZBOSS1GAME@@QAE@XZ 004cdb60 f i tazboss1.obj
 0001:000ccc20       ??1TAG_TBSAM@@QAE@XZ       004cdc20 f i tazboss1.obj
 0001:000ccc60       ??1TAG_ACTORINSTANCEUSER@@QAE@XZ 004cdc60 f i tazboss1.obj
 0001:000ccca0       ??1TAG_TBTAZ@@QAE@XZ       004cdca0 f i tazboss1.obj
 0001:000ccce0       ??1TAG_TBPLUNGER@@QAE@XZ   004cdce0 f i tazboss1.obj
 0001:000ccd20       ??0TAG_TBSAM@@QAE@XZ       004cdd20 f i tazboss1.obj
 0001:000ccd60       ??0TAG_ACTORINSTANCEUSER@@QAE@XZ 004cdd60 f i tazboss1.obj
 0001:000ccda0       ??0TAG_TBTAZ@@QAE@XZ       004cdda0 f i tazboss1.obj
 0001:000ccde0       ??0TAG_TBPLUNGER@@QAE@XZ   004cdde0 f i tazboss1.obj
 0001:000cce20       ?init@TAG_TBPLUNGER@@QAEXQAM00M@Z 004cde20 f   tazboss1.obj
 0001:000cceb0       ?init@TAG_TBSAM@@QAEXXZ    004cdeb0 f   tazboss1.obj
 0001:000ccf70       ?bmVectorSet@@YAXQAMMMMM@Z 004cdf70 f i tazboss1.obj
 0001:000ccfc0       ?update@TAG_TBSAM@@QAEXXZ  004cdfc0 f   tazboss1.obj
 0001:000cd4a0       ?playingAnim@TAG_ACTORINSTANCEUSER@@QAE_NQAD@Z 004ce4a0 f i tazboss1.obj
 0001:000cd520       ?vel@TAG_ACTORINSTANCEUSER@@QBEAAY03MXZ 004ce520 f i tazboss1.obj
 0001:000cd560       ?ang@TAG_ACTORINSTANCEUSER@@QBEAAY03MXZ 004ce560 f i tazboss1.obj
 0001:000cd590       ?dist@TAG_ACTORINSTANCEUSER@@QBEMABU1@@Z 004ce590 f i tazboss1.obj
 0001:000cd5e0       ?dist@TAG_ACTORINSTANCEUSER@@QBEMQAM@Z 004ce5e0 f i tazboss1.obj
 0001:000cd630       ?XZdist@TAG_ACTORINSTANCEUSER@@QBEMQBM@Z 004ce630 f i tazboss1.obj
 0001:000cd6a0       ?YrotateToFace@TAG_ACTORINSTANCEUSER@@QAEXQAM@Z 004ce6a0 f i tazboss1.obj
 0001:000cd740       ?setYang@TAG_ACTORINSTANCEUSER@@QAEXM@Z 004ce740 f i tazboss1.obj
 0001:000cd7c0       ?YrotateToFace@TAG_ACTORINSTANCEUSER@@QAEXABU1@@Z 004ce7c0 f i tazboss1.obj
 0001:000cd810       ?setState@TAG_TBSAM@@QAEXW4TBSamState@@W4TBSamSubState@@@Z 004ce810 f   tazboss1.obj
 0001:000cd8d0       ?setSubState@TAG_TBSAM@@QAEXW4TBSamSubState@@D@Z 004ce8d0 f   tazboss1.obj
 0001:000cdc50       ?getYang@TAG_ACTORINSTANCEUSER@@QBEMXZ 004cec50 f i tazboss1.obj
 0001:000cdcd0       ?init@TAG_TBTAZ@@QAEXXZ    004cecd0 f   tazboss1.obj
 0001:000cdd10       ?init@TAG_TAZBOSS1GAME@@QAEXXZ 004ced10 f   tazboss1.obj
 0001:000cde80       ?shutdown@TAG_TAZBOSS1GAME@@QAEXXZ 004cee80 f   tazboss1.obj
 0001:000cdf00       ?update@TAG_TAZBOSS1GAME@@QAEXXZ 004cef00 f   tazboss1.obj
 0001:000ce110       ?draw@TAG_TAZBOSS1GAME@@QAEXXZ 004cf110 f   tazboss1.obj
 0001:000ce150       ?draw2@TAG_TAZBOSS1GAME@@QAEXXZ 004cf150 f   tazboss1.obj
 0001:000ce290       ??1TAG_WESTBOSSGAME@@QAE@XZ 004cf290 f i WestBoss.obj
 0001:000ce370       ??0TAG_WESTBOSSGAME@@QAE@XZ 004cf370 f i WestBoss.obj
 0001:000ce470       ??1TAG_WBSAM@@QAE@XZ       004cf470 f i WestBoss.obj
 0001:000ce4b0       ??1TAG_WBTAZ@@QAE@XZ       004cf4b0 f i WestBoss.obj
 0001:000ce4f0       ??1?$LOOPARRAY@UTAG_WBDYNAMITE@@$0P@@@QAE@XZ 004cf4f0 f i WestBoss.obj
 0001:000ce530       ??1?$LOOPARRAY@UTAG_WBSKATEBOMB@@$08@@QAE@XZ 004cf530 f i WestBoss.obj
 0001:000ce570       ??1TAG_WBTNTCRATE@@QAE@XZ  004cf570 f i WestBoss.obj
 0001:000ce5b0       ??0TAG_WBSAM@@QAE@XZ       004cf5b0 f i WestBoss.obj
 0001:000ce5f0       ??0TAG_WBTAZ@@QAE@XZ       004cf5f0 f i WestBoss.obj
 0001:000ce630       ??0TAG_WBTNTCRATE@@QAE@XZ  004cf630 f i WestBoss.obj
 0001:000ce670       ??1TAG_WBDYNAMITE@@QAE@XZ  004cf670 f i WestBoss.obj
 0001:000ce6b0       ??1TAG_WBSKATEBOMB@@QAE@XZ 004cf6b0 f i WestBoss.obj
 0001:000ce6f0       ?init@TAG_WBSKATEBOMB@@QAEXHHMMM@Z 004cf6f0 f   WestBoss.obj
 0001:000ce7a0       ?update@TAG_WBSKATEBOMB@@QAEXXZ 004cf7a0 f   WestBoss.obj
 0001:000ce8d0       ?kaboom@TAG_WBSKATEBOMB@@QAEXXZ 004cf8d0 f   WestBoss.obj
 0001:000ce9a0       ?init@TAG_WBDEPUTY@@QAEXHH@Z 004cf9a0 f   WestBoss.obj
 0001:000cecc0       ?attack@TAG_WBDEPUTY@@QAEXXZ 004cfcc0 f   WestBoss.obj
 0001:000cede0       ?setState@TAG_WBDEPUTY@@QAEXH@Z 004cfde0 f   WestBoss.obj
 0001:000cee10       ?update@TAG_WBDEPUTY@@QAEXXZ 004cfe10 f   WestBoss.obj
 0001:000ceeb0       ?loseSuperCrate@TAG_WBSAM@@QAEXXZ 004cfeb0 f   WestBoss.obj
 0001:000cef00       ?chooseRandomProduceAnim@TAG_WBSAM@@QAEXXZ 004cff00 f   WestBoss.obj
 0001:000cef70       ?init@TAG_WBSAM@@QAEXXZ    004cff70 f   WestBoss.obj
 0001:000cf080       ?produceDynamite@TAG_WBSAM@@QAEXXZ 004d0080 f   WestBoss.obj
 0001:000cf0f0       ?startChuck@TAG_WBSAM@@QAEXXZ 004d00f0 f   WestBoss.obj
 0001:000cf180       ?chuck@TAG_WBSAM@@QAEPAUTAG_WBDYNAMITE@@XZ 004d0180 f   WestBoss.obj
 0001:000cf3d0       ?respondToMessage@TAG_WBSAM@@QAEXQBD@Z 004d03d0 f   WestBoss.obj
 0001:000cf470       ?setState@TAG_WBSAM@@QAEXW4WBSamState@@@Z 004d0470 f   WestBoss.obj
 0001:000cf570       ?say@TAG_WBSAM@@QAEXW4WBSamSpeech@@@Z 004d0570 f i WestBoss.obj
 0001:000cf5d0       ?humanThrowCallback@TAG_WBSAM@@SAXJM@Z 004d05d0 f   WestBoss.obj
 0001:000cf6b0       ?humanUpdate@TAG_WBSAM@@QAEXXZ 004d06b0 f   WestBoss.obj
 0001:000cf7d0       ?aiUpdate@TAG_WBSAM@@QAEXXZ 004d07d0 f   WestBoss.obj
 0001:000cf9d0       ?update@TAG_WBSAM@@QAEXXZ  004d09d0 f   WestBoss.obj
 0001:000cfa30       ?respondToCrateDestruction@TAG_WBSAM@@QAEX_N@Z 004d0a30 f   WestBoss.obj
 0001:000cfb00       ?init@TAG_WBTAZ@@QAEXXZ    004d0b00 f   WestBoss.obj
 0001:000cfc30       ?update@TAG_WBTAZ@@QAEXXZ  004d0c30 f   WestBoss.obj
 0001:000cfff0       ?projectileStateCollisionCallback@TAG_WBTAZ@@SAXQAUTAG_ACTORINSTANCE@@@Z 004d0ff0 f   WestBoss.obj
 0001:000d0140       ?launchStateChangeCallback@TAG_WBTAZ@@SAXPAUTAG_ACTORINSTANCE@@@Z 004d1140 f   WestBoss.obj
 0001:000d0200       ?getHitByExplosion@TAG_WBTAZ@@QAEXQBUTAG_BALLEXPBRANCH@@@Z 004d1200 f   WestBoss.obj
 0001:000d0500       ?shutdown@TAG_WBTAZ@@QAEXXZ 004d1500 f   WestBoss.obj
 0001:000d0530       ?loseHealthFromExplosion@TAG_WBTAZ@@QAEXXZ 004d1530 f   WestBoss.obj
 0001:000d0610       ?realign@TAG_BOOK@@QAEXXZ  004d1610 f i WestBoss.obj
 0001:000d0660       ?init@TAG_WBDYNAMITE@@QAEXQAMM@Z 004d1660 f   WestBoss.obj
 0001:000d0720       ?init@TAG_WBDYNAMITE@@QAEXXZ 004d1720 f   WestBoss.obj
 0001:000d0800       ?setScale@TAG_ACTORINSTANCEUSER@@QAEXM@Z 004d1800 f i WestBoss.obj
 0001:000d0870       ?scale@TAG_ACTORINSTANCEUSER@@QBEAAY03MXZ 004d1870 f i WestBoss.obj
 0001:000d08a0       ?kaboom@TAG_WBDYNAMITE@@QAEXXZ 004d18a0 f   WestBoss.obj
 0001:000d0940       ?setState@TAG_WBDYNAMITE@@QAEXW4WBDynamiteState@@@Z 004d1940 f   WestBoss.obj
 0001:000d0a40       ?update@TAG_WBDYNAMITE@@QAEXXZ 004d1a40 f   WestBoss.obj
 0001:000d0bf0       ?draw@TAG_WBDYNAMITE@@QAEXXZ 004d1bf0 f   WestBoss.obj
 0001:000d0e80       ?initFragments@TAG_WBTNTCRATE@@QAEXPAU_TBActorNodeInstance@@QAH@Z 004d1e80 f   WestBoss.obj
 0001:000d0fb0       ?launchFragments@TAG_WBTNTCRATE@@QAEXM@Z 004d1fb0 f   WestBoss.obj
 0001:000d1120       ?countFragments@TAG_WBTNTCRATE@@QAEHPAU_TBActorNodeInstance@@@Z 004d2120 f   WestBoss.obj
 0001:000d11f0       ?updateFragments@TAG_WBTNTCRATE@@QAEXXZ 004d21f0 f   WestBoss.obj
 0001:000d13e0       ?drawFragments@TAG_WBTNTCRATE@@QAEXXZ 004d23e0 f   WestBoss.obj
 0001:000d1460       ?init@TAG_WBTNTCRATE@@QAEXQADW4WBTNTCrateType@@@Z 004d2460 f   WestBoss.obj
 0001:000d15b0       ?kaboom@TAG_WBTNTCRATE@@QAEXM@Z 004d25b0 f   WestBoss.obj
 0001:000d16c0       ?update@TAG_WBTNTCRATE@@QAEXXZ 004d26c0 f   WestBoss.obj
 0001:000d1750       ?shutdown@TAG_WBTNTCRATE@@QAEXXZ 004d2750 f   WestBoss.obj
 0001:000d17b0       ?setCamera@TAG_WESTBOSSGAME@@AAEXW4EWestBossCamera@@@Z 004d27b0 f   WestBoss.obj
 0001:000d1c70       ?getYang@TAG_ACTORINSTANCEUSER@@QBEMABU1@@Z 004d2c70 f i WestBoss.obj
 0001:000d1cc0       ?getYang@TAG_ACTORINSTANCEUSER@@QBEMQAM@Z 004d2cc0 f i WestBoss.obj
 0001:000d1d30       ?updateCamera@TAG_WESTBOSSGAME@@AAEXXZ 004d2d30 f   WestBoss.obj
 0001:000d2010       ?setState@TAG_WESTBOSSGAME@@QAEXH@Z 004d3010 f   WestBoss.obj
 0001:000d20b0       ?respondToMessage@TAG_WESTBOSSGAME@@QAEXQBUTAG_ACTORINSTANCE@@QBD@Z 004d30b0 f   WestBoss.obj
 0001:000d2100       ?initScoreBook@TAG_WESTBOSSGAME@@EAEXXZ 004d3100 f   WestBoss.obj
 0001:000d2b70       ?clear@TAG_TEXTBOX@@QAEXXZ 004d3b70 f i WestBoss.obj
 0001:000d2ba0       ??0TAG_BRICKDISPLAY@@QAE@QBD@Z 004d3ba0 f i WestBoss.obj
 0001:000d2c20       ?getRequiredHeight@TAG_BRICKDISPLAY@@UAEMXZ 004d3c20 f i WestBoss.obj
 0001:000d2c60       ?getRequiredWidth@TAG_BRICKDISPLAY@@UAEMXZ 004d3c60 f i WestBoss.obj
 0001:000d2ca0       ??_ETAG_BRICKDISPLAY@@UAEPAXI@Z 004d3ca0 f i WestBoss.obj
 0001:000d2ca0       ??_GTAG_BRICKDISPLAY@@UAEPAXI@Z 004d3ca0 f i WestBoss.obj
 0001:000d2d00       ??1TAG_BRICKDISPLAY@@UAE@XZ 004d3d00 f i WestBoss.obj
 0001:000d2d40       ??0GOLFBAR@@QAE@PBMMQ6AXJM@ZJQBD@Z 004d3d40 f i WestBoss.obj
 0001:000d2df0       ?getRequiredHeight@GOLFBAR@@UAEMXZ 004d3df0 f i WestBoss.obj
 0001:000d2e40       ?getRequiredWidth@GOLFBAR@@UAEMXZ 004d3e40 f i WestBoss.obj
 0001:000d2e90       ??_EGOLFBAR@@UAEPAXI@Z     004d3e90 f i WestBoss.obj
 0001:000d2e90       ??_GGOLFBAR@@UAEPAXI@Z     004d3e90 f i WestBoss.obj
 0001:000d2ef0       ??1GOLFBAR@@UAE@XZ         004d3ef0 f i WestBoss.obj
 0001:000d2f30       ?initMessageBook@TAG_WESTBOSSGAME@@EAEXXZ 004d3f30 f   WestBoss.obj
 0001:000d2fc0       ?initInstructionBook@TAG_WESTBOSSGAME@@EAEXXZ 004d3fc0 f   WestBoss.obj
 0001:000d2ff0       ?draw@TAG_WESTBOSSGAME@@QAEXXZ 004d3ff0 f   WestBoss.obj
 0001:000d3110       ?draw2@TAG_WESTBOSSGAME@@QAEXXZ 004d4110 f   WestBoss.obj
 0001:000d3260       ?preInit@TAG_WESTBOSSGAME@@QAEXXZ 004d4260 f   WestBoss.obj
 0001:000d3290       ?init@TAG_WESTBOSSGAME@@QAEXXZ 004d4290 f   WestBoss.obj
 0001:000d3840       ?addTarget@TAG_KOSCAMDATA@@QAEXQAU_TBActorInstance@@MM@Z 004d4840 f i WestBoss.obj
 0001:000d38f0       ??0TAG_KOSCAMTARGET@@QAE@QAU_TBActorInstance@@MM@Z 004d48f0 f i WestBoss.obj
 0001:000d3940       ?SetHearingRange@@YAXM@Z   004d4940 f i WestBoss.obj
 0001:000d3970       ?init@TAG_WBSKATEBOMB@@QAEXXZ 004d4970 f i WestBoss.obj
 0001:000d39e0       ?update@TAG_WESTBOSSGAME@@QAEXXZ 004d49e0 f   WestBoss.obj
 0001:000d3c40       ?shutdown@TAG_WESTBOSSGAME@@QAEXXZ 004d4c40 f   WestBoss.obj
 0001:000d3da0       ?postShutdown@TAG_WESTBOSSGAME@@QAEXXZ 004d4da0 f   WestBoss.obj
 0001:000d3dd0       ?addSkateBomb@TAG_WESTBOSSGAME@@AAEXHHMMM@Z 004d4dd0 f   WestBoss.obj
 0001:000d3e30       ?evaluateGridPos@TAG_WESTBOSSGAME@@ABEXQBMQAM@Z 004d4e30 f   WestBoss.obj
 0001:000d3eb0       ?evaluateGridX@TAG_WESTBOSSGAME@@ABEMM@Z 004d4eb0 f i WestBoss.obj
 0001:000d3ef0       ?getHeightOnGrid@TAG_WESTBOSSGAME@@ABEMMM@Z 004d4ef0 f i WestBoss.obj
 0001:000d3f40       ?evaluateGridZ@TAG_WESTBOSSGAME@@ABEMM@Z 004d4f40 f i WestBoss.obj
 0001:000d3f80       ?sitPointOnGrid@TAG_WESTBOSSGAME@@ABEXQAMM@Z 004d4f80 f   WestBoss.obj
 0001:000d4010       ?getCrate@TAG_WESTBOSSGAME@@AAEPAUTAG_WBTNTCRATE@@HH@Z 004d5010 f   WestBoss.obj
 0001:000d40f0       ??0?$LOOPARRAY@UTAG_WBDYNAMITE@@$0P@@@QAE@QBD@Z 004d50f0 f i WestBoss.obj
 0001:000d4180       ??0TAG_WBDYNAMITE@@QAE@XZ  004d5180 f i WestBoss.obj
 0001:000d41c0       ?getNew@?$LOOPARRAY@UTAG_WBDYNAMITE@@$0P@@@QAEPAUTAG_WBDYNAMITE@@H@Z 004d51c0 f i WestBoss.obj
 0001:000d4330       ?discardOldest@?$LOOPARRAY@UTAG_WBDYNAMITE@@$0P@@@QAEXH@Z 004d5330 f i WestBoss.obj
 0001:000d43f0       ??0?$LOOPARRAY@UTAG_WBSKATEBOMB@@$08@@QAE@QBD@Z 004d53f0 f i WestBoss.obj
 0001:000d4480       ??0TAG_WBSKATEBOMB@@QAE@XZ 004d5480 f i WestBoss.obj
 0001:000d44c0       ?getNew@?$LOOPARRAY@UTAG_WBSKATEBOMB@@$08@@QAEPAUTAG_WBSKATEBOMB@@H@Z 004d54c0 f i WestBoss.obj
 0001:000d4630       ?init@?$LOOPARRAY@UTAG_WBDYNAMITE@@$0P@@@QAEXQBD@Z 004d5630 f i WestBoss.obj
 0001:000d4690       ?init@?$LOOPARRAY@UTAG_WBSKATEBOMB@@$08@@QAEXQBD@Z 004d5690 f i WestBoss.obj
 0001:000d46f0       ?discardOldest@?$LOOPARRAY@UTAG_WBSKATEBOMB@@$08@@QAEXH@Z 004d56f0 f i WestBoss.obj
 0001:000d47b0       ?append@?$LINKEDLIST@UTAG_KOSCAMTARGET@@@@QAEPAUTAG_KOSCAMTARGET@@QAU2@@Z 004d57b0 f i WestBoss.obj
 0001:000d48b0       ??0?$LINKEDLIST@UTAG_KOSCAMTARGET@@@@AAE@QAV0@QAUTAG_KOSCAMTARGET@@0@Z 004d58b0 f i WestBoss.obj
 0001:000d4a00       ??1TAG_ZOOBOSSGAME@@QAE@XZ 004d5a00 f i ZooBoss.obj
 0001:000d4a90       ??0TAG_ZOOBOSSGAME@@QAE@XZ 004d5a90 f i ZooBoss.obj
 0001:000d4b60       ??1TAG_ZBBAT@@QAE@XZ       004d5b60 f i ZooBoss.obj
 0001:000d4be0       ??1TAG_ZBBALL@@QAE@XZ      004d5be0 f i ZooBoss.obj
 0001:000d4c20       ??0TAG_ZBBAT@@QAE@XZ       004d5c20 f i ZooBoss.obj
 0001:000d4cc0       ??0TAG_ZBBALL@@QAE@XZ      004d5cc0 f i ZooBoss.obj
 0001:000d4e00       ?ZooBoss_introIDpauseUpdateFunc@@YAXH@Z 004d5e00 f   ZooBoss.obj
 0001:000d4e40       ?draw2@TAG_ZOOBOSSGAME@@QAEXXZ 004d5e40 f   ZooBoss.obj
 0001:000d5020       ?initScoreBook@TAG_ZOOBOSSGAME@@EAEXXZ 004d6020 f   ZooBoss.obj
 0001:000d56b0       ?initMessageBook@TAG_ZOOBOSSGAME@@EAEXXZ 004d66b0 f   ZooBoss.obj
 0001:000d5890       ?initInstructionBook@TAG_ZOOBOSSGAME@@EAEXXZ 004d6890 f   ZooBoss.obj
 0001:000d58c0       ?setState@TAG_ZOOBOSSGAME@@AAEXH@Z 004d68c0 f   ZooBoss.obj
 0001:000d59e0       ?init@TAG_ZOOBOSSGAME@@QAEXABUTAG_RECTANGLE@@@Z 004d69e0 f   ZooBoss.obj
 0001:000d5e80       ?getNormalYang@TAG_ZBBAT@@QBEMXZ 004d6e80 f i ZooBoss.obj
 0001:000d5eb0       ?respondToMessage@TAG_ZOOBOSSGAME@@QAEXQBUTAG_ACTORINSTANCE@@QBD@Z 004d6eb0 f   ZooBoss.obj
 0001:000d5f80       ?cameraLookAtBat@TAG_ZOOBOSSGAME@@AAEXH@Z 004d6f80 f   ZooBoss.obj
 0001:000d60e0       ?setCamera@TAG_ZOOBOSSGAME@@AAEXW4EZooBossCamera@@@Z 004d70e0 f   ZooBoss.obj
 0001:000d64f0       ?updateCamera@TAG_ZOOBOSSGAME@@AAEXXZ 004d74f0 f   ZooBoss.obj
 0001:000d67e0       ?update@TAG_ZOOBOSSGAME@@QAEXXZ 004d77e0 f   ZooBoss.obj
 0001:000d6c80       ?shutdown@TAG_ZOOBOSSGAME@@QAEXXZ 004d7c80 f   ZooBoss.obj
 0001:000d6d70       ?shutdown@TAG_ZBBAT@@QAEXXZ 004d7d70 f i ZooBoss.obj
 0001:000d6dc0       ?increaseScore@TAG_ZOOBOSSGAME@@QAEXW4ZBPointAward@@@Z 004d7dc0 f   ZooBoss.obj
 0001:000d6e10       ?updateScoreDisplay@TAG_ZOOBOSSGAME@@QAEXXZ 004d7e10 f   ZooBoss.obj
 0001:000d6ea0       ?sulk@TAG_ZBBAT@@QAEXAAU1@@Z 004d7ea0 f   ZooBoss.obj
 0001:000d6f30       ?celebrate@TAG_ZBBAT@@QAEXAAU1@@Z 004d7f30 f   ZooBoss.obj
 0001:000d6fc0       ?init@TAG_ZBBAT@@QAEXMABUTAG_RECTANGLE@@QAMW4ZBBatType@@QAUTAG_TEXTBOX@@QAUTAG_PLAYER@@@Z 004d7fc0 f   ZooBoss.obj
 0001:000d7630       ?bmVector2DCopy@@YAXQAMQBM@Z 004d8630 f i ZooBoss.obj
 0001:000d7670       ?updateScoreDisplay@TAG_ZBBAT@@QAEXXZ 004d8670 f i ZooBoss.obj
 0001:000d76c0       ?getScore@TAG_ZBBAT@@QBEHXZ 004d86c0 f i ZooBoss.obj
 0001:000d76f0       ?setNormalYang@TAG_ZBBAT@@QAEXM@Z 004d86f0 f i ZooBoss.obj
 0001:000d7720       ?resetYang@TAG_ZBBAT@@QAEXXZ 004d8720 f i ZooBoss.obj
 0001:000d7760       ?draw@TAG_ZBBAT@@QAEXXZ    004d8760 f   ZooBoss.obj
 0001:000d78e0       ?setXZVelocity@TAG_ZBBAT@@QAEXMM@Z 004d88e0 f   ZooBoss.obj
 0001:000d7940       ?respondToMessage@TAG_ZBBAT@@QAEXQBD@Z 004d8940 f   ZooBoss.obj
 0001:000d7a50       ?scare@TAG_ZBBAT@@QAEXXZ   004d8a50 f   ZooBoss.obj
 0001:000d7b30       ?AIupdate@TAG_ZBBAT@@QAEXAAUTAG_ZBBALL@@@Z 004d8b30 f   ZooBoss.obj
 0001:000d8730       ?bmVector2DAdd@@YAXQAMQBM1@Z 004d9730 f i ZooBoss.obj
 0001:000d8770       ?getTurnSpeed@TAG_ZBBALL@@QBEMXZ 004d9770 f i ZooBoss.obj
 0001:000d87b0       ?humanUpdate@TAG_ZBBAT@@QAEXXZ 004d97b0 f   ZooBoss.obj
 0001:000d8aa0       ?setState@TAG_ZBBAT@@QAEXW4ZBBatState@@@Z 004d9aa0 f   ZooBoss.obj
 0001:000d8d00       ?increaseScore@TAG_ZBBAT@@QAEXXZ 004d9d00 f i ZooBoss.obj
 0001:000d8d50       ?update@TAG_ZBBAT@@QAEXXZ  004d9d50 f   ZooBoss.obj
 0001:000d9990       ?contain@TAG_RECTANGLE@@QBEAAY03MAAY03MMHH@Z 004da990 f i ZooBoss.obj
 0001:000d9a70       ?isDeflecting@TAG_ZBBAT@@QBE_NABUTAG_ZBBALL@@@Z 004daa70 f i ZooBoss.obj
 0001:000d9b30       ?getHit@TAG_ZBBAT@@QAEXABUTAG_ZBBALL@@@Z 004dab30 f   ZooBoss.obj
 0001:000d9c80       ?getKnocked@TAG_ZBBAT@@QAEXQBUTAG_ZBBALL@@@Z 004dac80 f   ZooBoss.obj
 0001:000d9d70       ?getProdded@TAG_ZBBAT@@QAEXABUTAG_ZBBALL@@@Z 004dad70 f   ZooBoss.obj
 0001:000d9fb0       ?init@TAG_ZBBALL@@QAEXQAMMABUTAG_RECTANGLE@@W4ZBballType@@@Z 004dafb0 f   ZooBoss.obj
 0001:000da2e0       ?setState@TAG_ZBBALL@@QAEXW4ZBballState@@@Z 004db2e0 f   ZooBoss.obj
 0001:000da900       ?update@TAG_ZBBALL@@QAEXXZ 004db900 f   ZooBoss.obj
 0001:000db4b0       ?FindRandomlySignedAngle@@YAMMM@Z 004dc4b0 f i ZooBoss.obj
 0001:000db510       ?FindPositiveAngle@@YAMMM@Z 004dc510 f i ZooBoss.obj
 0001:000db560       ?FindNegativeAngle@@YAMMM@Z 004dc560 f i ZooBoss.obj
 0001:000db5b0       ?draw@TAG_ZBBALL@@QBEXXZ   004dc5b0 f   ZooBoss.obj
 0001:000db6c0       ?shutdown@TAG_ZBBALL@@QAEXXZ 004dc6c0 f   ZooBoss.obj
 0001:000db6f0       ?respondToMessage@TAG_ZBBALL@@QAEXQBD@Z 004dc6f0 f   ZooBoss.obj
 0001:000db800       ?quake@TAG_ZBBALL@@QAEXXZ  004dc800 f   ZooBoss.obj
 0001:000db850       ?beDeflected@TAG_ZBBALL@@QAEXABUTAG_ZBBAT@@@Z 004dc850 f   ZooBoss.obj
 0001:000dbb20       ?innerCollide@TAG_ZBBALL@@QBE_NABUTAG_ZBBAT@@@Z 004dcb20 f   ZooBoss.obj
 0001:000dbbd0       ?outerCollide@TAG_ZBBALL@@QBE_NABUTAG_ZBBAT@@@Z 004dcbd0 f   ZooBoss.obj
 0001:000dbc80       ?tuskCollide@TAG_ZBBALL@@QBE_NABUTAG_ZBBAT@@@Z 004dcc80 f   ZooBoss.obj
 0001:000dbd50       ?getYAngFromLOS@TAG_ACTORINSTANCEUSER@@QBEMABU1@@Z 004dcd50 f i ZooBoss.obj
 0001:000dbda0       ?hear@TAG_ZBBALL@@QAE_NABUTAG_ZBBAT@@@Z 004dcda0 f   ZooBoss.obj
 0001:000dbe50       ?applyNormalMovement@TAG_ZBBALL@@QAEXM@Z 004dce50 f   ZooBoss.obj
 0001:000dbf30       ?testWallCollisions@TAG_ZBBALL@@QAEXXZ 004dcf30 f   ZooBoss.obj
 0001:000dc1c0       ?footstep@TAG_ZBBALL@@QAEXH_N@Z 004dd1c0 f   ZooBoss.obj
 0001:000dc380       ?groundPoundCameraShake@TAG_ZOOBOSSGAME@@AAEXQAMMM@Z 004dd380 f   ZooBoss.obj
 0001:000dc540       ?spitCollide@TAG_ZOOBOSSGAME@@SAHPAUTAG_ACTORINSTANCE@@0@Z 004dd540 f   ZooBoss.obj
 0001:000dc5d0       ?UpdateBubbleGumPowerUpForCharacter@@YAXPAUTAG_ACTORINSTANCE@@@Z 004dd5d0 f   bubblegum.obj
 0001:000dc920       ?AttachGumBubbleToActor@@YAHPAUTAG_ACTORINSTANCE@@@Z 004dd920 f   bubblegum.obj
 0001:000dc9b0       ?UpdateGumBubble@@YAXPAUTAG_ACTORINSTANCE@@@Z 004dd9b0 f   bubblegum.obj
 0001:000dc9f0       ?CreateCharacterChilliPepperSmoke@@YAXPAUTAG_ACTORINSTANCE@@@Z 004dd9f0 f   chillipepper.obj
 0001:000dcd60       ?UpdateCharacterChilliPepperPowerUp@@YAXPAUTAG_ACTORINSTANCE@@@Z 004ddd60 f   chillipepper.obj
 0001:000dce40       ?CreateChilliPepperFlameThrower@@YAXPAUTAG_ACTORINSTANCE@@@Z 004dde40 f   chillipepper.obj
 0001:000dd140       ?UpdateChilliPepperFire@@YAXPAUTAG_DEBRIS@@@Z 004de140 f   chillipepper.obj
 0001:000dd340       ?UpdateChilliPepperFireCollision@@YAXPAUTAG_DEBRIS@@@Z 004de340 f   chillipepper.obj
 0001:000dd550       ?UpdateChilliPepperTazCollision@@YAXPAUTAG_DEBRIS@@@Z 004de550 f   chillipepper.obj
 0001:000dd6f0       ?UpdateActorHiccup@@YAXPAUTAG_ACTORINSTANCE@@@Z 004de6f0 f   hiccup.obj
 0001:000ddc00       ?UpdateCharacterInvisiblity@@YAXPAUTAG_ACTORINSTANCE@@@Z 004dec00 f   invisibletaz.obj
 0001:000dde70       ?SuperBurp@@YAXPAUTAG_PLAYER@@@Z 004dee70 f   superburp.obj
 0001:000ddf40       ??0TAG_SUPERBURP@@QAE@PAUTAG_PLAYER@@@Z 004def40 f   superburp.obj
 0001:000ddfc0       ??1TAG_SUPERBURP@@QAE@XZ   004defc0 f   superburp.obj
 0001:000ddff0       ?Update@TAG_SUPERBURP@@QAEHXZ 004deff0 f   superburp.obj
 0001:000de0d0       ?SmashStuff@@YAXQBUTAG_ACTORINSTANCELIST@@PAUTAG_ACTORINSTANCE@@MHQAM@Z 004df0d0 f   superburp.obj
 0001:000de2e0       ?Draw@TAG_SUPERBURP@@QAEXXZ 004df2e0 f   superburp.obj
 0001:000de310       ?CreateSuperBurpBlastRadius@@YAHPAUTAG_ACTORINSTANCE@@@Z 004df310 f   superburpeffect.obj
 0001:000de4c0       ?PrepSuperBurpBlastRadius@@YAHPAUTAG_ACTORINSTANCE@@@Z 004df4c0 f   superburpeffect.obj
 0001:000de580       ?UpdateSuperBurpBlastRadius@@YAXPAUTAG_ACTORINSTANCE@@@Z 004df580 f   superburpeffect.obj
 0001:000de670       ?DrawSuperBurpBlastRadius@@YAXPAUTAG_ACTORINSTANCE@@@Z 004df670 f   superburpeffect.obj
 0001:000de760       ?CreateBubbles@@YAXPAUTAG_ACTORINSTANCE@@MMW4EBubbleColour@@@Z 004df760 f   superburpeffect.obj
 0001:000deac0       ?UpdateBubbles@@YAXPAUTAG_DEBRIS@@@Z 004dfac0 f   superburpeffect.obj
 0001:000deb90       ?CreateAudioOptionsMenuPage@@YAXPAUTAG_FRONTENDMENU@@@Z 004dfb90 f   audiomenu.obj
 0001:000df500       ?UpdateAudioOptionsMenuPage@@YAXPAUTAG_FRONTENDMENU@@PAUTAG_PADCONTROLSTATUS@@@Z 004e0500 f   audiomenu.obj
 0001:000df7d0       ?CreateExtrasMenuPage@@YAXPAUTAG_FRONTENDMENU@@@Z 004e07d0 f   extrasmenu.obj
 0001:000e0020       ?UpdateExtrasMenuPage@@YAXPAUTAG_FRONTENDMENU@@PAUTAG_PADCONTROLSTATUS@@@Z 004e1020 f   extrasmenu.obj
 0001:000e0410       ?CreateFrontEndMenuBook@@YAXXZ 004e1410 f   frontendmenu.obj
 0001:000e0570       ?CreateMainMenuPage@@YAXPAUTAG_FRONTENDMENU@@@Z 004e1570 f   frontendmenu.obj
 0001:000e10b0       ??0TAG_BOOK@@QAE@_N@Z      004e20b0 f i frontendmenu.obj
 0001:000e1140       ?FreeFrontEndMenuBook@@YAXXZ 004e2140 f   frontendmenu.obj
 0001:000e1270       ?UpdateFrontEndMenuBook@@YAXXZ 004e2270 f   frontendmenu.obj
 0001:000e1390       ?UpdateMainMenuPage@@YAXPAUTAG_FRONTENDMENU@@PAUTAG_PADCONTROLSTATUS@@@Z 004e2390 f   frontendmenu.obj
 0001:000e1b00       ?DrawFrontEndMenuBook@@YAXXZ 004e2b00 f   frontendmenu.obj
 0001:000e1bf0       ?CreateGameOptionsMenuPage@@YAXPAUTAG_FRONTENDMENU@@@Z 004e2bf0 f   optionsmenu.obj
 0001:000e2740       ?UpdateGameOptionsMenuPage@@YAXPAUTAG_FRONTENDMENU@@PAUTAG_PADCONTROLSTATUS@@@Z 004e3740 f   optionsmenu.obj
 0001:000e3010       ?ChangeScreenOffset@@YAXHH@Z 004e4010 f   optionsmenu.obj
 0001:000e30b0       ?FrontEndRumbleCallback@@YAXW4EBQueueCallbackReason@@PAU_TBActorInstance@@PAU_TBActorNodeInstance@@PAU_TBActorAnimSegment@@PAX@Z 004e40b0 f   optionsmenu.obj
 0001:000e3160       ?CreateRecordsMenuPage@@YAXPAUTAG_FRONTENDMENU@@@Z 004e4160 f   recordsmenu.obj
 0001:000e59e0       ?UpdateRecordsMenuPage@@YAXPAUTAG_FRONTENDMENU@@PAUTAG_PADCONTROLSTATUS@@@Z 004e69e0 f   recordsmenu.obj
 0001:000e6e90       ?SetFrontEndRecordsText@@YAXPAUTAG_RECORDSPAGE@@I@Z 004e7e90 f   recordsmenu.obj
 0001:000e7150       ?CreateStartGameMenuPage@@YAXPAUTAG_FRONTENDMENU@@@Z 004e8150 f   startgamemenu.obj
 0001:000e7a10       ?UpdateStartGameMenuPage@@YAXPAUTAG_FRONTENDMENU@@PAUTAG_PADCONTROLSTATUS@@@Z 004e8a10 f   startgamemenu.obj
 0001:000e8240       ?ChooseHubToStartIn@@YAXI@Z 004e9240 f   startgamemenu.obj
 0001:000e8320       ?PrintTimeAndDateIntoLoadTextbox@@YAXPAUTAG_TEXTBOX@@PAU_TBClock@@@Z 004e9320 f   startgamemenu.obj
 0001:000e8510       ?CreateTwoPlayerMenuPage@@YAXPAUTAG_FRONTENDMENU@@@Z 004e9510 f   twoplayermenu.obj
 0001:000e9da0       ?UpdateTwoPlayerMenuPage@@YAXPAUTAG_FRONTENDMENU@@PAUTAG_PADCONTROLSTATUS@@@Z 004eada0 f   twoplayermenu.obj
 0001:000eae80       ?CreateDeathObject@@YAHPAUTAG_ACTORINSTANCE@@@Z 004ebe80 f   death.obj
 0001:000eaf50       ?RespondToDeathCollision@@YAHPAUTAG_ACTORINSTANCE@@0@Z 004ebf50 f   death.obj
 0001:000eafe0       ?CalculateDeathObjectResetPoint@@YAXPAUTAG_ACTORINSTANCE@@0@Z 004ebfe0 f   death.obj
 0001:000eb2a0       ?DeathStateChangeCallback@@YAXPAUTAG_ACTORINSTANCE@@@Z 004ec2a0 f   death.obj
 0001:000eb310       ?InitialiseFrontEndAnimationPaths@@YAXXZ 004ec310 f   frontendanimation.obj
 0001:000ecf60       ?ChooseFrontEndAnimationPath@@YAHW4EMenuPage@@@Z 004edf60 f   frontendanimation.obj
 0001:000ed6b0       ?UpdateFrontEndAnimPaths@@YAXXZ 004ee6b0 f   frontendanimation.obj
 0001:000edf40       ?RequestFrontEndStateChange@@YAHW4ECharState@@@Z 004eef40 f   frontendanimation.obj
 0001:000ee0c0       ?ResetFrontEndAnimPath@@YAXPAUTAG_ACTORINSTANCE@@PAD@Z 004ef0c0 f   frontendanimation.obj
 0001:000ee140       ?RequestTazFrontEndAnimation@@YAXPAD@Z 004ef140 f   frontendanimation.obj
 0001:000ee180       ?UpdateTazFrontEndAnimation@@YAHXZ 004ef180 f   frontendanimation.obj
 0001:000efaf0       ?UpdateIncedentalsFrontEndAnimation@@YAHXZ 004f0af0 f   frontendanimation.obj
 0001:000f0230       ?ChooseIdleAnimationForTazInFrontEnd@@YAPAU_TBActorAnimSegment@@PAUTAG_ACTORINSTANCE@@@Z 004f1230 f   frontendanimation.obj
 0001:000f0280       ?FrontEndRotateTazCallback@@YAHW4EBQueueCallbackReason@@PAU_TBActorInstance@@PAU_TBActorNodeInstance@@PAU_TBActorAnimSegment@@PAX@Z 004f1280 f   frontendanimation.obj
 0001:000f0310       ?InitialiseFrontEndCameraStore@@YAXXZ 004f1310 f   frontendcamera.obj
 0001:000f0360       ?StoreFrontEndCameraInfoFromMap@@YAXPAUTAG_ACTORINSTANCE@@HI@Z 004f1360 f   frontendcamera.obj
 0001:000f03c0       ?AcceptFrontEndCamerasFromStore@@YAXPAUTAG_ACTORINSTANCE@@HI@Z 004f13c0 f   frontendcamera.obj
 0001:000f0460       ?FreeFrontEndCameraStore@@YAXXZ 004f1460 f   frontendcamera.obj
 0001:000f04d0       ?SetFrontEndCameraDestination@@YAXW4EMenuPage@@0@Z 004f14d0 f   frontendcamera.obj
 0001:000f0b00       ?UpdateFrontEndCamera@@YAXXZ 004f1b00 f   frontendcamera.obj
 0001:000f0c30       ?InitialiseFrontEnd@@YAHXZ 004f1c30 f   frontendmain.obj
 0001:000f0fa0       ?StartFrontEndFunctionality@@YAXXZ 004f1fa0 f   frontendmain.obj
 0001:000f1000       ?PrepFrontEnd@@YAXXZ       004f2000 f   frontendmain.obj
 0001:000f1020       ?UpdateFrontEndDelay@@YAHXZ 004f2020 f   frontendmain.obj
 0001:000f10d0       ?UpdateFrontEnd@@YAXXZ     004f20d0 f   frontendmain.obj
 0001:000f11f0       ?DrawFrontEnd@@YAXXZ       004f21f0 f   frontendmain.obj
 0001:000f1210       ?DrawFrontEnd2@@YAXXZ      004f2210 f   frontendmain.obj
 0001:000f14a0       ?FreeFrontEnd@@YAXXZ       004f24a0 f   frontendmain.obj
 0001:000f15d0       ?UpdateFrontEndInitialAnim@@YAHXZ 004f25d0 f   frontendmain.obj
 0001:000f16ac       _GetUserNameA@8            004f26ac f   advapi32:ADVAPI32.dll
 0001:000f16b2       _RegCloseKey@4             004f26b2 f   advapi32:ADVAPI32.dll
 0001:000f16b8       _RegSetValueExA@24         004f26b8 f   advapi32:ADVAPI32.dll
 0001:000f16be       _RegCreateKeyExA@36        004f26be f   advapi32:ADVAPI32.dll
 0001:000f16d0       ?bInitGenericWave@@YAHXZ   004f26d0 f   bSound:wave.obj
 0001:000f1700       ?bShutdownGenericWave@@YAXXZ 004f2700 f   bSound:wave.obj
 0001:000f1720       ?CombineFlags@@YAIPAU_TBSample@@I@Z 004f2720 f   bSound:wave.obj
 0001:000f1770       ?bsPlaySample@@YAHPAU_TBSample@@HHHI@Z 004f2770 f   bSound:wave.obj
 0001:000f1a30       ?bsPlayPositionalSample@@YAHPAU_TBSample@@QAMHHIMM@Z 004f2a30 f   bSound:wave.obj
 0001:000f1e60       ?bsPlayTrackingSample@@YAHPAU_TBSample@@QAMHHIP6AX1HPAX@Z2MM@Z 004f2e60 f   bSound:wave.obj
 0001:000f20e0       ?bsPlaySampleOnChannel@@YAHHPAU_TBSample@@HHHI@Z 004f30e0 f   bSound:wave.obj
 0001:000f21b0       ?bsPlayPositionalSampleOnChannel@@YAHHPAU_TBSample@@QAMHHIMM@Z 004f31b0 f   bSound:wave.obj
 0001:000f2330       ?bsPlayTrackingSampleOnChannel@@YAHHPAU_TBSample@@QAMHHIP6AX1HPAX@Z2MM@Z 004f3330 f   bSound:wave.obj
 0001:000f24d0       ?bsGetMaxSampleChannel@@YAHXZ 004f34d0 f   bSound:wave.obj
 0001:000f24e0       ?bsGetNoofActiveChannels@@YAHXZ 004f34e0 f   bSound:wave.obj
 0001:000f2560       ?bsReserveChannel@@YAXHH@Z 004f3560 f   bSound:wave.obj
 0001:000f25c0       ?bsSetGlobalSampleVolume@@YAXH@Z 004f35c0 f   bSound:wave.obj
 0001:000f2630       ?bsStopChannel@@YAXH@Z     004f3630 f   bSound:wave.obj
 0001:000f26a0       ?bsStopAllChannels@@YAXXZ  004f36a0 f   bSound:wave.obj
 0001:000f2700       ?bsStopSample@@YAXQBU_TBSample@@@Z 004f3700 f   bSound:wave.obj
 0001:000f2760       ?bsStopSampleGroup@@YAXG@Z 004f3760 f   bSound:wave.obj
 0001:000f27f0       ?bsPauseChannel@@YAXHH@Z   004f37f0 f   bSound:wave.obj
 0001:000f2850       ?bsPauseAllChannels@@YAXH@Z 004f3850 f   bSound:wave.obj
 0001:000f2930       ?bsPauseSample@@YAXPAU_TBSample@@H@Z 004f3930 f   bSound:wave.obj
 0001:000f2990       ?bsPauseSampleGroup@@YAXGH@Z 004f3990 f   bSound:wave.obj
 0001:000f2a20       ?bsSetChannelVolume@@YAXHH@Z 004f3a20 f   bSound:wave.obj
 0001:000f2a70       ?bsSetChannelPan@@YAXHH@Z  004f3a70 f   bSound:wave.obj
 0001:000f2ab0       ?bsUpdate@@YAXH@Z          004f3ab0 f   bSound:wave.obj
 0001:000f2cb0       ?bsSetChannelRange@@YAXHMM@Z 004f3cb0 f   bSound:wave.obj
 0001:000f2d80       ?bsGetChannelStatus@@YA?AW4EBSoundChannelStatus@@H@Z 004f3d80 f   bSound:wave.obj
 0001:000f2dc0       ?bsSetSampleFlags@@YAXPAU_TBSample@@II@Z 004f3dc0 f   bSound:wave.obj
 0001:000f2de0       ?bInitSpecificMusic@@YAHXZ 004f3de0 f   bSound:pcAudioStream.obj
 0001:000f2e10       ?bLoadAudioStreamByCRC@@YAPAU_TBAudioStream@@PAU_TBPackageIndex@@I@Z 004f3e10 f   bSound:pcAudioStream.obj
 0001:000f2ee0       ?bDeleteAudioStream@@YAXPAU_TBAudioStream@@@Z 004f3ee0 f   bSound:pcAudioStream.obj
 0001:000f2f30       ?bsPlayAudioStream@@YAHPAU_TBAudioStream@@IIHIP6AX0W4EBSoundStreamCallbackReason@@@Z@Z 004f3f30 f   bSound:pcAudioStream.obj
 0001:000f42a0       ?bsStopAudioStream@@YAXPAU_TBAudioStream@@@Z 004f52a0 f   bSound:pcAudioStream.obj
 0001:000f4470       ?bsAllocAudioStreamData@@YAHPAU_TBAudioStream@@@Z 004f5470 f   bSound:pcAudioStream.obj
 0001:000f4500       ?bsFreeAudioStreamData@@YAXPAU_TBAudioStream@@@Z 004f5500 f   bSound:pcAudioStream.obj
 0001:000f45a0       ?bsSetAudioStreamVolume@@YAHPAU_TBAudioStream@@IHH@Z 004f55a0 f   bSound:pcAudioStream.obj
 0001:000f4770       ?bsSetGlobalAudioStreamVolume@@YAXH@Z 004f5770 f   bSound:pcAudioStream.obj
 0001:000f4880       ?bsGetGlobalAudioStreamVolume@@YAHXZ 004f5880 f   bSound:pcAudioStream.obj
 0001:000f4890       ?bsSetAudioStreamFrequency@@YAHPAU_TBAudioStream@@I@Z 004f5890 f   bSound:pcAudioStream.obj
 0001:000f4960       ?bsSetAudioStreamFlags@@YAHPAU_TBAudioStream@@I@Z 004f5960 f   bSound:pcAudioStream.obj
 0001:000f4a20       ?bsClearAudioStreamFlags@@YAHPAU_TBAudioStream@@I@Z 004f5a20 f   bSound:pcAudioStream.obj
 0001:000f4af0       ?bsGetAudioStreamFlags@@YAHPAU_TBAudioStream@@I@Z 004f5af0 f   bSound:pcAudioStream.obj
 0001:000f4b10       ?bsSeekAudioStream@@YAHPAU_TBAudioStream@@M@Z 004f5b10 f   bSound:pcAudioStream.obj
 0001:000f4b20       ?bsGetAudioStreamPosition@@YAHPAU_TBAudioStream@@@Z 004f5b20 f   bSound:pcAudioStream.obj
 0001:000f4d00       ?bsGetAudioStreamInfo@@YAXPAU_TBAudioStream@@PAH1111PAPAH@Z 004f5d00 f   bSound:pcAudioStream.obj
 0001:000f4d90       ?bGetAudioStreamBufferInfo@@YAXPAU_TBAudioStream@@PAH11111111@Z 004f5d90 f   bSound:pcAudioStream.obj
 0001:000f4eb0       ?bsGetAudioStreamStatus@@YA?AW4EBSoundStreamStatus@@PAU_TBAudioStream@@PAH11@Z 004f5eb0 f   bSound:pcAudioStream.obj
 0001:000f4f00       ?bsFindAudioStreamMarker@@YAHPAU_TBAudioStream@@H@Z 004f5f00 f   bSound:pcAudioStream.obj
 0001:000f5000       ?bsLoadAudioStreamFromFile@@YAPAU_TBAudioStream@@PBD@Z 004f6000 f   bSound:pcAudioStream.obj
 0001:000f5010       ?bInitSpecificWave@@YAHXZ  004f6010 f   bSound:pcWave.obj
 0001:000f56a0       ?bShutdownSpecificWave@@YAXXZ 004f66a0 f   bSound:pcWave.obj
 0001:000f5720       ?bPlaySample@@YAHPAU_TBSample@@HHHIH@Z 004f6720 f   bSound:pcWave.obj
 0001:000f58e0       ?bUpdateChannelVolume@@YAXH@Z 004f68e0 f   bSound:pcWave.obj
 0001:000f59e0       ?bsSetChannelFrequency@@YAXHH@Z 004f69e0 f   bSound:pcWave.obj
 0001:000f5a40       ?bStopChannel@@YAXH@Z      004f6a40 f   bSound:pcWave.obj
 0001:000f5ae0       ?bLoadSampleByCRC@@YAPAU_TBSample@@PAU_TBPackageIndex@@I@Z 004f6ae0 f   bSound:pcWave.obj
 0001:000f5e10       ?bDeleteSample@@YAXPAU_TBSample@@@Z 004f6e10 f   bSound:pcWave.obj
 0001:000f5e70       ?bUpdateSoundChannelStatus@@YAXH@Z 004f6e70 f   bSound:pcWave.obj
 0001:000f5f60       ?bPauseChannel@@YAXHH@Z    004f6f60 f   bSound:pcWave.obj
 0001:000f5ff0       ?bsSet3DDistanceFactor@@YAXM@Z 004f6ff0 f   bSound:pcWave.obj
 0001:000f6000       ?bmSRand@@YAXI@Z           004f7000 f   bMaths:pcMaths.obj
 0001:000f6010       ?bmSqrtApprox@@YAMM@Z      004f7010 f   bMaths:pcMaths.obj
 0001:000f6040       ?bmQuatToMatrix@@YAXQAY03MQBM@Z 004f7040 f   bMaths:pcQuaternion.obj
 0001:000f61e0       ?bmMatrixToQuat@@YAXQAMQAY03$$CBM@Z 004f71e0 f   bMaths:pcQuaternion.obj
 0001:000f64f0       ?bmQuatSlerp@@YAXQAMQBM1M@Z 004f74f0 f   bMaths:pcQuaternion.obj
 0001:000f67f0       ?bmQuatSlerpLonger@@YAXQAMQBM1M@Z 004f77f0 f   bMaths:pcQuaternion.obj
 0001:000f6af0       ?bmQuatSlerpAtFixedSpeed@@YAHQAMQBM1M@Z 004f7af0 f   bMaths:pcQuaternion.obj
 0001:000f6d20       ?bmQuatMultiply@@YAXQAMQBM1@Z 004f7d20 f   bMaths:pcQuaternion.obj
 0001:000f6e20       ?bmQuatDot@@YAMQBM0@Z      004f7e20 f   bMaths:pcQuaternion.obj
 0001:000f6f90       ?bmQuatToRotation@@YAXQAMQBM@Z 004f7f90 f   bMaths:pcQuaternion.obj
 0001:000f70d0       ?bmRotationToQuat@@YAXQAMQBM@Z 004f80d0 f   bMaths:pcQuaternion.obj
 0001:000f7160       ?bmQuatXRotation@@YAXQAMM@Z 004f8160 f   bMaths:pcQuaternion.obj
 0001:000f71d0       ?bmQuatYRotation@@YAXQAMM@Z 004f81d0 f   bMaths:pcQuaternion.obj
 0001:000f7240       ?bmQuatZRotation@@YAXQAMM@Z 004f8240 f   bMaths:pcQuaternion.obj
 0001:000f72b0       ?bmDirectionToQuat@@YAXQAMQBMM@Z 004f82b0 f   bMaths:pcQuaternion.obj
 0001:000f73c0       ?bmMatMultiply@@YAXQAY03MQAY03$$CBM1@Z 004f83c0 f   bMaths:pcMatrix.obj
 0001:000f7780       ?bmMatShow@@YAPADQAY03$$CBMQAD@Z 004f8780 f   bMaths:pcMatrix.obj
 0001:000f7830       ?bmMatXRotation@@YAXQAY03MM@Z 004f8830 f   bMaths:pcMatrix.obj
 0001:000f7900       ?bmMatYRotation@@YAXQAY03MM@Z 004f8900 f   bMaths:pcMatrix.obj
 0001:000f79e0       ?bmMatZRotation@@YAXQAY03MM@Z 004f89e0 f   bMaths:pcMatrix.obj
 0001:000f7ab0       ?bmMatTranslate@@YAXQAY03MMMM@Z 004f8ab0 f   bMaths:pcMatrix.obj
 0001:000f7b60       ?bmMatScale@@YAXQAY03MMMM@Z 004f8b60 f   bMaths:pcMatrix.obj
 0001:000f7c10       ?bmMatXYRotation@@YAXQAY03MMM@Z 004f8c10 f   bMaths:pcMatrix.obj
 0001:000f7d40       ?bmMatYXRotation@@YAXQAY03MMM@Z 004f8d40 f   bMaths:pcMatrix.obj
 0001:000f7e60       ?bmMatXZRotation@@YAXQAY03MMM@Z 004f8e60 f   bMaths:pcMatrix.obj
 0001:000f7f80       ?bmMatZXRotation@@YAXQAY03MMM@Z 004f8f80 f   bMaths:pcMatrix.obj
 0001:000f80b0       ?bmMatYZRotation@@YAXQAY03MMM@Z 004f90b0 f   bMaths:pcMatrix.obj
 0001:000f81e0       ?bmMatZYRotation@@YAXQAY03MMM@Z 004f91e0 f   bMaths:pcMatrix.obj
 0001:000f8300       ?bmMatXYZRotation@@YAXQAY03MMMM@Z 004f9300 f   bMaths:pcMatrix.obj
 0001:000f84a0       ?bmMatXZYRotation@@YAXQAY03MMMM@Z 004f94a0 f   bMaths:pcMatrix.obj
 0001:000f8630       ?bmMatYXZRotation@@YAXQAY03MMMM@Z 004f9630 f   bMaths:pcMatrix.obj
 0001:000f87c0       ?bmMatYZXRotation@@YAXQAY03MMMM@Z 004f97c0 f   bMaths:pcMatrix.obj
 0001:000f8960       ?bmMatZXYRotation@@YAXQAY03MMMM@Z 004f9960 f   bMaths:pcMatrix.obj
 0001:000f8b00       ?bmMatZYXRotation@@YAXQAY03MMMM@Z 004f9b00 f   bMaths:pcMatrix.obj
 0001:000f8c90       ?bmMatInverse@@YAHQAY03MQAY03$$CBM@Z 004f9c90 f   bMaths:pcMatrix.obj
 0001:000f9080       ?bmMatMultiplyVector@@YAXQAY03$$CBMQAM@Z 004fa080 f   bMaths:pcMatrix.obj
 0001:000f9180       ?bmMatMultiplyVector2@@YAXQAMQAY03$$CBMQBM@Z 004fa180 f   bMaths:pcMatrix.obj
 0001:000f9280       ?bmMatTranspose@@YAXQAY03MQAY03$$CBM@Z 004fa280 f   bMaths:pcMatrix.obj
 0001:000f9350       ?bmMatDecompose@@YAXQAY03MQAM11@Z 004fa350 f   bMaths:pcMatrix.obj
 0001:000f9700       ?bmMatTransOrScale@@YAXQAY03MMMM0MMM@Z 004fa700 f   bMaths:pcMatrix.obj
 0001:000f97d0       ?bmMatTransOr@@YAXQAY03MMMM0@Z 004fa7d0 f   bMaths:pcMatrix.obj
 0001:000f98b0       ?bmMatLookAt@@YAXQAY03MQAM1M@Z 004fa8b0 f   bMaths:pcMatrix.obj
 0001:000f9a20       ?bmVectorNorm@@YAMQAMQBM@Z 004faa20 f   bMaths:pcVector.obj
 0001:000f9ad0       ?bmVectorNorm4@@YAMQAMQBM@Z 004faad0 f   bMaths:pcVector.obj
 0001:000f9ba0       ?bmVectorDistance@@YAMQBM0@Z 004faba0 f   bMaths:pcVector.obj
 0001:000f9c20       ?bmVectorDistance4@@YAMQBM0@Z 004fac20 f   bMaths:pcVector.obj
 0001:000f9cc0       ?bmVectorSquaredDistance@@YAMQBM0@Z 004facc0 f   bMaths:pcVector.obj
 0001:000f9d20       ?bmVectorSquaredDistance4@@YAMQBM0@Z 004fad20 f   bMaths:pcVector.obj
 0001:000f9d90       ?bmVectorScaleToLength@@YAXQAMQBMM@Z 004fad90 f   bMaths:pcVector.obj
 0001:000f9e30       ?bmVectorScaleToLength4@@YAXQAMQBMM@Z 004fae30 f   bMaths:pcVector.obj
 0001:000f9ef0       ?bmVectorLerp@@YAXQAMQBM1M@Z 004faef0 f   bMaths:pcVector.obj
 0001:000f9f60       ?bmVectorLerp4@@YAXQAMQBM1M@Z 004faf60 f   bMaths:pcVector.obj
 0001:000f9fe0       ?bmVectorCombine@@YAXQAMQBMM1M@Z 004fafe0 f   bMaths:pcVector.obj
 0001:000fa030       ?bmVectorCombine4@@YAXQAMQBMM1M@Z 004fb030 f   bMaths:pcVector.obj
 0001:000fa0a0       ?bmVectorCalcNormal@@YAXQAMQBM11@Z 004fb0a0 f   bMaths:pcVector.obj
 0001:000fa200       ?bmVectorRotateX@@YAXQAMQBMM@Z 004fb200 f   bMaths:pcVector.obj
 0001:000fa2b0       ?bmVectorRotateY@@YAXQAMQBMM@Z 004fb2b0 f   bMaths:pcVector.obj
 0001:000fa360       ?bmVectorRotateZ@@YAXQAMQBMM@Z 004fb360 f   bMaths:pcVector.obj
 0001:000fa410       ?bmVectorRotateXY@@YAXQAMQBMMM@Z 004fb410 f   bMaths:pcVector.obj
 0001:000fa510       ?bmVectorRotateXZ@@YAXQAMQBMMM@Z 004fb510 f   bMaths:pcVector.obj
 0001:000fa610       ?bmVectorRotateYX@@YAXQAMQBMMM@Z 004fb610 f   bMaths:pcVector.obj
 0001:000fa710       ?bmVectorRotateYZ@@YAXQAMQBMMM@Z 004fb710 f   bMaths:pcVector.obj
 0001:000fa810       ?bmVectorRotateZX@@YAXQAMQBMMM@Z 004fb810 f   bMaths:pcVector.obj
 0001:000fa910       ?bmVectorRotateZY@@YAXQAMQBMMM@Z 004fb910 f   bMaths:pcVector.obj
 0001:000faa10       ?bmVectorRotateXYZ@@YAXQAMQBMMMM@Z 004fba10 f   bMaths:pcVector.obj
 0001:000fab60       ?bmVectorRotateXZY@@YAXQAMQBMMMM@Z 004fbb60 f   bMaths:pcVector.obj
 0001:000facb0       ?bmVectorRotateYXZ@@YAXQAMQBMMMM@Z 004fbcb0 f   bMaths:pcVector.obj
 0001:000fae00       ?bmVectorRotateYZX@@YAXQAMQBMMMM@Z 004fbe00 f   bMaths:pcVector.obj
 0001:000faf50       ?bmVectorRotateZXY@@YAXQAMQBMMMM@Z 004fbf50 f   bMaths:pcVector.obj
 0001:000fb0a0       ?bmVectorRotateZYX@@YAXQAMQBMMMM@Z 004fc0a0 f   bMaths:pcVector.obj
 0001:000fb1f0       ?bmGeomWindingOrder2D@@YAHQBM00@Z 004fc1f0 f   bMaths:geometry.obj
 0001:000fb2f0       ?bmGeomDistanceFromLine2D@@YAMQBU_TBCollisionLine2D@@QBMQAM@Z 004fc2f0 f   bMaths:geometry.obj
 0001:000fb530       ?bmGeomDistanceFromLine@@YAMQBU_TBCollisionLine@@QBMQAM@Z 004fc530 f   bMaths:geometry.obj
 0001:000fb7e0       ?bmGeomDistanceFromInfiniteLine@@YAMQBU_TBCollisionLine@@QBMQAM@Z 004fc7e0 f   bMaths:geometry.obj
 0001:000fb970       ?bmCollideSphereLine@@YAHQBU_TBCollisionSphere@@QBU_TBCollisionLine@@QBMQAU_TBCollisionInfo@@@Z 004fc970 f   bMaths:pcxbCollision.obj
 0001:000fc150       ?bmCollideRayTriangle@@YAHQBU_TBCollisionRay@@QBU_TBCollisionTriangle@@QAU_TBCollisionInfo@@@Z 004fd150 f   bMaths:pcxbCollision.obj
 0001:000fc7d0       ?bmCollideLineCircle2D@@YAHQBU_TBCollisionLine2D@@QBU_TBCollisionCircle2D@@QAU_TBCollisionInfo2D@@@Z 004fd7d0 f   bMaths:collision2d.obj
 0001:000fcac0       ?bmCollideLineLine2D@@YAHQBU_TBCollisionLine2D@@0QAU_TBCollisionInfo2D@@@Z 004fdac0 f   bMaths:collision2d.obj
 0001:000fd260       ?bmCollideCircleLine2D@@YAHQBU_TBCollisionCircle2D@@QBU_TBCollisionLine2D@@QBMQAU_TBCollisionInfo2D@@@Z 004fe260 f   bMaths:collision2d.obj
 0001:000fd790       ?bmCollideLinePolygon2D@@YAHQBU_TBCollisionLine2D@@QBU_TBCollisionPolygon2D@@QAU_TBCollisionInfo2D@@@Z 004fe790 f   bMaths:collision2d.obj
 0001:000fd9c0       ?bmCollideCirclePolygon2D@@YAHQBU_TBCollisionCircle2D@@QBU_TBCollisionPolygon2D@@QBMQAU_TBCollisionInfo2D@@@Z 004fe9c0 f   bMaths:collision2d.obj
 0001:000fdbe0       ?bmCollideSphereSphere@@YAHQBU_TBCollisionSphere@@0QBMQAU_TBCollisionInfo@@@Z 004febe0 f   bMaths:collision.obj
 0001:000fdc90       ?bmCollideSphereSphere_Unit@@YAHQBU_TBCollisionSphere@@0QBMMQAU_TBCollisionInfo@@@Z 004fec90 f   bMaths:collision.obj
 0001:000fde40       ?bmCollideRaySphere@@YAHQBU_TBCollisionRay@@QBU_TBCollisionSphere@@QAU_TBCollisionInfo@@@Z 004fee40 f   bMaths:collision.obj
 0001:000fdf20       ?bmCollideRaySphere_Unit@@YAHQBU_TBCollisionRay@@QBU_TBCollisionSphere@@QAU_TBCollisionInfo@@@Z 004fef20 f   bMaths:collision.obj
 0001:000fe2b0       ?bmCollideRayAABB@@YAHQBU_TBCollisionRay@@QBU_TBCollisionAABB@@QAU_TBCollisionInfo@@@Z 004ff2b0 f   bMaths:collision.obj
 0001:000fe5b0       ?bmCollideSphereTriangle@@YAHQBU_TBCollisionSphere@@QBU_TBCollisionTriangle@@QBMQAU_TBCollisionInfo@@@Z 004ff5b0 f   bMaths:collision.obj
 0001:000ff0a0       ?bmCollideSphereMesh@@YAHQBU_TBCollisionSphere@@QBU_TBCollisionMesh@@QBMQAHQAU_TBCollisionInfo@@@Z 005000a0 f   bMaths:collision.obj
 0001:000ff5d0       ?bmCollideRayMesh@@YAHQBU_TBCollisionRay@@QBU_TBCollisionMesh@@QAHQAU_TBCollisionInfo@@@Z 005005d0 f   bMaths:collision.obj
 0001:000ffae0       ?bmCollideRayCylinder@@YAHQBU_TBCollisionRay@@QBU_TBCollisionCylinder@@QAU_TBCollisionInfo@@@Z 00500ae0 f   bMaths:collision.obj
 0001:00100a90       ?bmCollideRayBox@@YAHQBU_TBCollisionRay@@QBU_TBCollisionBox@@QAU_TBCollisionInfo@@@Z 00501a90 f   bMaths:collision.obj
 0001:00100e90       ?bmCollideSphereAABB@@YAHQBU_TBCollisionSphere@@QBU_TBCollisionAABB@@QBMQAU_TBCollisionInfo@@@Z 00501e90 f   bMaths:collision.obj
 0001:00101300       ?bmCollideSphereBox@@YAHQBU_TBCollisionSphere@@QBU_TBCollisionBox@@QBMQAU_TBCollisionInfo@@@Z 00502300 f   bMaths:collision.obj
 0001:001019b0       ?bLoadCollisionMeshByCRC@@YAPAU_TBCollisionMesh@@PAU_TBPackageIndex@@I@Z 005029b0 f   bMaths:collision.obj
 0001:00101a90       ?bDeleteCollisionMesh@@YAXPAU_TBCollisionMesh@@@Z 00502a90 f   bMaths:collision.obj
 0001:00101ac0       ?bmCollideTriangleSphere@@YAHQBU_TBCollisionTriangle@@QBU_TBCollisionSphere@@QBMQAU_TBCollisionInfo@@@Z 00502ac0 f   bMaths:collision.obj
 0001:00101b70       ?bIntersectSpherePlane@@YAHQBU_TBCollisionSphere@@QBM1@Z 00502b70 f   bMaths:collision.obj
 0001:00101c90       ?bIntersectRayPlane@@YAHQBU_TBCollisionRay@@QBM@Z 00502c90 f   bMaths:collision.obj
 0001:00101db0       ?bIntersectRayPlane_Unit@@YAHQBU_TBCollisionRay@@QBM@Z 00502db0 f   bMaths:collision.obj
 0001:00101ed0       ?bmIntersectRaySphere@@YAHQBU_TBCollisionRay@@QBU_TBCollisionSphere@@@Z 00502ed0 f   bMaths:collision.obj
 0001:00101f50       ?bmIntersectRaySphere_Unit@@YAHQBU_TBCollisionRay@@QBU_TBCollisionSphere@@@Z 00502f50 f   bMaths:collision.obj
 0001:001021a0       ?bmGeomIntersectLines@@YAHQBU_TBCollisionLine@@0QAM1@Z 005031a0 f   bMaths:pcxbGeometry.obj
 0001:001023a0       ?bmGeomLengthAlongVector@@YAMQBM0@Z 005033a0 f   bMaths:pcxbGeometry.obj
 0001:00102410       ?bInitHeap@@YAHII@Z        00503410 f   bKernel:heap.obj
 0001:00102550       ?bShutdownHeap@@YAXXZ      00503550 f   bKernel:heap.obj
 0001:00102810       ?bkHeapReset@@YAXXZ        00503810 f   bKernel:heap.obj
 0001:001028e0       ?bkHeapCalloc@@YAPAXIHPADHG@Z 005038e0 f   bKernel:heap.obj
 0001:00102940       ?bkHeapCallocEx@@YAPAXIHPADHGI@Z 00503940 f   bKernel:heap.obj
 0001:001029a0       ?bkHeapAlloc@@YAPAXIPADHG@Z 005039a0 f   bKernel:heap.obj
 0001:001029d0       ?bkHeapAllocEx@@YAPAXIPADHGIH@Z 005039d0 f   bKernel:heap.obj
 0001:00102f80       ?bkHeapFree@@YAXPAX@Z      00503f80 f   bKernel:heap.obj
 0001:00103540       ?bkHeapRealloc@@YAPAXPAXH@Z 00504540 f   bKernel:heap.obj
 0001:001039b0       ?bkHeapGetBlockSize@@YAHPAX@Z 005049b0 f   bKernel:heap.obj
 0001:00103a20       ?bkHeapShow@@YAXIH@Z       00504a20 f   bKernel:heap.obj
 0001:00103d30       ?bkHeapStats@@YAXXZ        00504d30 f   bKernel:heap.obj
 0001:00103ec0       ?bkHeapCheck@@YAHXZ        00504ec0 f   bKernel:heap.obj
 0001:00103f40       ?bkHeapFreeGroup@@YAXI@Z   00504f40 f   bKernel:heap.obj
 0001:00103fa0       ?bkHeapSetBreakAlloc@@YAXI@Z 00504fa0 f   bKernel:heap.obj
 0001:00103fb0       ?bkHeapFreeSpace@@YAHPAH@Z 00504fb0 f   bKernel:heap.obj
 0001:00104030       ?bkTakeHeapSnapshot@@YAPAU_TBHeapSnapshot@@I@Z 00505030 f   bKernel:heap.obj
 0001:00104170       ?bkDeleteHeapSnapshot@@YAXPAU_TBHeapSnapshot@@@Z 00505170 f   bKernel:heap.obj
 0001:00104190       ?bkCompareHeapSnapshot@@YAHPAU_TBHeapSnapshot@@@Z 00505190 f   bKernel:heap.obj
 0001:00104470       ?bGetCurrentGroup@@YAIXZ   00505470 f   bKernel:heap.obj
 0001:00104490       ?bkHeapGroupPush@@YAHQBD@Z 00505490 f   bKernel:heap.obj
 0001:001044d0       ?bkHeapGroupPop@@YAHXZ     005054d0 f   bKernel:heap.obj
 0001:00104500       ?bkShowHeapStructure@@YAXXZ 00505500 f   bKernel:heap.obj
 0001:001045f0       ?GLib_GetLastError@@YAKPAD@Z 005055f0 f   bKernel:pcDebug.obj
 0001:00104680       ?bInitDebug@@YAXXZ         00505680 f   bKernel:pcDebug.obj
 0001:00104a60       ?bShutdownDebug@@YAXXZ     00505a60 f   bKernel:pcDebug.obj
 0001:00104aa0       ?bkCreateDebugStream@@YAPAU_TBDebugStream@@PAU1@PADI@Z 00505aa0 f   bKernel:pcDebug.obj
 0001:00104ba0       ?bkDeleteDebugStream@@YAXPAU_TBDebugStream@@@Z 00505ba0 f   bKernel:pcDebug.obj
 0001:00104c10       ?bkSetDebugStream@@YAXPAU_TBDebugStream@@@Z 00505c10 f   bKernel:pcDebug.obj
 0001:00104c40       ?bkPrintf@@YAXPADZZ        00505c40 f   bKernel:pcDebug.obj
 0001:00104dc0       ?bkStreamPrintf@@YAXPAU_TBDebugStream@@PADZZ 00505dc0 f   bKernel:pcDebug.obj
 0001:00104e70       ?bkAlert@@YAXPAD@Z         00505e70 f   bKernel:pcDebug.obj
 0001:00104eb0       ?bInitCRCTable@@YAXXZ      00505eb0 f   bKernel:file.obj
 0001:00104f40       ?bkCRC32@@YAIPAEHI@Z       00505f40 f   bKernel:file.obj
 0001:00104fb0       ?bkStringCRC@@YAIPAD@Z     00505fb0 f   bKernel:file.obj
 0001:00105020       ?bGetPackageIndexEntry@@YAPAU_TBFileIndex@@PAU_TBPackageIndex@@H@Z 00506020 f   bKernel:file.obj
 0001:00105040       ?bkGetPakFileTags@@YAHPAU_TBPackageIndex@@PADPAU_TBFileTagInfo@@@Z 00506040 f   bKernel:file.obj
 0001:00105070       ?bkGetPakFileTagsByCRC@@YAHPAU_TBPackageIndex@@IPAU_TBFileTagInfo@@@Z 00506070 f   bKernel:file.obj
 0001:001050d0       ?bkGetPackageID@@YA?AU_TBPackageID@@PAU_TBPackageIndex@@@Z 005060d0 f   bKernel:file.obj
 0001:001050e0       ?bkEnumPackageContents@@YAHPAU_TBPackageIndex@@HIPAIPAU_TBFileTagInfo@@@Z 005060e0 f   bKernel:file.obj
 0001:001051e0       ?bkSetLanguage@@YAXW4EBLanguageID@@@Z 005061e0 f   bKernel:file.obj
 0001:001051f0       ?bkSetFileSearchPath@@YAXHHZZ 005061f0 f   bKernel:file.obj
 0001:00105290       ?bkOpenFileReadOnlyWithSearch@@YAHPADPAPAU_iobuf@@0H@Z 00506290 f   bKernel:file.obj
 0001:001054e0       ?bkLoadFilenameTable@@YAHPAU_TBPackageIndex@@PAD@Z 005064e0 f   bKernel:file.obj
 0001:00105710       ?bkDeleteFilenameTable@@YAHU_TBPackageID@@@Z 00506710 f   bKernel:file.obj
 0001:00105830       ?bkFindFilenameByCRC@@YAPADU_TBPackageID@@I@Z 00506830 f   bKernel:file.obj
 0001:00105910       ?bFindIndexFileByCRC@@YAPAU_TBFileIndex@@PAU_TBPackageIndex@@I@Z 00506910 f   bKernel:file.obj
 0001:001059d0       ?bFindIndexFile@@YAPAU_TBFileIndex@@PAU_TBPackageIndex@@PAD@Z 005069d0 f   bKernel:file.obj
 0001:00105a30       ?bkFilenameTableAddRef@@YAHU_TBPackageID@@@Z 00506a30 f   bKernel:file.obj
 0001:00105a90       ?bkFileLength@@YAHPADH@Z   00506a90 f   bKernel:file.obj
 0001:00105b10       ?bLoadSingleFile@@YAPAEPADPAEPAHH@Z 00506b10 f   bKernel:file.obj
 0001:00105c70       ?bkLoadFileByCRC@@YAPAEPAU_TBPackageIndex@@IPAEPAHPAU_TBFileTagInfo@@H@Z 00506c70 f   bKernel:file.obj
 0001:00105e60       ?bInitResources@@YAXXZ     00506e60 f   bKernel:resources.obj
 0001:00105f00       ?bAddGlobalResource@@YAXPAU_TBResourceInfo@@PAU_TBPackageIndex@@HH@Z 00506f00 f   bKernel:resources.obj
 0001:00105fa0       ?bDeleteGlobalResource@@YAXPAU_TBResourceInfo@@@Z 00506fa0 f   bKernel:resources.obj
 0001:00105ff0       ?bkListResources@@YAXI@Z   00506ff0 f   bKernel:resources.obj
 0001:00106120       ?bLoadPackageResources@@YAHPAU_TBPackageIndex@@IHIPADH@Z 00507120 f   bKernel:resources.obj
 0001:00106460       ?bDeletePackageResources@@YAXU_TBPackageID@@IPADH@Z 00507460 f   bKernel:resources.obj
 0001:00106540       ?bDeleteResourceGroup@@YAXIIPADH@Z 00507540 f   bKernel:resources.obj
 0001:00106630       ?bDeleteAllResources@@YAXPADH@Z 00507630 f   bKernel:resources.obj
 0001:00106690       ?bDeleteResource@@YAXPAXPADH@Z 00507690 f   bKernel:resources.obj
 0001:001067b0       ?bLoadResource@@YAPAU_TBResourceInfo@@PAU_TBPackageIndex@@PADW4EBResourceType@@H1H@Z 005077b0 f   bKernel:resources.obj
 0001:00106920       ?bLoadResourceByCRC@@YAPAU_TBResourceInfo@@PAU_TBPackageIndex@@IW4EBResourceType@@HPADH@Z 00507920 f   bKernel:resources.obj
 0001:00106bb0       ?bkFindResourceByCRC@@YAPAU_TBResourceInfo@@W4EBResourceType@@IU_TBPackageID@@I@Z 00507bb0 f   bKernel:resources.obj
 0001:00106cb0       ?bkWalkResourceList@@YAPAU_TBResourceInfo@@W4EBResourceType@@PAU1@@Z 00507cb0 f   bKernel:resources.obj
 0001:00106d20       ?bkWalkGlobalResourceList@@YAPAU_TBResourceInfo@@PAU1@@Z 00507d20 f   bKernel:resources.obj
 0001:00106d60       ?bkTakeResourceSnapshot@@YAPAU_TBResourceSnapshot@@I@Z 00507d60 f   bKernel:resources.obj
 0001:00106ef0       ?bkDeleteResourceSnapshot@@YAXPAU_TBResourceSnapshot@@@Z 00507ef0 f   bKernel:resources.obj
 0001:00106f10       ?bkCompareResourceSnapshot@@YAHPAU_TBResourceSnapshot@@@Z 00507f10 f   bKernel:resources.obj
 0001:001072e0       ?bInitEvents@@YAXXZ        005082e0 f   bKernel:event.obj
 0001:00107310       ?bShutdownEvents@@YAXXZ    00508310 f   bKernel:event.obj
 0001:00107340       ?bkCreateEvent@@YAHPAD@Z   00508340 f   bKernel:event.obj
 0001:00107480       ?bkTrapEventCallback@@YAPAU_TBEventClient@@PADP6AX00PAX@Z1@Z 00508480 f   bKernel:event.obj
 0001:00107550       ?bkTrapEventQueue@@YAPAU_TBEventClient@@PADHI@Z 00508550 f   bKernel:event.obj
 0001:00107650       ?bkPopEvent@@YAHPAU_TBEventClient@@PAD@Z 00508650 f   bKernel:event.obj
 0001:00107820       ?bkDeleteEvent@@YAXPAD@Z   00508820 f   bKernel:event.obj
 0001:001079b0       ?bkDeleteEventClient@@YAXPAU_TBEventClient@@@Z 005089b0 f   bKernel:event.obj
 0001:00107a40       ?bkGenerateEvent@@YAHPAD0@Z 00508a40 f   bKernel:event.obj
 0001:00107d10       ?bkFlushEventQueue@@YAXPAU_TBEventClient@@H@Z 00508d10 f   bKernel:event.obj
 0001:00107dd0       ?bkFlushAllEventQueues@@YAXPAD@Z 00508dd0 f   bKernel:event.obj
 0001:00107ea0       ?bkHexToInt32@@YAIPAD@Z    00508ea0 f   bKernel:event.obj
 0001:00107f40       ?bkDeleteEventTraps@@YAXPAD@Z 00508f40 f   bKernel:event.obj
 0001:00108040       ?bLoadStringTableByCRC@@YAPAU_TBStringTable@@PAU_TBPackageIndex@@I@Z 00509040 f   bKernel:stringtable.obj
 0001:00108110       ?bDeleteStringTable@@YAXPAU_TBStringTable@@@Z 00509110 f   bKernel:stringtable.obj
 0001:00108140       ?bkString16to8@@YAPADPADPAG@Z 00509140 f   bKernel:stringtable.obj
 0001:00108190       ?bkString8to16@@YAPAGPAGPAD@Z 00509190 f   bKernel:stringtable.obj
 0001:001081e0       ?bkStringSprintf16@@YAHPAGPBGZZ 005091e0 f   bKernel:stringtable.obj
 0001:001094f0       ?bkStringLength16@@YAHPBG@Z 0050a4f0 f   bKernel:stringtable.obj
 0001:00109530       ?bkStringCopy16@@YAPAGPAGPBG@Z 0050a530 f   bKernel:stringtable.obj
 0001:00109580       ?bkStringCompare16@@YAHPBG0@Z 0050a580 f   bKernel:stringtable.obj
 0001:001095f0       ?bkGetStringSample@@YAPAU_TBSample@@PAU_TBStringTable@@H@Z 0050a5f0 f   bKernel:stringtable.obj
 0001:00109630       ?bkGetStringSampleFileName@@YAXPAU_TBStringTable@@HPADH@Z 0050a630 f   bKernel:stringtable.obj
 0001:00109680       ?bkReadClock@@YAHPAU_TBClock@@@Z 0050a680 f   bKernel:pcClock.obj
 0001:00109710       ?bkOpenPackage@@YAPAU_TBPackageIndex@@PAD@Z 0050a710 f   bKernel:pcPackage.obj
 0001:00109730       ?bkLoadPackage@@YAPAU_TBPackageIndex@@PAU1@PADPAE@Z 0050a730 f   bKernel:pcPackage.obj
 0001:00109750       ?bkClosePackage@@YAXPAU_TBPackageIndex@@@Z 0050a750 f   bKernel:pcPackage.obj
 0001:00109770       ?bKernelInitBkgLoad@@YAHXZ 0050a770 f   bKernel:pcBkgload.obj
 0001:00109850       ?bKernelShutdownBkgLoad@@YAHXZ 0050a850 f   bKernel:pcBkgload.obj
 0001:00109ea0       ?bkLoadFileBkg@@YAPAEPAU_TBPackageIndex@@PADPAEPAHPAU_TBFileTagInfo@@1@Z 0050aea0 f   bKernel:pcBkgload.obj
 0001:0010a380       ?bkLoadPackageBkg@@YAPAU_TBPackageIndex@@PAU1@PAD1PAHPAE@Z 0050b380 f   bKernel:pcBkgload.obj
 0001:0010a650       ?bkSetBkgLoadSpeed@@YAXH@Z 0050b650 f   bKernel:pcBkgload.obj
 0001:0010a660       ?bInitTimer@@YAXXZ         0050b660 f   bKernel:pcTimer.obj
 0001:0010a7f0       ?bShutdownTimer@@YAXXZ     0050b7f0 f   bKernel:pcTimer.obj
 0001:0010a800       ?bkTimerRead@@YA_JXZ       0050b800 f   bKernel:pcTimer.obj
 0001:0010a890       ?bkTimerToFPS@@YAM_J@Z     0050b890 f   bKernel:pcTimer.obj
 0001:0010a900       ?bkTimerToScanlines@@YAM_JHH@Z 0050b900 f   bKernel:pcTimer.obj
 0001:0010a940       ?bkTimerDelta@@YA_J_J0@Z   0050b940 f   bKernel:pcTimer.obj
 0001:0010a9c0       ?bkSleep@@YAXH@Z           0050b9c0 f   bKernel:pcTimer.obj
 0001:0010a9f0       ?bkInit@@YAHIII@Z          0050b9f0 f   bKernel:pcBabel.obj
 0001:0010aac0       ?bkShutdown@@YAXXZ         0050bac0 f   bKernel:pcBabel.obj
 0001:0010ab00       ?bkGenerateUniqueFilename@@YAPADPADPBD1@Z 0050bb00 f   bKernel:kernel.obj
 0001:0010ab90       ?bInitKernel@@YAHXZ        0050bb90 f   bKernel:pcKernel.obj
 0001:0010ac20       ?bShutdownKernel@@YAXXZ    0050bc20 f   bKernel:pcKernel.obj
 0001:0010acc0       ?bAddOSEvent@@YAPAXP6AHPAX@Z0PAD@Z 0050bcc0 f   bKernel:pcKernel.obj
 0001:0010ada0       ?bDeleteOSEvent@@YAXPAX@Z  0050bda0 f   bKernel:pcKernel.obj
 0001:0010aea0       ?bHandleOSEvents@@YAXXZ    0050bea0 f   bKernel:pcKernel.obj
 0001:0010af50       ?bActivateApp@@YAXXZ       0050bf50 f   bKernel:pcKernel.obj
 0001:0010b060       ?bDeactivateApp@@YAXXZ     0050c060 f   bKernel:pcKernel.obj
 0001:0010b150       ?bkRun@@YAXP6AXPAX@Z0@Z    0050c150 f   bKernel:pcKernel.obj
 0001:0010b6a0       ?bkCreateMutex@@YAPAXXZ    0050c6a0 f   bKernel:pcKernel.obj
 0001:0010b6d0       ?bkWaitMutex@@YAHPAX@Z     0050c6d0 f   bKernel:pcKernel.obj
 0001:0010b730       ?bkReleaseMutex@@YAHPAX@Z  0050c730 f   bKernel:pcKernel.obj
 0001:0010b760       ?bkDeleteMutex@@YAHPAX@Z   0050c760 f   bKernel:pcKernel.obj
 0001:0010b9c0       ?bInitCommandLine@@YAHXZ   0050c9c0 f   bKernel:pcKernel.obj
 0001:0010bbe0       ?bShutdownCommandLine@@YAXXZ 0050cbe0 f   bKernel:pcKernel.obj
 0001:0010bc60       ?bkGetCommandLine@@YAXPAHQAPAPAD@Z 0050cc60 f   bKernel:pcKernel.obj
 0001:0010bc80       ?bkLoadFile@@YAPAEPAU_TBPackageIndex@@PADPAEPAHPAU_TBFileTagInfo@@H@Z 0050cc80 f   bKernel:pcFile.obj
 0001:0010bce0       ?bkOpenFileReadOnly@@YAHPADPAPAU_iobuf@@@Z 0050cce0 f   bKernel:pcFile.obj
 0001:0010bd30       ?bkReadFromFile@@YAHPAU_iobuf@@PAXH@Z 0050cd30 f   bKernel:pcFile.obj
 0001:0010bd90       ?bkSeekFile@@YAXPAU_iobuf@@HW4EBHostSeekMode@@@Z 0050cd90 f   bKernel:pcFile.obj
 0001:0010be00       ?bkTellFile@@YAHPAU_iobuf@@@Z 0050ce00 f   bKernel:pcFile.obj
 0001:0010be20       ?bkCloseFile@@YAXPAU_iobuf@@@Z 0050ce20 f   bKernel:pcFile.obj
 0001:0010be40       ?bFileLength@@YAHPAU_iobuf@@@Z 0050ce40 f   bKernel:pcFile.obj
 0001:0010beb0       ?bkHostOpenFileReadOnly@@YAHPADPAPAU_iobuf@@@Z 0050ceb0 f   bKernel:pcFile.obj
 0001:0010bf60       ?bkHostCreateFile@@YAHPADPAPAU_iobuf@@@Z 0050cf60 f   bKernel:pcFile.obj
 0001:0010c010       ?bkHostReadFromFile@@YAHPAU_iobuf@@PAXH@Z 0050d010 f   bKernel:pcFile.obj
 0001:0010c070       ?bkHostWriteToFile@@YAHPAU_iobuf@@PAXH@Z 0050d070 f   bKernel:pcFile.obj
 0001:0010c0d0       ?bkHostSeekFile@@YAXPAU_iobuf@@HW4EBHostSeekMode@@@Z 0050d0d0 f   bKernel:pcFile.obj
 0001:0010c140       ?bkHostCloseFile@@YAXPAU_iobuf@@@Z 0050d140 f   bKernel:pcFile.obj
 0001:0010c160       ?bkAssert@@YAXHHPADZZ      0050d160 f   bKernel:bassert.obj
 0001:0010c260       ?bkDataToSafeString@@YAPADPAEHPADH@Z 0050d260 f   bKernel:debug.obj
 0001:0010c310       ?bInitDbgHelp@@YGXXZ       0050d310 f   bKernel:pcImagehlp.obj
 0001:0010c790       ?bShutdownDbgHelp@@YGXXZ   0050d790 f   bKernel:pcImagehlp.obj
 0001:0010c7d0       ?bDumpDXVersions@@YGXXZ    0050d7d0 f   bKernel:pcImagehlp.obj
 0001:0010c910       ?bExceptionHandler@@YGHPAU_EXCEPTION_POINTERS@@@Z 0050d910 f   bKernel:pcImagehlp.obj
 0001:0010d0c0       ?bOpenPackage@@YAPAU_TBPackageIndex@@PAD@Z 0050e0c0 f   bKernel:package.obj
 0001:0010d400       ?bLoadPackage@@YAPAU_TBPackageIndex@@PAU1@PADPAE@Z 0050e400 f   bKernel:package.obj
 0001:0010d5f0       ?bClosePackage@@YAXPAU_TBPackageIndex@@@Z 0050e5f0 f   bKernel:package.obj
 0001:0010d6b0       ?bkPackageFileLength@@YAHPADH@Z 0050e6b0 f   bKernel:package.obj
 0001:0010d710       ?bInitInputHAL@@YAXI@Z     0050e710 f   bInput:pcHAL.obj
 0001:0010e4c0       ?bShutdownInputHAL@@YAXXZ  0050f4c0 f   bInput:pcHAL.obj
 0001:0010e620       ?bSetDefaultJoyStates@@YAXHPAU_TBDeviceInfo@@@Z 0050f620 f   bInput:pcHAL.obj
 0001:0010e690       ?bReadPhysicalInputDevices@@YAXXZ 0050f690 f   bInput:pcHAL.obj
 0001:0010ecb0       ?bReadInput@@YAHHHPAH@Z    0050fcb0 f   bInput:pcHAL.obj
 0001:0010f490       ?bSuspendInput@@YAXXZ      00510490 f   bInput:pcHAL.obj
 0001:0010f630       ?bResumeInput@@YAXXZ       00510630 f   bInput:pcHAL.obj
 0001:0010f7c0       ?biFindPad@@YAHH@Z         005107c0 f   bInput:pcHAL.obj
 0001:0010f850       ?biFFSetParm@@YAHHHZZ      00510850 f   bInput:pcHAL.obj
 0001:0010f860       ?biQueryDevice@@YA?AW4EBIDeviceType@@HPAX@Z 00510860 f   bInput:pcHAL.obj
 0001:0010f8b0       ?biFFStopAll@@YAXXZ        005108b0 f   bInput:pcHAL.obj
 0001:0010f8c0       ?biFFStop@@YAXH@Z          005108c0 f   bInput:pcHAL.obj
 0001:0010f8d0       ?bInitInput@@YAXI@Z        005108d0 f   bInput:input.obj
 0001:0010f930       ?bShutdownInput@@YAXXZ     00510930 f   bInput:input.obj
 0001:0010f950       ?biCreateMap@@YAPAU_TBIChannelMap@@H@Z 00510950 f   bInput:input.obj
 0001:0010fa40       ?biDeleteMap@@YAXPAU_TBIChannelMap@@@Z 00510a40 f   bInput:input.obj
 0001:0010fac0       ?biDeleteAllMaps@@YAXXZ    00510ac0 f   bInput:input.obj
 0001:0010faf0       ?biCreateChannel@@YAPAU_TBIInputChannel@@PAU_TBIChannelMap@@PADHIHHH@Z 00510af0 f   bInput:input.obj
 0001:0010fc60       ?inputIDValidOnPlatfrom@@YAHH@Z 00510c60 f   bInput:input.obj
 0001:0010fcc0       ?biGetChannelName@@YAHPAU_TBIChannelMap@@HPAGPAH2@Z 00510cc0 f   bInput:input.obj
 0001:0010fe00       ?biDeleteChannel@@YAXPAU_TBIInputChannel@@@Z 00510e00 f   bInput:input.obj
 0001:0010fec0       ?biBindInput@@YAHPAU_TBIInputChannel@@HH@Z 00510ec0 f   bInput:input.obj
 0001:00110060       ?biBindMulti@@YAHPAU_TBIInputChannel@@HZZ 00511060 f   bInput:input.obj
 0001:001101b0       ?biResetChannel@@YAXPAU_TBIInputChannel@@@Z 005111b0 f   bInput:input.obj
 0001:001101d0       ?biResetMap@@YAXPAU_TBIChannelMap@@@Z 005111d0 f   bInput:input.obj
 0001:001101e0       ?biEnableMap@@YAXPAU_TBIChannelMap@@H@Z 005111e0 f   bInput:input.obj
 0001:00110250       ?biZeroMap@@YAXPAU_TBIChannelMap@@@Z 00511250 f   bInput:input.obj
 0001:001102a0       ?biForceDebounce@@YAXPAU_TBIInputChannel@@@Z 005112a0 f   bInput:input.obj
 0001:001102c0       ?biReadDevices@@YAHXZ      005112c0 f   bInput:input.obj
 0001:00110ba0       ?biGetChar@@YAHXZ          00511ba0 f   bInput:input.obj
 0001:00110bb0       ?biFlushKeyBuffer@@YAXXZ   00511bb0 f   bInput:input.obj
 0001:00110bc0       ?biStartRecording@@YAPAU_TBInputRecording@@H@Z 00511bc0 f   bInput:input.obj
 0001:00110d80       ?biRecordInputs@@YAPAU_TBInputRecording@@PAU1@PAX@Z 00511d80 f   bInput:input.obj
 0001:00110ef0       ?biStopRecording@@YAHPAU_TBInputRecording@@@Z 00511ef0 f   bInput:input.obj
 0001:00110f10       ?biStartPlayback@@YAXPAU_TBInputRecording@@@Z 00511f10 f   bInput:input.obj
 0001:00111000       ?biPlaybackInputs@@YAHPAU_TBInputRecording@@PAX@Z 00512000 f   bInput:input.obj
 0001:001110e0       ?biSetMapPhysicalPort@@YAXPAU_TBIChannelMap@@H@Z 005120e0 f   bInput:input.obj
 0001:00111140       ?biSetChannelPhysicalPort@@YAXPAU_TBIInputChannel@@H@Z 00512140 f   bInput:input.obj
 0001:001111e0       ?biSwapMapPhysicalPort@@YAXPAU_TBIChannelMap@@HH@Z 005121e0 f   bInput:input.obj
 0001:00111240       ?biSwapChannelPhysicalPort@@YAXPAU_TBIInputChannel@@HH@Z 00512240 f   bInput:input.obj
 0001:00111300       ?biAddRumbleEffect@@YAHHHHHHHHW4EBRumbleStyle@@@Z 00512300 f   bInput:input.obj
 0001:00111560       ?biAddRumbleBatchEffect@@YAXHHPAU_TBRumbleBatchEffect@@@Z 00512560 f   bInput:input.obj
 0001:001115e0       ?biPauseRumble@@YAHXZ      005125e0 f   bInput:input.obj
 0001:00111620       ?biResumeRumble@@YAHXZ     00512620 f   bInput:input.obj
 0001:00111640       ?biStopRumble@@YAXH@Z      00512640 f   bInput:input.obj
 0001:001116a0       ?bProcessRumble@@YAXXZ     005126a0 f   bInput:input.obj
 0001:00111b90       ?biSetAutoRepeat@@YAXPAU_TBIInputChannel@@HH@Z 00512b90 f   bInput:input.obj
 0001:00111bf0       ?biGameSaveStart@@YAXHPAXPADH@Z 00512bf0 f   bInput:gamesave.obj
 0001:00111c50       ?biGameSaveGetStatus@@YA?AW4EBGameSaveStatus@@PAU_TBGameSaveDirEntry@@HPAHPAU_TBGameSaveInfo@@@Z 00512c50 f   bInput:gamesave.obj
 0001:00111cc0       ?biGameSaveSetStatus@@YAXW4EBGameSaveResponse@@PADHPAU_TBGameSaveInfo@@@Z 00512cc0 f   bInput:gamesave.obj
 0001:00111e50       ?biGameSaveEnd@@YAXXZ      00512e50 f   bInput:gamesave.obj
 0001:00111e60       ?bGameSaveInit@@YAHXZ      00512e60 f   bInput:pcsave.obj
 0001:00111e70       ?bGameSaveCheckingMedia@@YAXPADPAU_TBGameSaveDirEntry@@HPAHPAU_TBGameSaveInfo@@@Z 00512e70 f   bInput:pcsave.obj
 0001:00112220       ?bGameSaveSave@@YAXPAXPADHPAU_TBGameSaveInfo@@H@Z 00513220 f   bInput:pcsave.obj
 0001:00112330       ?bGameSaveLoad@@YAXPAXPAD@Z 00513330 f   bInput:pcsave.obj
 0001:00112420       ?bGameSavePoll@@YAXPAXPAD1HPAU_TBGameSaveDirEntry@@HPAHPAU_TBGameSaveInfo@@H@Z 00513420 f   bInput:pcsave.obj
 0001:001124b0       ?bGameSaveReset@@YAXXZ     005134b0 f   bInput:pcsave.obj
 0001:001124c0       ?bgInitGui@@YAHXZ          005134c0 f   bGui:gui.obj
 0001:00112770       ?bgShutdownGui@@YAXXZ      00513770 f   bGui:gui.obj
 0001:001127d0       ?bGuiTextExtent@@YAHPAU_TBGuiFont@@PAD@Z 005137d0 f   bGui:gui.obj
 0001:00112860       ?bGuiDeltaRGB@@YAXHHHPAH00H@Z 00513860 f   bGui:gui.obj
 0001:00112900       ?bGuiCentreText@@YAXPAU_TBGuiFont@@HHHPAD@Z 00513900 f   bGui:gui.obj
 0001:00112950       ?bGuiRightText@@YAXPAU_TBGuiFont@@HHPAD@Z 00513950 f   bGui:gui.obj
 0001:00112990       ?bgEnterGui@@YAXP6AHPAU_TBGuiEventInfo@@@Z@Z 00513990 f   bGui:gui.obj
 0001:00112a30       ?bgExitGui@@YAXXZ          00513a30 f   bGui:gui.obj
 0001:00112a50       ?bgCreateMenu@@YAPAU_TBGuiElement@@I@Z 00513a50 f   bGui:gui.obj
 0001:00112b10       ?bgDeleteElement@@YAXPAU_TBGuiElement@@@Z 00513b10 f   bGui:gui.obj
 0001:00112bd0       ?bgSetMainMenu@@YAXPAU_TBGuiElement@@@Z 00513bd0 f   bGui:gui.obj
 0001:00112c00       ?bgAddMenuItem@@YAPAU_TBGuiMenuItem@@PAU_TBGuiElement@@PADH0I@Z 00513c00 f   bGui:gui.obj
 0001:00112cc0       ?bgPoll@@YAXXZ             00513cc0 f   bGui:gui.obj
 0001:001139d0       ?bgLoadElementFile@@YAXPAU_TBPackageIndex@@PAD@Z 005149d0 f   bGui:gui.obj
 0001:00113c60       ?bgFindElement@@YAPAU_TBGuiElement@@HH@Z 00514c60 f   bGui:gui.obj
 0001:00113cb0       ?bgCountMenuItems@@YAHPAU_TBGuiElement@@@Z 00514cb0 f   bGui:gui.obj
 0001:00113cc0       ?bgDeleteMenuItem@@YAXPAU_TBGuiElement@@PAU_TBGuiMenuItem@@@Z 00514cc0 f   bGui:gui.obj
 0001:00113d60       ?bgFindMenuItemByIndex@@YAPAU_TBGuiMenuItem@@PAU_TBGuiElement@@H@Z 00514d60 f   bGui:gui.obj
 0001:00113d90       ?bgFindMenuItemById@@YAPAU_TBGuiMenuItem@@PAU_TBGuiElement@@H@Z 00514d90 f   bGui:gui.obj
 0001:00113df0       ?bgSetMenuItem@@YAXPAU_TBGuiMenuItem@@PADHPAU_TBGuiElement@@II@Z 00514df0 f   bGui:gui.obj
 0001:00113e60       ?bgInsertMenuItem@@YAPAU_TBGuiMenuItem@@PAU_TBGuiElement@@PAU1@PADH0I@Z 00514e60 f   bGui:gui.obj
 0001:00114000       ?bgSetColour@@YAXW4EBGuiColourID@@HHH@Z 00515000 f   bGui:gui.obj
 0001:001140b0       ?bInitGuiHAL@@YAXXZ        005150b0 f   bGui:pcGui.obj
 0001:001142c0       ?bShutdownGuiHAL@@YAXXZ    005152c0 f   bGui:pcGui.obj
 0001:001142d0       ?bGuiLockScreen@@YAXXZ     005152d0 f   bGui:pcGui.obj
 0001:00114350       ?bGuiUnlockScreen@@YAXXZ   00515350 f   bGui:pcGui.obj
 0001:00114380       ?bGuiPrintIcon@@YAXW4EBGuiIcons@@HH@Z 00515380 f   bGui:pcGui.obj
 0001:00114720       ?bGuiPrintText@@YAXPAU_TBGuiFont@@HHPAD@Z 00515720 f   bGui:pcGui.obj
 0001:00114be0       ?bGuiFillRect@@YAXHHHHHHH@Z 00515be0 f   bGui:pcGui.obj
 0001:00114e40       ?bGuiDrawFrame@@YAXHHHHW4EBGuiFrameStyle@@HHH@Z 00515e40 f   bGui:pcGui.obj
 0001:001156e0       ?bGuiDrawHBar@@YAXHHHHHH@Z 005166e0 f   bGui:pcGui.obj
 0001:00115a90       ?bGuiDrawVBar@@YAXHHHHHH@Z 00516a90 f   bGui:pcGui.obj
 0001:00115dc0       ?bInitDisplay@@YAHXZ       00516dc0 f   bDisplay:pcDisplay.obj
 0001:00115ec0       ?bShutdownDisplay@@YAXXZ   00516ec0 f   bDisplay:pcDisplay.obj
 0001:00115f10       ?bdOpenDisplay@@YAHHHHHI@Z 00516f10 f   bDisplay:pcDisplay.obj
 0001:001161d0       ?bStartDisplay@@YAHXZ      005171d0 f   bDisplay:pcDisplay.obj
 0001:00117610       ?bStopDisplay@@YAHH@Z      00518610 f   bDisplay:pcDisplay.obj
 0001:001177c0       ?bdCloseDisplay@@YAXXZ     005187c0 f   bDisplay:pcDisplay.obj
 0001:00117810       ?bdGetDisplayInfo@@YAXPAH000@Z 00518810 f   bDisplay:pcDisplay.obj
 0001:00117860       ?bdFlip@@YAXHHHH@Z         00518860 f   bDisplay:pcDisplay.obj
 0001:00117b30       ?bdClear@@YAXHHHHMHI@Z     00518b30 f   bDisplay:pcDisplay.obj
 0001:00117bf0       ?bdBeginScene@@YAHXZ       00518bf0 f   bDisplay:pcDisplay.obj
 0001:00117c50       ?bdEndScene@@YAXXZ         00518c50 f   bDisplay:pcDisplay.obj
 0001:00117ca0       ?bdGetScanline@@YAHXZ      00518ca0 f   bDisplay:pcDisplay.obj
 0001:00117cf0       ?bLockSurface@@YAPAXPAUIDirect3DSurface8@@PAH1111@Z 00518cf0 f   bDisplay:pcDisplay.obj
 0001:00117e70       ?bUnlockSurface@@YAXPAUIDirect3DSurface8@@@Z 00518e70 f   bDisplay:pcDisplay.obj
 0001:00117ec0       ?bSaveSurfaceAsBMP@@YAHPAUIDirect3DSurface8@@PAD@Z 00518ec0 f   bDisplay:pcDisplay.obj
 0001:00118620       ?bdScreenshot@@YAHPAD@Z    00519620 f   bDisplay:pcDisplay.obj
 0001:001186e0       ?bGrabScreen@@YAPAEXZ      005196e0 f   bDisplay:pcDisplay.obj
 0001:00118a80       ?bdSetScreenOffset@@YAXHH@Z 00519a80 f   bDisplay:pcDisplay.obj
 0001:00118a90       ?bSetDefaultRenderStates@@YAXXZ 00519a90 f   bDisplay:pcRender.obj
 0001:00118e30       ?bdSetRenderState@@YAXIII@Z 00519e30 f   bDisplay:pcRender.obj
 0001:00119270       ?bdSetFogRange@@YAXMM@Z    0051a270 f   bDisplay:pcRender.obj
 0001:001192f0       ?bdSetFogColour@@YAXHHH@Z  0051a2f0 f   bDisplay:pcRender.obj
 0001:00119370       ?bSetGlobalAlpha@@YAXH@Z   0051a370 f   bDisplay:pcRender.obj
 0001:001193c0       ?bdCreateRenderTarget@@YAPAU_TBRenderTarget@@HHHHI@Z 0051a3c0 f   bDisplay:pcRender.obj
 0001:00119db0       ?bdDeleteRenderTarget@@YAXPAU_TBRenderTarget@@@Z 0051adb0 f   bDisplay:pcRender.obj
 0001:00119ef0       ?bdSetRenderTarget@@YAHPAU_TBRenderTarget@@HHHHMI@Z 0051aef0 f   bDisplay:pcRender.obj
 0001:0011a170       ?bdGetRenderTargetInfo@@YAXPAU_TBRenderTarget@@PAH111@Z 0051b170 f   bDisplay:pcRender.obj
 0001:0011a1c0       ?bdSetRenderTargetAsTexture@@YAHPAU_TBRenderTarget@@H@Z 0051b1c0 f   bDisplay:pcRender.obj
 0001:0011a2b0       ?bSuspendRenderTargets@@YAXXZ 0051b2b0 f   bDisplay:pcRender.obj
 0001:0011a3a0       ?bResumeRenderTargets@@YAXXZ 0051b3a0 f   bDisplay:pcRender.obj
 0001:0011a510       ?bdLockRenderState@@YAHH@Z 0051b510 f   bDisplay:pcRender.obj
 0001:0011a540       ?bdUnlockRenderState@@YAHH@Z 0051b540 f   bDisplay:pcRender.obj
 0001:0011a590       ?bdSetViewport@@YAXHHHH@Z  0051b590 f   bDisplay:pcViewport.obj
 0001:0011a760       ?bdSetClipRectangle@@YAXHHHH@Z 0051b760 f   bDisplay:pcViewport.obj
 0001:0011a9d0       ?bdSetViewPosition@@YAXMMM@Z 0051b9d0 f   bDisplay:pcViewport.obj
 0001:0011a9f0       ?bdSetViewOrientation@@YAXMMMW4EBViewportRotationOrder@@@Z 0051b9f0 f   bDisplay:pcViewport.obj
 0001:0011ab40       ?bdSetViewOrientationFromQuaternion@@YAXQAM@Z 0051bb40 f   bDisplay:pcViewport.obj
 0001:0011ab60       ?bdSetViewLookAt@@YAXQBM0M@Z 0051bb60 f   bDisplay:pcViewport.obj
 0001:0011acd0       ?bdSetViewLookPivot@@YAXQBMMMM@Z 0051bcd0 f   bDisplay:pcViewport.obj
 0001:0011ae00       ?bdSetViewIdentity@@YAXXZ  0051be00 f   bDisplay:pcViewport.obj
 0001:0011ae40       ?bdSetViewClipPlanes@@YAXMM@Z 0051be40 f   bDisplay:pcViewport.obj
 0001:0011aea0       ?bD3DMatMultiply@@YAXPAU_D3DMATRIX@@QAY03$$CBM1@Z 0051bea0 f   bDisplay:pcViewport.obj
 0001:0011b260       ?bD3DNativeMatMultiply@@YAXPAU_D3DMATRIX@@PBU1@1@Z 0051c260 f   bDisplay:pcViewport.obj
 0001:0011b620       ?bdSetupView@@YAXXZ        0051c620 f   bDisplay:pcViewport.obj
 0001:0011b790       ?bdSetObjectMatrix@@YAXQAY03$$CBM@Z 0051c790 f   bDisplay:pcViewport.obj
 0001:0011b7e0       ?bCalcOrthoProjectionMatrix@@YAXXZ 0051c7e0 f   bDisplay:pcViewport.obj
 0001:0011b8a0       ?bCalcPerspProjectionMatrix@@YAXXZ 0051c8a0 f   bDisplay:pcViewport.obj
 0001:0011b9c0       ?bdSetProjectionMode@@YAXI@Z 0051c9c0 f   bDisplay:pcViewport.obj
 0001:0011baa0       ?bdProjectClipVertices@@YAXQAMQBMHQAH2@Z 0051caa0 f   bDisplay:pcViewport.obj
 0001:0011bc90       ?bdProjectVertices@@YAXQAMQBMH@Z 0051cc90 f   bDisplay:pcViewport.obj
 0001:0011bd70       ?bdScreenToWorldPoint@@YAXMMQAM@Z 0051cd70 f   bDisplay:pcViewport.obj
 0001:0011be60       ?bdScreenToWorldPointOffset@@YAXMMMQAM@Z 0051ce60 f   bDisplay:pcViewport.obj
 0001:0011bf00       ?bdXFormWorldToView@@YAXQAMQBMH@Z 0051cf00 f   bDisplay:pcViewport.obj
 0001:0011bf50       ?bdSetFOV@@YAXMM@Z         0051cf50 f   bDisplay:pcViewport.obj
 0001:0011bfe0       ?bdTestBBVisibility@@YAHQAY03$$CBMMMMMMM@Z 0051cfe0 f   bDisplay:pcViewport.obj
 0001:0011c300       ?bdTestSphereVisibility@@YAHQAMM@Z 0051d300 f   bDisplay:pcViewport.obj
 0001:0011c410       ?bdWorldToScreenSizeXY@@YAMQBMMMQAM1@Z 0051d410 f   bDisplay:pcViewport.obj
 0001:0011c4f0       ?bdWorldToScreenSizeX@@YAMQBMMQAM@Z 0051d4f0 f   bDisplay:pcViewport.obj
 0001:0011c5c0       ?bdWorldToScreenSizeY@@YAMQBMMQAM@Z 0051d5c0 f   bDisplay:pcViewport.obj
 0001:0011c690       ?bdSetZBias@@YAXM@Z        0051d690 f   bDisplay:pcViewport.obj
 0001:0011c700       ?bdGetObjectMatrix@@YAXQAY03M@Z 0051d700 f   bDisplay:pcViewport.obj
 0001:0011c720       ?bdCalcVerticalFOV@@YAMMMM@Z 0051d720 f   bDisplay:pcViewport.obj
 0001:0011c7e0       ?bdSetIdentityObjectMatrix@@YAXXZ 0051d7e0 f   bDisplay:pcViewport.obj
 0001:0011c830       ?bPrimCount@@YAHIH@Z       0051d830 f   bDisplay:pcDrawprim.obj
 0001:0011c890       ?bGetVertexSize@@YAHH@Z    0051d890 f   bDisplay:pcDrawprim.obj
 0001:0011c9b0       ?bdDrawPrimitive@@YAXIPAU_TBPrimVertex@@H@Z 0051d9b0 f   bDisplay:pcDrawprim.obj
 0001:0011caf0       ?bdDrawPrimitive@@YAXIPAU_TBPrimVertex2D@@H@Z 0051daf0 f   bDisplay:pcDrawprim.obj
 0001:0011cc30       ?bdDrawPrimitive@@YAXIPAU_TBDualPrimVertex@@H@Z 0051dc30 f   bDisplay:pcDrawprim.obj
 0001:0011cd70       ?bdDrawPrimitive@@YAXIPAU_TBDualPrimVertex2D@@H@Z 0051dd70 f   bDisplay:pcDrawprim.obj
 0001:0011ceb0       ?bdDrawPrimitive@@YAXIPAU_TBTriPrimVertex@@H@Z 0051deb0 f   bDisplay:pcDrawprim.obj
 0001:0011cff0       ?bdDrawPrimitive@@YAXIPAU_TBTriPrimVertex2D@@H@Z 0051dff0 f   bDisplay:pcDrawprim.obj
 0001:0011d130       ?bdDrawPrimitive@@YAXIPAU_TBQuadPrimVertex@@H@Z 0051e130 f   bDisplay:pcDrawprim.obj
 0001:0011d270       ?bdDrawPrimitive@@YAXIPAU_TBQuadPrimVertex2D@@H@Z 0051e270 f   bDisplay:pcDrawprim.obj
 0001:0011d3b0       ?bdDrawPrimitive@@YAXIPAU_TBSpecularPrimVertex@@H@Z 0051e3b0 f   bDisplay:pcDrawprim.obj
 0001:0011d4f0       ?bdDrawPrimitive@@YAXIPAU_TBSpecularPrimVertex2D@@H@Z 0051e4f0 f   bDisplay:pcDrawprim.obj
 0001:0011d630       ?bdDrawPrimitive@@YAXIPAU_TBSpecularDualPrimVertex@@H@Z 0051e630 f   bDisplay:pcDrawprim.obj
 0001:0011d770       ?bdDrawPrimitive@@YAXIPAU_TBSpecularDualPrimVertex2D@@H@Z 0051e770 f   bDisplay:pcDrawprim.obj
 0001:0011d8b0       ?bdDrawPrimitive@@YAXIPAU_TBSpecularTriPrimVertex@@H@Z 0051e8b0 f   bDisplay:pcDrawprim.obj
 0001:0011d9f0       ?bdDrawPrimitive@@YAXIPAU_TBSpecularTriPrimVertex2D@@H@Z 0051e9f0 f   bDisplay:pcDrawprim.obj
 0001:0011db30       ?bdDrawPrimitive@@YAXIPAU_TBSpecularQuadPrimVertex@@H@Z 0051eb30 f   bDisplay:pcDrawprim.obj
 0001:0011dc70       ?bdDrawPrimitive@@YAXIPAU_TBSpecularQuadPrimVertex2D@@H@Z 0051ec70 f   bDisplay:pcDrawprim.obj
 0001:0011ddb0       ?bdDrawPrimitive@@YAXIPAXHI@Z 0051edb0 f   bDisplay:pcDrawprim.obj
 0001:0011ded0       ?bdDrawPrimitiveVB@@YAXIPAU_TBVertexBuffer@@HH@Z 0051eed0 f   bDisplay:pcDrawprim.obj
 0001:0011dfc0       ?bdVertexBufferCreate@@YAHPAPAU_TBVertexBuffer@@HIIH@Z 0051efc0 f   bDisplay:pcDrawprim.obj
 0001:0011e1e0       ?bdVertexBufferDestroy@@YAXPAU_TBVertexBuffer@@@Z 0051f1e0 f   bDisplay:pcDrawprim.obj
 0001:0011e270       ?bdVertexBufferLock@@YAPAXPAU_TBVertexBuffer@@I@Z 0051f270 f   bDisplay:pcDrawprim.obj
 0001:0011e320       ?bdVertexBufferUnlock@@YAXPAU_TBVertexBuffer@@@Z 0051f320 f   bDisplay:pcDrawprim.obj
 0001:0011e350       ?bdVertexBufferGetSize@@YAHPAU_TBVertexBuffer@@@Z 0051f350 f   bDisplay:pcDrawprim.obj
 0001:0011e360       ?bSuspendVertexBuffers@@YAXXZ 0051f360 f   bDisplay:pcDrawprim.obj
 0001:0011e4b0       ?bResumeVertexBuffers@@YAXXZ 0051f4b0 f   bDisplay:pcDrawprim.obj
 0001:0011e5f0       ?bdDrawFlatSprite@@YAHQAMMMMPAU_TBTexture@@HHHHHHPAU_TBPrimVertex2D@@M@Z 0051f5f0 f   bDisplay:pcDrawprim.obj
 0001:0011e670       ?bdDrawGouraudSprite@@YAHQAMMMMPAU_TBTexture@@HHPAHPAU_TBPrimVertex2D@@M@Z 0051f670 f   bDisplay:pcDrawprim.obj
 0001:0011e6e0       ?bdDrawFixedFlatSprite@@YAHQAMMMMPAU_TBTexture@@HHHHHHPAU_TBPrimVertex2D@@M@Z 0051f6e0 f   bDisplay:pcDrawprim.obj
 0001:0011ede0       ?bdDrawFixedGouraudSprite@@YAHQAMMMMPAU_TBTexture@@HHPAHPAU_TBPrimVertex2D@@M@Z 0051fde0 f   bDisplay:pcDrawprim.obj
 0001:0011f500       ?bdDrawStreak@@YAHQAMMMPAH0MM1PAU_TBTexture@@PAU_TBPrimVertex2D@@M@Z 00520500 f   bDisplay:pcDrawprim.obj
 0001:0011f5a0       ?bdDrawFixedStreak@@YAHQAMMMPAH0MM1PAU_TBTexture@@PAU_TBPrimVertex2D@@M@Z 005205a0 f   bDisplay:pcDrawprim.obj
 0001:0011fd50       ?bdDrawMultiStreak@@YAHHQAMPAM1PAHPAU_TBPrimVertex2D@@M@Z 00520d50 f   bDisplay:pcDrawprim.obj
 0001:0011fdf0       ?bdDrawFixedMultiStreak@@YAHHQAMPAMPAHPAU_TBPrimVertex2D@@M@Z 00520df0 f   bDisplay:pcDrawprim.obj
 0001:00120670       ?bSetVertexShader@@YAXHPAU_TBVertexBuffer@@@Z 00521670 f   bDisplay:pcDrawprim.obj
 0001:00120840       ?bdGetPolyCount@@YAHXZ     00521840 f   bDisplay:pcDrawprim.obj
 0001:00120850       ?bdDrawStreakClipped@@YAHQAMMMPAH0MM1PAU_TBTexture@@PAU_TBPrimVertex2D@@M@Z 00521850 f   bDisplay:pcDrawprim.obj
 0001:00120c40       ?bdDrawMultiStreakClipped@@YAHHQAMPAM1PAHPAU_TBPrimVertex2D@@M@Z 00521c40 f   bDisplay:pcDrawprim.obj
 0001:00121760       ?bdIndexBufferCreate@@YAHPAPAU_TBIndexBuffer@@HI@Z 00522760 f   bDisplay:pcDrawprim.obj
 0001:001218a0       ?bdIndexBufferDestroy@@YAXPAU_TBIndexBuffer@@@Z 005228a0 f   bDisplay:pcDrawprim.obj
 0001:00121930       ?bdIndexBufferLock@@YAPAXPAU_TBIndexBuffer@@I@Z 00522930 f   bDisplay:pcDrawprim.obj
 0001:001219f0       ?bdIndexBufferUnlock@@YAXPAU_TBIndexBuffer@@@Z 005229f0 f   bDisplay:pcDrawprim.obj
 0001:00121a20       ?bdIndexBufferGetSize@@YAHPAU_TBIndexBuffer@@@Z 00522a20 f   bDisplay:pcDrawprim.obj
 0001:00121a30       ?bSuspendIndexBuffers@@YAXXZ 00522a30 f   bDisplay:pcDrawprim.obj
 0001:00121b80       ?bResumeIndexBuffers@@YAXXZ 00522b80 f   bDisplay:pcDrawprim.obj
 0001:00121d00       ?bdDrawPointSpriteVB@@YAXPAU_TBVertexBuffer@@HHM@Z 00522d00 f   bDisplay:pcDrawprim.obj
 0001:00121df0       ?bdSetIndexBuffer@@YAXPAU_TBIndexBuffer@@H@Z 00522df0 f   bDisplay:pcDrawprim.obj
 0001:00121e50       ?bdSetVertexBuffer@@YAXPAU_TBVertexBuffer@@@Z 00522e50 f   bDisplay:pcDrawprim.obj
 0001:00121e90       ?bTextureInit@@YAHXZ       00522e90 f   bDisplay:pcTexture.obj
 0001:00121ea0       ?bTextureShutdown@@YAXXZ   00522ea0 f   bDisplay:pcTexture.obj
 0001:00121ed0       ?bLockTexture@@YAPAXPAUIDirect3DTexture8@@HPAH@Z 00522ed0 f   bDisplay:pcTexture.obj
 0001:00121f60       ?bUnlockTexture@@YAXPAUIDirect3DTexture8@@H@Z 00522f60 f   bDisplay:pcTexture.obj
 0001:00121f90       ?bdSetTexture@@YAHHPAU_TBTexture@@@Z 00522f90 f   bDisplay:pcTexture.obj
 0001:00122240       ?bGetTextureSurface@@YAPAUIDirect3DSurface8@@PAUIDirect3DTexture8@@H@Z 00523240 f   bDisplay:pcTexture.obj
 0001:00122290       ?bMakeTextureSurface@@YAHPAU_TBTexture@@HHHHH@Z 00523290 f   bDisplay:pcTexture.obj
 0001:001223c0       ?bLoadTextureByCRC@@YAPAU_TBTexture@@PAU_TBPackageIndex@@I@Z 005233c0 f   bDisplay:pcTexture.obj
 0001:00122c10       ?bDeleteTexture@@YAXPAU_TBTexture@@@Z 00523c10 f   bDisplay:pcTexture.obj
 0001:00122d40       ?bdLockTexture@@YAPAXPAU_TBTexture@@HPAH11PAW4EBTextureFormat@@PAPAE@Z 00523d40 f   bDisplay:pcTexture.obj
 0001:00122e20       ?bdUnlockTexture@@YAXPAU_TBTexture@@HI@Z 00523e20 f   bDisplay:pcTexture.obj
 0001:00122eb0       ?bdSetTextureFrame@@YAXPAU_TBTexture@@H@Z 00523eb0 f   bDisplay:pcTexture.obj
 0001:00122f20       ?bResumeTextures@@YAXXZ    00523f20 f   bDisplay:pcTexture.obj
 0001:00123230       ?bSuspendTextures@@YAXXZ   00524230 f   bDisplay:pcTexture.obj
 0001:001236a0       ?bdCreateTexture@@YAPAU_TBTexture@@HHHHH@Z 005246a0 f   bDisplay:pcTexture.obj
 0001:001238e0       ?bdGetTextureInfo@@YAXPAU_TBTexture@@PAH1PAW4EBTextureFormat@@11@Z 005248e0 f   bDisplay:pcTexture.obj
 0001:00123950       ?bdSetTextureFrameByTime@@YAXPAU_TBTexture@@H@Z 00524950 f   bDisplay:pcTexture.obj
 0001:00123a00       ?bdSetTextureCallback@@YAXPAU_TBTexture@@W4EBTextureCallback@@P6AH0HPAX@Z2@Z 00524a00 f   bDisplay:pcTexture.obj
 0001:00123a40       ?bPrintFontVerts@@YAHPAU_TBPrimVertex@@PAU_TBFontLineInfo@@PAU_TBFont@@PAGHPAU_TBFontFormatting@@HHHHP6AHW4EBFontCallbackReason@@PAU_TBFontCallbackInfo@@@ZPAX@Z 00524a40 f   bDisplay:font.obj
 0001:00124ca0       ?bdFontExtent@@YAXPAU_TBFont@@PAGHPAM2@Z 00525ca0 f   bDisplay:font.obj
 0001:00124d40       ?bInitFont@@YAXXZ          00525d40 f   bDisplay:pcFont.obj
 0001:00124d70       ?bShutdownFont@@YAXXZ      00525d70 f   bDisplay:pcFont.obj
 0001:00124da0       ?bLoadFontByCRC@@YAPAU_TBFont@@PAU_TBPackageIndex@@I@Z 00525da0 f   bDisplay:pcFont.obj
 0001:00125100       ?bDeleteFont@@YAXPAU_TBFont@@@Z 00526100 f   bDisplay:pcFont.obj
 0001:00125130       ?bdPrintFont@@YAXPAU_TBFont@@PAGHPAU_TBFontFormatting@@HHHHP6AHW4EBFontCallbackReason@@PAU_TBFontCallbackInfo@@@ZPAX@Z 00526130 f   bDisplay:pcFont.obj
 0001:00125180       ?bdPrintFontLite@@YAXPAU_TBFont@@PAGHMMHHHHP6AHW4EBFontCallbackReason@@PAU_TBFontCallbackInfo@@@ZPAX@Z 00526180 f   bDisplay:pcFont.obj
 0001:001251d0       ?bdFontFormattedRect@@YAHPAMPAU_TBFont@@PAGHPAU_TBFontFormatting@@P6AHW4EBFontCallbackReason@@PAU_TBFontCallbackInfo@@@ZPAX@Z 005261d0 f   bDisplay:pcFont.obj
 0001:001253e0       ?bPrintFont@@YAXPAU_TBVertexBuffer@@PAU_TBFont@@PAGHPAU_TBFontFormatting@@HHHHP6AHW4EBFontCallbackReason@@PAU_TBFontCallbackInfo@@@ZPAX@Z 005263e0 f   bDisplay:pcFont.obj
 0001:001255b0       ?bPrintFontLite@@YAXPAU_TBVertexBuffer@@PAU_TBFont@@PAGHMMHHHHP6AHW4EBFontCallbackReason@@PAU_TBFontCallbackInfo@@@ZPAX@Z 005265b0 f   bDisplay:pcFont.obj
 0001:00125930       ?bShowFont@@YAXPAU_TBFont@@MMMM@Z 00526930 f   bDisplay:pcFont.obj
 0001:00125b60       ?bdGetRenderState@@YAIIPAI@Z 00526b60 f   bDisplay:render.obj
 0001:00125b90       ?bdPushRenderState@@YAXIII@Z 00526b90 f   bDisplay:render.obj
 0001:00125c30       ?bdPopRenderState@@YAXI@Z  00526c30 f   bDisplay:render.obj
 0001:00125cc0       ?bdSaveRenderStates@@YAXPAU_TBSavedRenderStates@@@Z 00526cc0 f   bDisplay:render.obj
 0001:00125ce0       ?bdRestoreRenderStates@@YAXPAU_TBSavedRenderStates@@@Z 00526ce0 f   bDisplay:render.obj
 0001:00125d80       ?bdFixSplashCRC@@YAII@Z    00526d80 f   bDisplay:pcSplash.obj
 0001:00125e30       ?bLoadSplashByCRC@@YAPAU_TBSplash@@PAU_TBPackageIndex@@I@Z 00526e30 f   bDisplay:pcSplash.obj
 0001:00125e80       ?bDeleteSplash@@YAXPAU_TBSplash@@@Z 00526e80 f   bDisplay:pcSplash.obj
 0001:00125eb0       ?bdDrawSplash@@YAXPAU_TBSplash@@HH@Z 00526eb0 f   bDisplay:pcSplash.obj
 0001:00126000       ?bDXFormatToString@@YAPADW4_D3DFORMAT@@@Z 00527000 f   bDisplay:pcDxdebug.obj
 0001:00126050       ?bInitActor@@YAHXZ         00527050 f   bActor:actor.obj
 0001:001260c0       ?bShutdownActor@@YAXXZ     005270c0 f   bActor:actor.obj
 0001:001260f0       ?bInitActorInstance@@YAPAU_TBActorInstance@@PAU1@PAU_TBActor@@HPADH@Z 005270f0 f   bActor:actor.obj
 0001:00126600       ?baFreeActorInstance@@YAXPAU_TBActorInstance@@@Z 00527600 f   bActor:actor.obj
 0001:00126680       ?bLoadActorByCRC@@YAPAU_TBActor@@PAU_TBPackageIndex@@I@Z 00527680 f   bActor:actor.obj
 0001:00126a50       ?baPrepActorInstance@@YAXPAU_TBActorInstance@@H@Z 00527a50 f   bActor:actor.obj
 0001:00126c20       ?baDrawActorInstance@@YAHPAU_TBActorInstance@@H@Z 00527c20 f   bActor:actor.obj
 0001:00126ce0       ?bDeleteActor@@YAXPAU_TBActor@@@Z 00527ce0 f   bActor:actor.obj
 0001:00126dd0       ?baSetNodeFrame@@YAXPAU_TBActorInstance@@PAU_TBActorNodeInstance@@IH@Z 00527dd0 f   bActor:actor.obj
 0001:00126f60       ?baSetNodeBlend@@YAXPAU_TBActorInstance@@PAU_TBActorNodeInstance@@IIMH@Z 00527f60 f   bActor:actor.obj
 0001:001271d0       ?baSetNodeBlendTarget@@YAXPAU_TBActorInstance@@PAU_TBActorNodeInstance@@IH@Z 005281d0 f   bActor:actor.obj
 0001:00127360       ?baSetNodeBlendValue@@YAXPAU_TBActorInstance@@PAU_TBActorNodeInstance@@MH@Z 00528360 f   bActor:actor.obj
 0001:001275a0       ?baSetNodeBlendTargetValue@@YAXPAU_TBActorInstance@@PAU_TBActorNodeInstance@@IMH@Z 005285a0 f   bActor:actor.obj
 0001:001278a0       ?baUpdateNodes@@YAHPAU_TBActorInstance@@PAU_TBActorNodeInstance@@MQAM@Z 005288a0 f   bActor:actor.obj
 0001:0012a000       ?baFlushNodeQueue@@YAXPAU_TBActorInstance@@PAU_TBActorNodeInstance@@HH@Z 0052b000 f   bActor:actor.obj
 0001:0012a2e0       ?baQueueNodeAnim@@YAXPAU_TBActorInstance@@PAU_TBActorNodeInstance@@EPAU_TBActorAnimSegment@@2HHHHMIP6AHW4EBQueueCallbackReason@@012PAX@Z4@Z 0052b2e0 f   bActor:actor.obj
 0001:0012a890       ?baQueueNodeAnimNormal@@YAXPAU_TBActorInstance@@PAU_TBActorNodeInstance@@PAU_TBActorAnimSegment@@HHIP6AHW4EBQueueCallbackReason@@012PAX@Z4@Z 0052b890 f   bActor:actor.obj
 0001:0012a940       ?baQueueNodeAnimBlend@@YAXPAU_TBActorInstance@@PAU_TBActorNodeInstance@@PAU_TBActorAnimSegment@@2HHHHMIP6AHW4EBQueueCallbackReason@@012PAX@Z4@Z 0052b940 f   bActor:actor.obj
 0001:0012aa00       ?baQueueNodeAnimBlendNormalised@@YAXPAU_TBActorInstance@@PAU_TBActorNodeInstance@@PAU_TBActorAnimSegment@@2HHHIP6AHW4EBQueueCallbackReason@@012PAX@Z4@Z 0052ba00 f   bActor:actor.obj
 0001:0012ac40       ?baQueueNodeAnimBlendState@@YAXPAU_TBActorInstance@@PAU_TBActorNodeInstance@@PAU_TBActorAnimSegment@@HHMIP6AHW4EBQueueCallbackReason@@012PAX@Z4@Z 0052bc40 f   bActor:actor.obj
 0001:0012ad00       ?baQueueNodeAnimBlendToNode@@YAXPAU_TBActorInstance@@PAU_TBActorNodeInstance@@1MIP6AHW4EBQueueCallbackReason@@01PAU_TBActorAnimSegment@@PAX@Z4@Z 0052bd00 f   bActor:actor.obj
 0001:0012af00       ?baRetargetActorAnimation@@YAXPAU_TBActor@@PAU_TBActorInstance@@@Z 0052bf00 f   bActor:actor.obj
 0001:0012b010       ?baFindNodeByCRC@@YAPAU_TBActorNodeInstance@@PAU1@I@Z 0052c010 f   bActor:actor.obj
 0001:0012b0a0       ?baFindNode@@YAPAU_TBActorNodeInstance@@PAU1@PAD@Z 0052c0a0 f   bActor:actor.obj
 0001:0012b0d0       ?baHideNode@@YAXPAU_TBActorNodeInstance@@H@Z 0052c0d0 f   bActor:actor.obj
 0001:0012b150       ?baShowNode@@YAXPAU_TBActorNodeInstance@@H@Z 0052c150 f   bActor:actor.obj
 0001:0012b1d0       ?baFindAnimSegmentByCRC@@YAPAU_TBActorAnimSegment@@PAU_TBActorInstance@@I@Z 0052c1d0 f   bActor:actor.obj
 0001:0012b230       ?baFindAnimSegment@@YAPAU_TBActorAnimSegment@@PAU_TBActorInstance@@PAD@Z 0052c230 f   bActor:actor.obj
 0001:0012b260       ?baSetActorRenderMode@@YAXPAU_TBActorInstance@@HW4EBActRenderMode@@PAX@Z 0052c260 f   bActor:actor.obj
 0001:0012b290       ?baGetNodesWorldPosition@@YAXPAU_TBActorInstance@@PAU_TBActorNodeInstance@@QAM@Z 0052c290 f   bActor:actor.obj
 0001:0012b310       ?baGetNodesLocalPosition@@YAXPAU_TBActorInstance@@PAU_TBActorNodeInstance@@QAM@Z 0052c310 f   bActor:actor.obj
 0001:0012b360       ?baNodeLookAt@@YAXPAU_TBActorInstance@@PAU_TBActorNodeInstance@@QAMMMMMMMMI@Z 0052c360 f   bActor:actor.obj
 0001:0012ba50       ?baNodeLookAtUnconstrained@@YAXPAU_TBActorInstance@@PAU_TBActorNodeInstance@@QAM2MMI@Z 0052ca50 f   bActor:actor.obj
 0001:0012bca0       ?baNodeLookAtAdditional@@YAXPAU_TBActorInstance@@PAU_TBActorNodeInstance@@QAMMMMMMI@Z 0052cca0 f   bActor:actor.obj
 0001:0012c090       ?baNodeLookAtAdditionalUnconstrained@@YAXPAU_TBActorInstance@@PAU_TBActorNodeInstance@@QAMMI@Z 0052d090 f   bActor:actor.obj
 0001:0012c420       ?baSetGlobalAlpha@@YAXH@Z  0052d420 f   bActor:actor.obj
 0001:0012c440       ?baMatchNodeAnim@@YAXPAU_TBActorNodeInstance@@0H@Z 0052d440 f   bActor:actor.obj
 0001:0012c540       ?baSetAnimSpeed@@YAXPAU_TBActorNodeInstance@@HHHMMI@Z 0052d540 f   bActor:actor.obj
 0001:0012c6d0       ?baGetActorNodeGeometry@@YAPAXPAU_TBActorNode@@HPAH1@Z 0052d6d0 f   bActor:actor.obj
 0001:0012c770       ?baGetActorGeometry@@YAPAXPAU_TBActorInstance@@PAU_TBActorNodeInstance@@HPAH22PAXI@Z 0052d770 f   bActor:actor.obj
 0001:0012d7d0       ?baSetActorNodeFlags@@YAXPAU_TBActorInstance@@PAU_TBActorNodeInstance@@IIH@Z 0052e7d0 f   bActor:actor.obj
 0001:0012d8a0       ?baIsActorAnimPlaying@@YAHPAU_TBActorInstance@@PAU_TBActorNodeInstance@@HPAPAU_TBActorAnimSegment@@@Z 0052e8a0 f   bActor:actor.obj
 0001:0012d9f0       ?baCopyAnimQueue@@YAXPAU_TBActorInstance@@PAU_TBActorNodeInstance@@01H@Z 0052e9f0 f   bActor:actor.obj
 0001:0012db60       ?baSetAdditionalNodeOrientation@@YAXQAU_TBActorNodeInstance@@QBM@Z 0052eb60 f   bActor:actor.obj
 0001:0012dc10       ?baDrawActorBoundingBox@@YAXPAU_TBActorInstance@@HHHH@Z 0052ec10 f   bActor:actor.obj
 0001:0012e440       ?baSetAnimQueueCallback@@YAXPAU_TBActorInstance@@PAU_TBActorNodeInstance@@P6AHW4EBQueueCallbackReason@@01PAU_TBActorAnimSegment@@PAX@Z4IH@Z 0052f440 f   bActor:actor.obj
 0001:0012e5f0       ?bInitExtras@@YAHXZ        0052f5f0 f   bActor:extras.obj
 0001:0012e610       ?bShutdownExtras@@YAXXZ    0052f610 f   bActor:extras.obj
 0001:0012e630       ?baCreateExtraSystem@@YAPAU_TBExtraSystem@@PADP6AXPAU1@PAE0@ZP6AX1HPAPAEM@ZP6AH12@ZP6AX1H4PAX@ZP6AX1H@ZHHIH@Z 0052f630 f   bActor:extras.obj
 0001:0012e840       ?baDeleteExtraSystem@@YAXPAU_TBExtraSystem@@@Z 0052f840 f   bActor:extras.obj
 0001:0012e8d0       ?baFindExtraSystem@@YAPAU_TBExtraSystem@@PAD@Z 0052f8d0 f   bActor:extras.obj
 0001:0012e940       ?baCreateExtra@@YAPAEPAU_TBExtraSystem@@ZZ 0052f940 f   bActor:extras.obj
 0001:0012eae0       ?baCloneExtra@@YAPAEPAU_TBExtraSystem@@PAX@Z 0052fae0 f   bActor:extras.obj
 0001:0012ec90       ?baResetExtraSystem@@YAXPAU_TBExtraSystem@@@Z 0052fc90 f   bActor:extras.obj
 0001:0012ee80       ?baSetExtraSystemPosition@@YAXPAU_TBExtraSystem@@MMM@Z 0052fe80 f   bActor:extras.obj
 0001:0012eeb0       ?baSetExtraSystemOrientation@@YAXPAU_TBExtraSystem@@QAM@Z 0052feb0 f   bActor:extras.obj
 0001:0012ef10       ?baSetExtraSystemAttachment@@YAXPAU_TBExtraSystem@@PAU_TBActorInstance@@PAU_TBActorNodeInstance@@@Z 0052ff10 f   bActor:extras.obj
 0001:0012ef30       ?baUpdateExtraSystem@@YAXPAU_TBExtraSystem@@M@Z 0052ff30 f   bActor:extras.obj
 0001:0012efe0       ?baRenderExtraSystem@@YAXPAU_TBExtraSystem@@PAX@Z 0052ffe0 f   bActor:extras.obj
 0001:0012f090       ?baDeleteExtraInstance@@YAHPAU_TBExtraSystem@@H@Z 00530090 f   bActor:extras.obj
 0001:0012f170       ?baSetExtraSystemLimit@@YAPAU_TBExtraSystem@@PAU1@H@Z 00530170 f   bActor:extras.obj
 0001:0012f220       ?bInitLights@@YAHXZ        00530220 f   bActor:lights.obj
 0001:0012f270       ?bShutdownLights@@YAXXZ    00530270 f   bActor:lights.obj
 0001:0012f290       ?baCreateLight@@YAPAU_TBLightsource@@PAU1@I@Z 00530290 f   bActor:lights.obj
 0001:0012f340       ?baDeleteLight@@YAXPAU_TBLightsource@@@Z 00530340 f   bActor:lights.obj
 0001:0012f3a0       ?baSetDirectionalLight@@YAXPAU_TBLightsource@@QAM@Z 005303a0 f   bActor:lights.obj
 0001:0012f430       ?baSetPointLight@@YAXPAU_TBLightsource@@QAMM@Z 00530430 f   bActor:lights.obj
 0001:0012f4a0       ?baSetSpotLight@@YAXPAU_TBLightsource@@QAM1MM@Z 005304a0 f   bActor:lights.obj
 0001:0012f5b0       ?baEnableLight@@YAXPAU_TBLightsource@@H@Z 005305b0 f   bActor:lights.obj
 0001:0012f6d0       ?baSetAmbientLight@@YAXHHH@Z 005306d0 f   bActor:lights.obj
 0001:0012f700       ?baSetLightColour@@YAXPAU_TBLightsource@@HHH@Z 00530700 f   bActor:lights.obj
 0001:0012f740       ?baSetLightFlags@@YAXPAU_TBLightsource@@II@Z 00530740 f   bActor:lights.obj
 0001:0012f770       ?baEvaluateLightAtPoint@@YAXQBM0QAH@Z 00530770 f   bActor:lights.obj
 0001:0012fb50       ?bInitSet@@YAHXZ           00530b50 f   bActor:set.obj
 0001:0012fb70       ?bShutdownSet@@YAXXZ       00530b70 f   bActor:set.obj
 0001:0012fb90       ?bLoadSetByCRC@@YAPAU_TBSet@@PAU_TBPackageIndex@@I@Z 00530b90 f   bActor:set.obj
 0001:0012fc00       ?bDeleteSet@@YAXPAU_TBSet@@@Z 00530c00 f   bActor:set.obj
 0001:0012fc50       ?baDrawSet@@YAXPAU_TBSet@@H@Z 00530c50 f   bActor:set.obj
 0001:0012fc80       ?ActivateFragment@CBShaderFragment_CartoonShade@@UAEXQBU_TBShaderContext@@@Z 00530c80 f   bActor:pcxbShaderSelector.obj
 0001:0012fdd0       ?RegisterData@CBShaderFragment_CartoonShade@@UAEXQBU_TBShaderContext@@@Z 00530dd0 f   bActor:pcxbShaderSelector.obj
 0001:0012fee0       ?DeactivateFragment@CBShaderFragment_CartoonShade@@UAEXQBU_TBShaderContext@@@Z 00530ee0 f   bActor:pcxbShaderSelector.obj
 0001:0012ffb0       ?ActivateFragment@CBShaderFragment_Outline@@UAEXQBU_TBShaderContext@@@Z 00530fb0 f   bActor:pcxbShaderSelector.obj
 0001:0012fff0       ?RegisterData@CBShaderFragment_Outline@@UAEXQBU_TBShaderContext@@@Z 00530ff0 f   bActor:pcxbShaderSelector.obj
 0001:00130100       ?DeactivateFragment@CBShaderFragment_Outline@@UAEXQBU_TBShaderContext@@@Z 00531100 f   bActor:pcxbShaderSelector.obj
 0001:00130140       ?ActivateFragment@CBShaderFragment_Shell@@UAEXQBU_TBShaderContext@@@Z 00531140 f   bActor:pcxbShaderSelector.obj
 0001:00130180       ?DeactivateFragment@CBShaderFragment_Shell@@UAEXQBU_TBShaderContext@@@Z 00531180 f   bActor:pcxbShaderSelector.obj
 0001:001301c0       ?RegisterData@CBShaderFragment_Shell@@UAEXQBU_TBShaderContext@@@Z 005311c0 f   bActor:pcxbShaderSelector.obj
 0001:00130350       ?ActivateFragment@CBShaderFragment_Shadow@@UAEXQBU_TBShaderContext@@@Z 00531350 f   bActor:pcxbShaderSelector.obj
 0001:001303d0       ?DeactivateFragment@CBShaderFragment_Shadow@@UAEXQBU_TBShaderContext@@@Z 005313d0 f   bActor:pcxbShaderSelector.obj
 0001:00130430       ?RegisterData@CBShaderFragment_Shadow@@UAEXQBU_TBShaderContext@@@Z 00531430 f   bActor:pcxbShaderSelector.obj
 0001:001304e0       ?ActivateFragment@CBShaderFragment_ZOnly@@UAEXQBU_TBShaderContext@@@Z 005314e0 f   bActor:pcxbShaderSelector.obj
 0001:00130500       ?RegisterData@CBShaderFragment_ZOnly@@UAEXQBU_TBShaderContext@@@Z 00531500 f   bActor:pcxbShaderSelector.obj
 0001:00130580       ?ActivateFragment@CBShaderFragment_SphereMap@@UAEXQBU_TBShaderContext@@@Z 00531580 f   bActor:pcxbShaderSelector.obj
 0001:00130600       ?RegisterData@CBShaderFragment_SphereMap@@UAEXQBU_TBShaderContext@@@Z 00531600 f   bActor:pcxbShaderSelector.obj
 0001:001306c0       ?DeactivateFragment@CBShaderFragment_SphereMap@@UAEXQBU_TBShaderContext@@@Z 005316c0 f   bActor:pcxbShaderSelector.obj
 0001:00130710       ?ActivateFragment@CBShaderFragment_AmbientLight@@UAEXQBU_TBShaderContext@@@Z 00531710 f   bActor:pcxbShaderSelector.obj
 0001:00130730       ?RegisterData@CBShaderFragment_AmbientLight@@UAEXQBU_TBShaderContext@@@Z 00531730 f   bActor:pcxbShaderSelector.obj
 0001:001307c0       ?ActivateFragment@CBShaderFragment_DirectionalLight@@UAEXQBU_TBShaderContext@@@Z 005317c0 f   bActor:pcxbShaderSelector.obj
 0001:001307e0       ?RegisterData@CBShaderFragment_DirectionalLight@@UAEXQBU_TBShaderContext@@@Z 005317e0 f   bActor:pcxbShaderSelector.obj
 0001:00130970       ?ActivateFragment@CBShaderFragment_PointLight@@UAEXQBU_TBShaderContext@@@Z 00531970 f   bActor:pcxbShaderSelector.obj
 0001:00130990       ?RegisterData@CBShaderFragment_PointLight@@UAEXQBU_TBShaderContext@@@Z 00531990 f   bActor:pcxbShaderSelector.obj
 0001:00130b20       ?ActivateFragment@CBShaderFragment_SpotLight@@UAEXQBU_TBShaderContext@@@Z 00531b20 f   bActor:pcxbShaderSelector.obj
 0001:00130b40       ?RegisterData@CBShaderFragment_SpotLight@@UAEXQBU_TBShaderContext@@@Z 00531b40 f   bActor:pcxbShaderSelector.obj
 0001:00130d30       ?ActivateFragment@CBShaderFragment_Fog@@UAEXQBU_TBShaderContext@@@Z 00531d30 f   bActor:pcxbShaderSelector.obj
 0001:00130d50       ?RegisterData@CBShaderFragment_Fog@@UAEXQBU_TBShaderContext@@@Z 00531d50 f   bActor:pcxbShaderSelector.obj
 0001:00130e20       ?ActivateFragment@CBShaderFragment_OutColour@@UAEXQBU_TBShaderContext@@@Z 00531e20 f   bActor:pcxbShaderSelector.obj
 0001:00130e40       ?RegisterData@CBShaderFragment_OutColour@@UAEXQBU_TBShaderContext@@@Z 00531e40 f   bActor:pcxbShaderSelector.obj
 0001:00130ec0       ?bInitShaderSelector@@YAXXZ 00531ec0 f   bActor:pcxbShaderSelector.obj
 0001:00131980       ?bShutdownShaderSelector@@YAXXZ 00532980 f   bActor:pcxbShaderSelector.obj
 0001:001319e0       ?AppendFragment@_TBShaderFragmentList@@QAEIQBU_TBShaderActorDesc@@QAVCBShaderFragment@@@Z 005329e0 f   bActor:pcxbShaderSelector.obj
 0001:00131ab0       ??0CBShaderFragment@@QAE@IIQBD@Z 00532ab0 f   bActor:pcxbShaderSelector.obj
 0001:00131b40       ?AppendFragment@CBShaderFragment@@QAAIQAU_TBShaderActorDesc@@QADZZ 00532b40 f   bActor:pcxbShaderSelector.obj
 0001:00131cb0       ?baShaderSelect@@YAHQAU_TBActorInstance@@HPAU_TBMesh@@@Z 00532cb0 f   bActor:pcxbShaderSelector.obj
 0001:00132120       ?baShaderDeselect@@YAXQAU_TBActorInstance@@H@Z 00533120 f   bActor:pcxbShaderSelector.obj
 0001:001321c0       ?baShaderEvaluateLightingState@@YAHXZ 005331c0 f   bActor:pcxbShaderSelector.obj
 0001:001323b0       ?baShaderAddLightingState@@YAPAU_TBShaderLightingDesc@@QBU1@@Z 005333b0 f   bActor:pcxbShaderSelector.obj
 0001:001324d0       ?baGenerateShader@@YAPAU_TBShaderActorDesc@@QAU_TBShaderLightingDesc@@QBU1@QAU_TBActorInstance@@H@Z 005334d0 f   bActor:pcxbShaderSelector.obj
 0001:00132d10       ?RegisterData@CBShaderFragment@@UAEXQBU_TBShaderContext@@@Z 00533d10 f i bActor:pcxbShaderSelector.obj
 0001:00132d30       ?ActivateFragment@CBShaderFragment@@UAEXQBU_TBShaderContext@@@Z 00533d30 f i bActor:pcxbShaderSelector.obj
 0001:00132d50       ?DeactivateFragment@CBShaderFragment@@UAEXQBU_TBShaderContext@@@Z 00533d50 f i bActor:pcxbShaderSelector.obj
 0001:00132d70       ?ConstantRegistersUsed@CBShaderFragment@@UAEIXZ 00533d70 f i bActor:pcxbShaderSelector.obj
 0001:00132d90       ?bInitLightsPlatformSpecific@@YAHXZ 00533d90 f   bActor:pcxbLights.obj
 0001:00132da0       ?bShutdownLightsPlatformSpecific@@YAXXZ 00533da0 f   bActor:pcxbLights.obj
 0001:00132db0       ?bInitSpecLightsource@@YAXPAU_TBLightsource@@@Z 00533db0 f   bActor:pcxbLights.obj
 0001:00132e60       ?bSetSpecLightInfo@@YAXPAU_TBLightsource@@@Z 00533e60 f   bActor:pcxbLights.obj
 0001:00133050       ?bEnableSpecLight@@YAXPAU_TBLightsource@@@Z 00534050 f   bActor:pcxbLights.obj
 0001:001330a0       ?bSetAmbientSpecLight@@YAXXZ 005340a0 f   bActor:pcxbLights.obj
 0001:00133170       ?bUpdateLightColour@@YAXPAU_TBLightsource@@@Z 00534170 f   bActor:pcxbLights.obj
 0001:001331c0       ?bRestoreLights@@YAXXZ     005341c0 f   bActor:pcxbLights.obj
 0001:00133240       ?bInitCamera@@YAHXZ        00534240 f   bActor:camera.obj
 0001:00133260       ?bShutdownCamera@@YAXXZ    00534260 f   bActor:camera.obj
 0001:00133280       ?baDeleteCameraInstance@@YAXPAU_TBCameraInstance@@@Z 00534280 f   bActor:camera.obj
 0001:00133310       ?baSetCameraInstance@@YAPAU_TBCameraInstance@@PAU1@@Z 00534310 f   bActor:camera.obj
 0001:00133340       ?baCreateCameraInstance@@YAPAU_TBCameraInstance@@PAU1@IZZ 00534340 f   bActor:camera.obj
 0001:00133690       ?baSetCameraInstanceSource@@YAXPAU_TBCameraInstance@@ZZ 00534690 f   bActor:camera.obj
 0001:001336d0       ?baSetCameraInstanceTarget@@YAXPAU_TBCameraInstance@@ZZ 005346d0 f   bActor:camera.obj
 0001:00133710       ?baSetCameraInstanceView@@YAXPAU_TBCameraInstance@@MMMMI@Z 00534710 f   bActor:camera.obj
 0001:00133770       ?bUpdateViewFromCamera@@YAHXZ 00534770 f   bActor:camera.obj
 0001:00133af0       ?bInitActorPlatformSpecific@@YAHXZ 00534af0 f   bActor:pcxbActor.obj
 0001:00133b00       ?bShutdownActorPlatformSpecific@@YAXXZ 00534b00 f   bActor:pcxbActor.obj
 0001:00133b10       ?bFixupAsyncMesh@@YAXPAU_TBAsyncMesh@@PAE@Z 00534b10 f   bActor:pcxbActor.obj
 0001:00133b20       ?bSetupActorNodeList@@YAXPAU_TBActorNodeInstance@@PAU_TBActorInstance@@H@Z 00534b20 f   bActor:pcxbActor.obj
 0001:00133be0       ?bFixupSoftSkin@@YAXPAU_TBActor@@@Z 00534be0 f   bActor:pcxbActor.obj
 0001:00133ec0       ?bMatMultiplyTranspose@@YAXPAMQAY03$$CBM1H@Z 00534ec0 f   bActor:pcxbActor.obj
 0001:00134290       ?bSetMatrixPaletteEntry@@YAXPAU_TBActorInstance@@PAU_TBActorNodeInstance@@@Z 00535290 f   bActor:pcxbActor.obj
 0001:001352e0       ?bDrawMesh@@YAXPAU_TBMesh@@PAU_TBActorInstance@@HPAU_TBActorNodeInstance@@@Z 005362e0 f   bActor:pcxbActor.obj
 0001:001357f0       ?bSetActorTextureFramesNodes@@YAXPAU_TBActorNode@@H@Z 005367f0 f   bActor:pcxbActor.obj
 0001:00135900       ?baSetActorTextureFrames@@YAXPAU_TBActor@@H@Z 00536900 f   bActor:pcxbActor.obj
 0001:001359d0       ?bSetActorTextureFramesByTimeNodes@@YAXPAU_TBActorNode@@H@Z 005369d0 f   bActor:pcxbActor.obj
 0001:00135ae0       ?baSetActorTextureFramesByTime@@YAXPAU_TBActor@@H@Z 00536ae0 f   bActor:pcxbActor.obj
 0001:00135bb0       ?baCreateShadowVolume@@YAPAU_TBShadowVolume@@PAU_TBActorInstance@@PAU1@QAMMI@Z 00536bb0 f   bActor:pcxbActor.obj
 0001:001365e0       ?baDeleteShadowVolume@@YAXPAU_TBShadowVolume@@@Z 005375e0 f   bActor:pcxbActor.obj
 0001:00136630       ?baRenderShadowVolume@@YAXPAU_TBShadowVolume@@@Z 00537630 f   bActor:pcxbActor.obj
 0001:00136890       ?baFillStencilShadows@@YAXHHHH@Z 00537890 f   bActor:pcxbActor.obj
 0001:00136a60       ?bPrepActorNodeList@@YAXPAU_TBActorNodeInstance@@QAY03MQAMPAU_TBActorInstance@@@Z 00537a60 f   bActor:pcxbActor.obj
 0001:00136c50       ?bDeleteAsyncMesh@@YAXPAU_TBActorNode@@@Z 00537c50 f   bActor:pcxbActor.obj
 0001:00136c60       ?bDeleteSoftSkin@@YAXPAU_TBActor@@@Z 00537c60 f   bActor:pcxbActor.obj
 0001:00136c90       ?baEvalAnimTrack3@@YAXQAMPAU_TBAnimTrack3@@H@Z 00537c90 f   bActor:pcxbAnim.obj
 0001:00136f40       ?baEvalAnimTrack4@@YAXQAMPAU_TBAnimTrack4@@H@Z 00537f40 f   bActor:pcxbAnim.obj
 0001:00137280       ?bDrawSoftSkin@@YAXPAU_TBActorInstance@@H@Z 00538280 f   bActor:pcActor.obj
 0001:00137730       ?bFixupMesh@@YAXPAEPAU_TBActorNode@@PAU_TBActor@@@Z 00538730 f   bActor:pcActor.obj
 0001:00137a50       ?bDeleteMesh@@YAXPAU_TBActorNode@@@Z 00538a50 f   bActor:pcActor.obj
 0001:00137a80       ?bInitSetPlatformSpecific@@YAHXZ 00538a80 f   bActor:pcxbSet.obj
 0001:00137a90       ?bShutdownSetPlatformSpecific@@YAXXZ 00538a90 f   bActor:pcxbSet.obj
 0001:00137aa0       ?bBSPFixUp@@YAXPAU_TBSet@@@Z 00538aa0 f   bActor:pcxbSet.obj
 0001:00137ab0       ?bBSPDelete@@YAXPAU_TBSet@@@Z 00538ab0 f   bActor:pcxbSet.obj
 0001:00137ac0       ?bBSPDraw@@YAXPAU_TBSet@@H@Z 00538ac0 f   bActor:pcxbSet.obj
 0001:00137ad0       ?bRegCellsFixUp@@YAXPAU_TBSet@@@Z 00538ad0 f   bActor:pcxbSet.obj
 0001:00137da0       ?bRegCellsDelete@@YAXPAU_TBSet@@@Z 00538da0 f   bActor:pcxbSet.obj
 0001:00137e00       ?bRegCellsDraw@@YAXPAU_TBSet@@H@Z 00538e00 f   bActor:pcxbSet.obj
 0001:00138cf0       ?bInitShaderSelectorPlatformSpecific@@YAXXZ 00539cf0 f   bActor:pcShaderSelector.obj
 0001:00138df0       ?bShutdownShaderSelectorPlatformSpecific@@YAXXZ 00539df0 f   bActor:pcShaderSelector.obj
 0001:00138f30       ?baFlushVertexShaderCache@@YAXXZ 00539f30 f   bActor:pcShaderSelector.obj
 0001:00139010       ?bAssembleShader@@YAXPAU_TBShaderActorDesc@@PAU_TBActorInstance@@@Z 0053a010 f   bActor:pcShaderSelector.obj
 0001:0013a520       _DirectSoundCreate8@12     0053b520 f   dsound:DSOUND.dll
 0001:0013a526       ?DXGetErrorString8A@@YGPBDJ@Z 0053b526 f   dxerr8:dxerr8.obj
 0001:0013bd8c       ?DXGetErrorString8W@@YGPBGJ@Z 0053cd8c f   dxerr8:dxerr8.obj
 0001:0013d5f2       ?DXTraceW@@YGJPADKJPAGH@Z  0053e5f2 f   dxerr8:dxerr8.obj
 0001:0013d73d       ?DXTraceA@@YGJPADKJ0H@Z    0053e73d f   dxerr8:dxerr8.obj
 0001:0013d888       _DirectInput8Create@20     0053e888 f   dinput8:DINPUT8.dll
 0001:0013d88e       _Direct3DCreate8@4         0053e88e f   d3d8:d3d8.dll
 0001:0013d894       ??_GCD3DXFont@@QAEPAXI@Z   0053e894 f i d3dx8:d3dx8core.obj
 0001:0013d8b0       ??_GCD3DXSprite@@QAEPAXI@Z 0053e8b0 f i d3dx8:d3dx8core.obj
 0001:0013d8cc       ??_GCD3DXRenderToSurface@@QAEPAXI@Z 0053e8cc f i d3dx8:d3dx8core.obj
 0001:0013d8e8       ??_GCD3DXRenderToEnvMap@@QAEPAXI@Z 0053e8e8 f i d3dx8:d3dx8core.obj
 0001:0013d904       _D3DXAssembleShaderFromFileA@20 0053e904 f   d3dx8:d3dx8core.obj
 0001:0013d990       _D3DXAssembleShaderFromFileW@20 0053e990 f   d3dx8:d3dx8core.obj
 0001:0013da59       _D3DXAssembleShader@24     0053ea59 f   d3dx8:d3dx8core.obj
 0001:0013dabd       _D3DXGetFVFVertexSize@4    0053eabd f   d3dx8:d3dx8core.obj
 0001:0013db65       _D3DXGetErrorStringA@12    0053eb65 f   d3dx8:d3dx8core.obj
 0001:0013dda3       _D3DXGetErrorStringW@12    0053eda3 f   d3dx8:d3dx8core.obj
 0001:0013ddfa       _D3DXCreateFontIndirect@12 0053edfa f   d3dx8:d3dx8core.obj
 0001:0013de6e       _D3DXCreateSprite@8        0053ee6e f   d3dx8:d3dx8core.obj
 0001:0013ded8       _D3DXCreateRenderToSurface@28 0053eed8 f   d3dx8:d3dx8core.obj
 0001:0013df52       _D3DXCreateRenderToEnvMap@24 0053ef52 f   d3dx8:d3dx8core.obj
 0001:0013dfc9       _D3DXCreateFont@12         0053efc9 f   d3dx8:d3dx8core.obj
 0001:0013dffc       ??0IUnknown@@QAE@XZ        0053effc f i d3dx8:cd3dxfont.obj
 0001:0013dfff       ??1CD3DXFont@@QAE@XZ       0053efff f   d3dx8:cd3dxfont.obj
 0001:0013e031       ?AddRef@CD3DXFont@@UAGKXZ  0053f031 f   d3dx8:cd3dxfont.obj
 0001:0013e03e       ?Initialize@CD3DXFont@@QAEJPAUIDirect3DDevice8@@PBUtagLOGFONTA@@@Z 0053f03e f   d3dx8:cd3dxfont.obj
 0001:0013e090       _IsEqualGUID               0053f090 f i d3dx8:cd3dxfont.obj
 0001:0013e0a7       ?GetDevice@CD3DXFont@@UAGJPAPAUIDirect3DDevice8@@@Z 0053f0a7 f   d3dx8:cd3dxfont.obj
 0001:0013e0cd       ?GetLogFont@CD3DXFont@@UAGJPAUtagLOGFONTA@@@Z 0053f0cd f   d3dx8:cd3dxfont.obj
 0001:0013e0f1       ?Begin@CD3DXFont@@UAGJXZ   0053f0f1 f   d3dx8:cd3dxfont.obj
 0001:0013e100       ?End@CD3DXFont@@UAGJXZ     0053f100 f   d3dx8:cd3dxfont.obj
 0001:0013e10f       ?DrawTextA@CD3DXFont@@UAGHPBDHPAUtagRECT@@KK@Z 0053f10f f   d3dx8:cd3dxfont.obj
 0001:0013e135       ?DrawTextW@CD3DXFont@@UAGHPBGHPAUtagRECT@@KK@Z 0053f135 f   d3dx8:cd3dxfont.obj
 0001:0013e15b       ??0ID3DXFont@@QAE@XZ       0053f15b f i d3dx8:cd3dxfont.obj
 0001:0013e15e       ?QueryInterface@CD3DXFont@@UAGJABU_GUID@@PAPAX@Z 0053f15e f   d3dx8:cd3dxfont.obj
 0001:0013e1a2       ?Release@CD3DXFont@@UAGKXZ 0053f1a2 f   d3dx8:cd3dxfont.obj
 0001:0013e1c3       ??0CD3DXFont@@QAE@XZ       0053f1c3 f   d3dx8:cd3dxfont.obj
 0001:0013e1de       ??1CD3DXSprite@@QAE@XZ     0053f1de f   d3dx8:cd3dxsprite.obj
 0001:0013e21e       ?AddRef@CD3DXSprite@@UAGKXZ 0053f21e f   d3dx8:cd3dxsprite.obj
 0001:0013e22b       ?Initialize@CD3DXSprite@@QAEJPAUIDirect3DDevice8@@@Z 0053f22b f   d3dx8:cd3dxsprite.obj
 0001:0013e4b2       ?GetDevice@CD3DXSprite@@UAGJPAPAUIDirect3DDevice8@@@Z 0053f4b2 f   d3dx8:cd3dxsprite.obj
 0001:0013e4d8       ?Begin@CD3DXSprite@@UAGJXZ 0053f4d8 f   d3dx8:cd3dxsprite.obj
 0001:0013e515       _cosf                      0053f515 f i d3dx8:cd3dxsprite.obj
 0001:0013e51c       _sinf                      0053f51c f i d3dx8:cd3dxsprite.obj
 0001:0013e523       ??0D3DXVECTOR2@@QAE@XZ     0053f523 f i d3dx8:cd3dxsprite.obj
 0001:0013e526       ??0D3DXVECTOR3@@QAE@XZ     0053f526 f i d3dx8:cd3dxsprite.obj
 0001:0013e529       ??0D3DXVECTOR4@@QAE@XZ     0053f529 f i d3dx8:cd3dxsprite.obj
 0001:0013e52c       ??0D3DXMATRIX@@QAE@XZ      0053f52c f i d3dx8:cd3dxsprite.obj
 0001:0013e52f       ??0D3DXQUATERNION@@QAE@XZ  0053f52f f i d3dx8:cd3dxsprite.obj
 0001:0013e532       ??0D3DXVECTOR2@@QAE@MM@Z   0053f532 f i d3dx8:cd3dxsprite.obj
 0001:0013e544       ??0SPRITE_VERTEX@@QAE@XZ   0053f544 f i d3dx8:cd3dxsprite.obj
 0001:0013e547       ?End@CD3DXSprite@@UAGJXZ   0053f547 f   d3dx8:cd3dxsprite.obj
 0001:0013e572       ??0D3DXVECTOR4@@QAE@MMMM@Z 0053f572 f i d3dx8:cd3dxsprite.obj
 0001:0013e592       ??0ID3DXSprite@@QAE@XZ     0053f592 f i d3dx8:cd3dxsprite.obj
 0001:0013e595       ?QueryInterface@CD3DXSprite@@UAGJABU_GUID@@PAPAX@Z 0053f595 f   d3dx8:cd3dxsprite.obj
 0001:0013e5d9       ?Release@CD3DXSprite@@UAGKXZ 0053f5d9 f   d3dx8:cd3dxsprite.obj
 0001:0013e5fa       ?Draw@CD3DXSprite@@UAGJPAUIDirect3DTexture8@@PBUtagRECT@@PBUD3DXVECTOR2@@2M2K@Z 0053f5fa f   d3dx8:cd3dxsprite.obj
 0001:0013e6d1       ?DrawTransform@CD3DXSprite@@UAGJPAUIDirect3DTexture8@@PBUtagRECT@@PBUD3DXMATRIX@@K@Z 0053f6d1 f   d3dx8:cd3dxsprite.obj
 0001:0013e990       ??0CD3DXSprite@@QAE@XZ     0053f990 f   d3dx8:cd3dxsprite.obj
 0001:0013e9ae       ??1CD3DXRenderToSurface@@QAE@XZ 0053f9ae f   d3dx8:cd3dxrendertosurface.obj
 0001:0013ea31       ?Init@CD3DXRenderToSurface@@QAEJPAUIDirect3DDevice8@@IIW4_D3DFORMAT@@H1@Z 0053fa31 f   d3dx8:cd3dxrendertosurface.obj
 0001:0013ea80       _==                        0053fa80 f i d3dx8:cd3dxrendertosurface.obj
 0001:0013ea97       ?AddRef@CD3DXRenderToSurface@@UAGKXZ 0053fa97 f   d3dx8:cd3dxrendertosurface.obj
 0001:0013eaa4       ?GetDevice@CD3DXRenderToSurface@@UAGJPAPAUIDirect3DDevice8@@@Z 0053faa4 f   d3dx8:cd3dxrendertosurface.obj
 0001:0013eaca       ?GetDesc@CD3DXRenderToSurface@@UAGJPAU_D3DXRTS_DESC@@@Z 0053faca f   d3dx8:cd3dxrendertosurface.obj
 0001:0013eaee       ?BeginScene@CD3DXRenderToSurface@@UAGJPAUIDirect3DSurface8@@PBU_D3DVIEWPORT8@@@Z 0053faee f   d3dx8:cd3dxrendertosurface.obj
 0001:0013ecba       ?EndScene@CD3DXRenderToSurface@@UAGJXZ 0053fcba f   d3dx8:cd3dxrendertosurface.obj
 0001:0013ed72       ??0ID3DXRenderToSurface@@QAE@XZ 0053fd72 f i d3dx8:cd3dxrendertosurface.obj
 0001:0013ed75       ?QueryInterface@CD3DXRenderToSurface@@UAGJABU_GUID@@PAPAX@Z 0053fd75 f   d3dx8:cd3dxrendertosurface.obj
 0001:0013edbc       ?Release@CD3DXRenderToSurface@@UAGKXZ 0053fdbc f   d3dx8:cd3dxrendertosurface.obj
 0001:0013ede5       ??0CD3DXRenderToSurface@@QAE@XZ 0053fde5 f   d3dx8:cd3dxrendertosurface.obj
 0001:0013ee0c       ??1CD3DXRenderToEnvMap@@QAE@XZ 0053fe0c f   d3dx8:cd3dxrendertoenvmap.obj
 0001:0013eecb       ?Init@CD3DXRenderToEnvMap@@QAEJPAUIDirect3DDevice8@@IW4_D3DFORMAT@@H1@Z 0053fecb f   d3dx8:cd3dxrendertoenvmap.obj
 0001:0013ef1f       ?Begin@CD3DXRenderToEnvMap@@QAEJXZ 0053ff1f f   d3dx8:cd3dxrendertoenvmap.obj
 0001:0013ef97       ?BeginScene@CD3DXRenderToEnvMap@@QAEJW4_D3DCUBEMAP_FACES@@@Z 0053ff97 f   d3dx8:cd3dxrendertoenvmap.obj
 0001:0013f0cf       ?EndScene@CD3DXRenderToEnvMap@@QAEJXZ 005400cf f   d3dx8:cd3dxrendertoenvmap.obj
 0001:0013f141       ?RenderSphere@CD3DXRenderToEnvMap@@QAEJXZ 00540141 f   d3dx8:cd3dxrendertoenvmap.obj
 0001:0013f147       ?RenderHemisphere@CD3DXRenderToEnvMap@@QAEJXZ 00540147 f   d3dx8:cd3dxrendertoenvmap.obj
 0001:0013f14d       ?RenderParabolic@CD3DXRenderToEnvMap@@QAEJXZ 0054014d f   d3dx8:cd3dxrendertoenvmap.obj
 0001:0013f153       ?QueryInterface@CD3DXRenderToEnvMap@@UAGJABU_GUID@@PAPAX@Z 00540153 f   d3dx8:cd3dxrendertoenvmap.obj
 0001:0013f19a       ?AddRef@CD3DXRenderToEnvMap@@UAGKXZ 0054019a f   d3dx8:cd3dxrendertoenvmap.obj
 0001:0013f1a7       ?GetDevice@CD3DXRenderToEnvMap@@UAGJPAPAUIDirect3DDevice8@@@Z 005401a7 f   d3dx8:cd3dxrendertoenvmap.obj
 0001:0013f1cd       ?GetDesc@CD3DXRenderToEnvMap@@UAGJPAU_D3DXRTE_DESC@@@Z 005401cd f   d3dx8:cd3dxrendertoenvmap.obj
 0001:0013f1f0       ?BeginCube@CD3DXRenderToEnvMap@@UAGJPAUIDirect3DCubeTexture8@@@Z 005401f0 f   d3dx8:cd3dxrendertoenvmap.obj
 0001:0013f253       ?BeginSphere@CD3DXRenderToEnvMap@@UAGJPAUIDirect3DTexture8@@@Z 00540253 f   d3dx8:cd3dxrendertoenvmap.obj
 0001:0013f297       ?BeginHemisphere@CD3DXRenderToEnvMap@@UAGJPAUIDirect3DTexture8@@0@Z 00540297 f   d3dx8:cd3dxrendertoenvmap.obj
 0001:0013f2fb       ?BeginParabolic@CD3DXRenderToEnvMap@@UAGJPAUIDirect3DTexture8@@0@Z 005402fb f   d3dx8:cd3dxrendertoenvmap.obj
 0001:0013f364       ?Face@CD3DXRenderToEnvMap@@UAGJW4_D3DCUBEMAP_FACES@@@Z 00540364 f   d3dx8:cd3dxrendertoenvmap.obj
 0001:0013f387       ?End@CD3DXRenderToEnvMap@@UAGJXZ 00540387 f   d3dx8:cd3dxrendertoenvmap.obj
 0001:0013f455       ??0ID3DXRenderToEnvMap@@QAE@XZ 00540455 f i d3dx8:cd3dxrendertoenvmap.obj
 0001:0013f458       ?Release@CD3DXRenderToEnvMap@@UAGKXZ 00540458 f   d3dx8:cd3dxrendertoenvmap.obj
 0001:0013f481       ??0CD3DXRenderToEnvMap@@QAE@XZ 00540481 f   d3dx8:cd3dxrendertoenvmap.obj
 0001:0013f4c3       ??0CD3DXFile@@QAE@XZ       005404c3 f   d3dx8:cd3dxfile.obj
 0001:0013f4d5       ?Open@CD3DXFile@@QAEJPBXH@Z 005404d5 f   d3dx8:cd3dxfile.obj
 0001:0013f5ee       ?Close@CD3DXFile@@QAEJXZ   005405ee f   d3dx8:cd3dxfile.obj
 0001:0013f62f       ??1CD3DXFile@@QAE@XZ       0054062f f   d3dx8:cd3dxfile.obj
 0001:0013f63a       ??0CD3DXAssembler@@QAE@XZ  0054063a f   d3dx8:cd3dxassembler.obj
 0001:0013f6da       ??1CD3DXAssembler@@QAE@XZ  005406da f   d3dx8:cd3dxassembler.obj
 0001:0013f75a       ??_GCD3DXBuffer@@QAEPAXI@Z 0054075a f i d3dx8:cd3dxassembler.obj
 0001:0013f776       ?Error@CD3DXAssembler@@QAAXPADZZ 00540776 f   d3dx8:cd3dxassembler.obj
 0001:0013f812       ?DecodeOpcode@CD3DXAssembler@@QAEHXZ 00540812 f   d3dx8:cd3dxassembler.obj
 0001:0013fe4f       ?DecodeMask@CD3DXAssembler@@QAEKPAD@Z 00540e4f f   d3dx8:cd3dxassembler.obj
 0001:0013fef8       ?DecodeSwizzle@CD3DXAssembler@@QAEKPAD@Z 00540ef8 f   d3dx8:cd3dxassembler.obj
 0001:0013ff99       ?DecodeRegister@CD3DXAssembler@@QAEKPADKH@Z 00540f99 f   d3dx8:cd3dxassembler.obj
 0001:0014030f       ?ValidateDstRegister@CD3DXAssembler@@QAEXK@Z 0054130f f   d3dx8:cd3dxassembler.obj
 0001:0014039d       ?ValidateSrcRegister@CD3DXAssembler@@QAEXK@Z 0054139d f   d3dx8:cd3dxassembler.obj
 0001:0014041f       ?SetConstant@CD3DXAssembler@@QAEXKPAUD3DXVECTOR4@@@Z 0054141f f   d3dx8:cd3dxassembler.obj
 0001:001404c8       ?UpdateDebugText@CD3DXAssembler@@QAEXXZ 005414c8 f   d3dx8:cd3dxassembler.obj
 0001:0014059e       ?UpdateDebugFileLine@CD3DXAssembler@@QAEXXZ 0054159e f   d3dx8:cd3dxassembler.obj
 0001:001406f6       ?Token@CD3DXAssembler@@QAEHXZ 005416f6 f   d3dx8:cd3dxassembler.obj
 0001:00140b17       ?Production@CD3DXAssembler@@QAEXI@Z 00541b17 f   d3dx8:cd3dxassembler.obj
 0001:001412cc       ?d3dxasm_parse@@YAHXZ      005422cc f   d3dx8:cd3dxassembler.obj
 0001:00141776       ?Assemble@CD3DXAssembler@@QAEJPBXIPBDIKPAPAUID3DXBuffer@@22@Z 00542776 f   d3dx8:cd3dxassembler.obj
 0001:00141c0d       ??0CD3DXText@@IAE@XZ       00542c0d f   d3dx8:cd3dxtext.obj
 0001:00141c4c       ??1CD3DXText@@IAE@XZ       00542c4c f   d3dx8:cd3dxtext.obj
 0001:00141d17       ?AddRef@CD3DXText@@QAEXXZ  00542d17 f   d3dx8:cd3dxtext.obj
 0001:00141d1a       ??_GCD3DXText@@IAEPAXI@Z   00542d1a f i d3dx8:cd3dxtext.obj
 0001:00141d36       ?Initialize@CD3DXText@@IAEJPAUIDirect3DDevice8@@@Z 00542d36 f   d3dx8:cd3dxtext.obj
 0001:00141ef0       ?Begin@CD3DXText@@QAEJXZ   00542ef0 f   d3dx8:cd3dxtext.obj
 0001:00141f32       ?End@CD3DXText@@QAEJXZ     00542f32 f   d3dx8:cd3dxtext.obj
 0001:00141f62       ?Release@CD3DXText@@QAEXXZ 00542f62 f   d3dx8:cd3dxtext.obj
 0001:00141f77       ?Create@CD3DXText@@SAJPAUIDirect3DDevice8@@PAPAV1@@Z 00542f77 f   d3dx8:cd3dxtext.obj
 0001:00141ff3       ?DrawTextAW@CD3DXText@@QAEHPAUHFONT__@@PBXHPAUtagRECT@@KKH@Z 00542ff3 f   d3dx8:cd3dxtext.obj
 0001:001425cd       _D3DXVec2Hermite@24        005435cd f   d3dx8:d3dxmath.obj
 0001:0014265b       _D3DXVec2CatmullRom@24     0054365b f   d3dx8:d3dxmath.obj
 0001:0014270a       _D3DXVec2BaryCentric@24    0054370a f   d3dx8:d3dxmath.obj
 0001:0014274d       _D3DXVec2Transform@12      0054374d f   d3dx8:d3dxmath.obj
 0001:001427b6       _D3DXVec2TransformNormal@12 005437b6 f   d3dx8:d3dxmath.obj
 0001:001427eb       _D3DXVec3Hermite@24        005437eb f   d3dx8:d3dxmath.obj
 0001:00142899       _D3DXVec3CatmullRom@24     00543899 f   d3dx8:d3dxmath.obj
 0001:0014296a       _acosf                     0054396a f i d3dx8:d3dxmath.obj
 0001:00142974       _atan2f                    00543974 f i d3dx8:d3dxmath.obj
 0001:0014297f       _D3DXVec3BaryCentric@24    0054397f f   d3dx8:d3dxmath.obj
 0001:001429dc       _D3DXVec3Transform@12      005439dc f   d3dx8:d3dxmath.obj
 0001:00142a67       _sqrtf                     00543a67 f i d3dx8:d3dxmath.obj
 0001:00142a6e       ??0D3DXPLANE@@QAE@XZ       00543a6e f i d3dx8:d3dxmath.obj
 0001:00142a71       _D3DXVec3TransformNormal@12 00543a71 f   d3dx8:d3dxmath.obj
 0001:00142ad0       ??_0D3DXVECTOR2@@QAEAAU0@M@Z 00543ad0 f i d3dx8:d3dxmath.obj
 0001:00142ae7       ??KD3DXVECTOR2@@QBE?AU0@M@Z 00543ae7 f i d3dx8:d3dxmath.obj
 0001:00142b04       ??0D3DXVECTOR3@@QAE@MMM@Z  00543b04 f i d3dx8:d3dxmath.obj
 0001:00142b1d       _D3DXVec4Cross@16          00543b1d f   d3dx8:d3dxmath.obj
 0001:00142c0d       ??_0D3DXVECTOR3@@QAEAAU0@M@Z 00543c0d f i d3dx8:d3dxmath.obj
 0001:00142c2c       ??GD3DXVECTOR3@@QBE?AU0@ABU0@@Z 00543c2c f i d3dx8:d3dxmath.obj
 0001:00142c4f       ??KD3DXVECTOR3@@QBE?AU0@M@Z 00543c4f f i d3dx8:d3dxmath.obj
 0001:00142c77       _D3DXVec4Hermite@24        00543c77 f   d3dx8:d3dxmath.obj
 0001:00142d48       _D3DXVec4CatmullRom@24     00543d48 f   d3dx8:d3dxmath.obj
 0001:00142e3b       _D3DXVec4BaryCentric@24    00543e3b f   d3dx8:d3dxmath.obj
 0001:00142eb2       _D3DXVec4Transform@12      00543eb2 f   d3dx8:d3dxmath.obj
 0001:00142f4b       _D3DXMatrixfDeterminant@4  00543f4b f   d3dx8:d3dxmath.obj
 0001:00143015       ??KD3DXVECTOR4@@QBE?AU0@M@Z 00544015 f i d3dx8:d3dxmath.obj
 0001:00143042       _D3DXMatrixMultiply@12     00544042 f   d3dx8:d3dxmath.obj
 0001:00143125       _D3DXMatrixTranspose@8     00544125 f   d3dx8:d3dxmath.obj
 0001:00143192       _D3DXMatrixInverse@12      00544192 f   d3dx8:d3dxmath.obj
 0001:0014351f       _D3DXMatrixScaling@16      0054451f f   d3dx8:d3dxmath.obj
 0001:0014357b       _D3DXMatrixTranslation@16  0054457b f   d3dx8:d3dxmath.obj
 0001:001435d7       _D3DXMatrixRotationX@8     005445d7 f   d3dx8:d3dxmath.obj
 0001:00143651       _D3DXMatrixRotationY@8     00544651 f   d3dx8:d3dxmath.obj
 0001:001436cc       _D3DXMatrixRotationZ@8     005446cc f   d3dx8:d3dxmath.obj
 0001:00143748       ??0D3DXQUATERNION@@QAE@MMMM@Z 00544748 f i d3dx8:d3dxmath.obj
 0001:00143768       _D3DXMatrixRotationQuaternion@8 00544768 f   d3dx8:d3dxmath.obj
 0001:0014384a       ??_0D3DXQUATERNION@@QAEAAU0@M@Z 0054484a f i d3dx8:d3dxmath.obj
 0001:00143871       ??KD3DXQUATERNION@@QBE?AU0@M@Z 00544871 f i d3dx8:d3dxmath.obj
 0001:0014389e       ??0D3DXPLANE@@QAE@MMMM@Z   0054489e f i d3dx8:d3dxmath.obj
 0001:001438be       ??GD3DXPLANE@@QBE?AU0@XZ   005448be f i d3dx8:d3dxmath.obj
 0001:001438e3       _D3DXMatrixAffineTransformation@20 005448e3 f   d3dx8:d3dxmath.obj
 0001:001439bf       _D3DXMatrixPerspectiveRH@20 005449bf f   d3dx8:d3dxmath.obj
 0001:00143a2b       _D3DXMatrixPerspectiveLH@20 00544a2b f   d3dx8:d3dxmath.obj
 0001:00143a97       _D3DXMatrixPerspectiveFovRH@20 00544a97 f   d3dx8:d3dxmath.obj
 0001:00143b2b       _D3DXMatrixPerspectiveFovLH@20 00544b2b f   d3dx8:d3dxmath.obj
 0001:00143bbf       ?D3DXVec2LengthSq@@YAMPBUD3DXVECTOR2@@@Z 00544bbf f i d3dx8:d3dxmath.obj
 0001:00143bd7       _D3DXMatrixPerspectiveOffCenterRH@28 00544bd7 f   d3dx8:d3dxmath.obj
 0001:00143c74       _D3DXMatrixPerspectiveOffCenterLH@28 00544c74 f   d3dx8:d3dxmath.obj
 0001:00143d15       _D3DXMatrixOrthoRH@20      00544d15 f   d3dx8:d3dxmath.obj
 0001:00143d87       ?D3DXVec3LengthSq@@YAMPBUD3DXVECTOR3@@@Z 00544d87 f i d3dx8:d3dxmath.obj
 0001:00143daa       ?D3DXVec3Dot@@YAMPBUD3DXVECTOR3@@0@Z 00544daa f i d3dx8:d3dxmath.obj
 0001:00143dc7       _D3DXMatrixOrthoLH@20      00544dc7 f   d3dx8:d3dxmath.obj
 0001:00143e3b       ?D3DXVec3Cross@@YAPAUD3DXVECTOR3@@PAU1@PBU1@1@Z 00544e3b f i d3dx8:d3dxmath.obj
 0001:00143e87       ?D3DXVec3Subtract@@YAPAUD3DXVECTOR3@@PAU1@PBU1@1@Z 00544e87 f i d3dx8:d3dxmath.obj
 0001:00143eac       _D3DXMatrixOrthoOffCenterRH@28 00544eac f   d3dx8:d3dxmath.obj
 0001:00143f4e       _D3DXMatrixOrthoOffCenterLH@28 00544f4e f   d3dx8:d3dxmath.obj
 0001:00143ff2       ?D3DXVec3Lerp@@YAPAUD3DXVECTOR3@@PAU1@PBU1@1M@Z 00544ff2 f i d3dx8:d3dxmath.obj
 0001:00144029       ?D3DXVec4LengthSq@@YAMPBUD3DXVECTOR4@@@Z 00545029 f i d3dx8:d3dxmath.obj
 0001:00144057       _D3DXQuaternionRotationMatrix@8 00545057 f   d3dx8:d3dxmath.obj
 0001:0014418b       ?D3DXMatrixIdentity@@YAPAUD3DXMATRIX@@PAU1@@Z 0054518b f i d3dx8:d3dxmath.obj
 0001:001441df       ?D3DXQuaternionLengthSq@@YAMPBUD3DXQUATERNION@@@Z 005451df f i d3dx8:d3dxmath.obj
 0001:0014420d       ?D3DXQuaternionDot@@YAMPBUD3DXQUATERNION@@0@Z 0054520d f i d3dx8:d3dxmath.obj
 0001:00144232       _D3DXQuaternionRotationYawPitchRoll@16 00545232 f   d3dx8:d3dxmath.obj
 0001:0014430b       _D3DXQuaternionMultiply@12 0054530b f   d3dx8:d3dxmath.obj
 0001:001443a1       ?D3DXQuaternionConjugate@@YAPAUD3DXQUATERNION@@PAU1@PBU1@@Z 005453a1 f i d3dx8:d3dxmath.obj
 0001:001443c6       ?D3DXPlaneDot@@YAMPBUD3DXPLANE@@PBUD3DXVECTOR4@@@Z 005453c6 f i d3dx8:d3dxmath.obj
 0001:001443eb       ?D3DXPlaneDotCoord@@YAMPBUD3DXPLANE@@PBUD3DXVECTOR3@@@Z 005453eb f i d3dx8:d3dxmath.obj
 0001:0014440b       ?D3DXPlaneDotNormal@@YAMPBUD3DXPLANE@@PBUD3DXVECTOR3@@@Z 0054540b f i d3dx8:d3dxmath.obj
 0001:00144428       _D3DXQuaternionNormalize@8 00545428 f   d3dx8:d3dxmath.obj
 0001:001444b4       _D3DXQuaternionInverse@8   005454b4 f   d3dx8:d3dxmath.obj
 0001:00144533       _D3DXQuaternionLn@8        00545533 f   d3dx8:d3dxmath.obj
 0001:001445b3       _D3DXQuaternionExp@8       005455b3 f   d3dx8:d3dxmath.obj
 0001:00144654       _D3DXQuaternionSlerp@16    00545654 f   d3dx8:d3dxmath.obj
 0001:0014472e       _D3DXQuaternionSquad@24    0054572e f   d3dx8:d3dxmath.obj
 0001:00144785       _D3DXQuaternionBaryCentric@24 00545785 f   d3dx8:d3dxmath.obj
 0001:00144811       _D3DXPlaneNormalize@8      00545811 f   d3dx8:d3dxmath.obj
 0001:001448bb       _D3DXPlaneIntersectLine@16 005458bb f   d3dx8:d3dxmath.obj
 0001:00144948       _D3DXPlaneFromPointNormal@12 00545948 f   d3dx8:d3dxmath.obj
 0001:00144980       _D3DXColorAdjustSaturation@12 00545980 f   d3dx8:d3dxmath.obj
 0001:001449d8       _D3DXColorAdjustContrast@12 005459d8 f   d3dx8:d3dxmath.obj
 0001:00144a18       _D3DXVec2Normalize@8       00545a18 f   d3dx8:d3dxmath.obj
 0001:00144aac       _D3DXVec2TransformCoord@12 00545aac f   d3dx8:d3dxmath.obj
 0001:00144b57       _D3DXVec3Normalize@8       00545b57 f   d3dx8:d3dxmath.obj
 0001:00144bfe       _D3DXVec3TransformCoord@12 00545bfe f   d3dx8:d3dxmath.obj
 0001:00144cce       _D3DXVec3Project@24        00545cce f   d3dx8:d3dxmath.obj
 0001:00144deb       _D3DXVec3Unproject@24      00545deb f   d3dx8:d3dxmath.obj
 0001:00144f19       _D3DXVec4Normalize@8       00545f19 f   d3dx8:d3dxmath.obj
 0001:00144fa5       _D3DXMatrixRotationAxis@12 00545fa5 f   d3dx8:d3dxmath.obj
 0001:001450a7       _D3DXMatrixRotationYawPitchRoll@16 005460a7 f   d3dx8:d3dxmath.obj
 0001:001450e0       _D3DXMatrixTransformation@28 005460e0 f   d3dx8:d3dxmath.obj
 0001:001452df       _D3DXMatrixLookAtRH@16     005462df f   d3dx8:d3dxmath.obj
 0001:001453e5       _D3DXMatrixLookAtLH@16     005463e5 f   d3dx8:d3dxmath.obj
 0001:001454eb       _D3DXMatrixShadow@12       005464eb f   d3dx8:d3dxmath.obj
 0001:001455c9       _D3DXMatrixReflect@8       005465c9 f   d3dx8:d3dxmath.obj
 0001:00145688       _D3DXQuaternionToAxisAngle@12 00546688 f   d3dx8:d3dxmath.obj
 0001:00145705       _D3DXQuaternionRotationAxis@12 00546705 f   d3dx8:d3dxmath.obj
 0001:00145761       _D3DXPlaneFromPoints@16    00546761 f   d3dx8:d3dxmath.obj
 0001:001457e0       _D3DXPlaneTransform@12     005467e0 f   d3dx8:d3dxmath.obj
 0001:0014585c       ??0CD3DXDwStack@@QAE@XZ    0054685c f   d3dx8:cd3dxstack.obj
 0001:0014586c       ??1CD3DXDwStack@@QAE@XZ    0054686c f   d3dx8:cd3dxstack.obj
 0001:0014587a       ?Push@CD3DXDwStack@@QAEJK@Z 0054687a f   d3dx8:cd3dxstack.obj
 0001:001458e8       ?Pop@CD3DXDwStack@@QAEJPAK@Z 005468e8 f   d3dx8:cd3dxstack.obj
 0001:0014591c       ?GetLastError@CD3DXDwStack@@QAEJXZ 0054691c f   d3dx8:cd3dxstack.obj
 0001:00145924       ??0CD3DXSzStack@@QAE@XZ    00546924 f   d3dx8:cd3dxstack.obj
 0001:00145934       ??1CD3DXSzStack@@QAE@XZ    00546934 f   d3dx8:cd3dxstack.obj
 0001:00145965       ?Push@CD3DXSzStack@@QAEJPAD@Z 00546965 f   d3dx8:cd3dxstack.obj
 0001:00145a14       ?Pop@CD3DXSzStack@@QAEJPAPAD@Z 00546a14 f   d3dx8:cd3dxstack.obj
 0001:00145a48       ?GetLastError@CD3DXSzStack@@QAEJXZ 00546a48 f   d3dx8:cd3dxstack.obj
 0001:00145a50       ??1CD3DXBuffer@@QAE@XZ     00546a50 f   d3dx8:cd3dxbuffer.obj
 0001:00145a65       ?Init@CD3DXBuffer@@QAEJK@Z 00546a65 f   d3dx8:cd3dxbuffer.obj
 0001:00145a8b       ?AddRef@CD3DXBuffer@@UAGKXZ 00546a8b f   d3dx8:cd3dxbuffer.obj
 0001:00145a98       ?GetBufferPointer@CD3DXBuffer@@UAGPAXXZ 00546a98 f   d3dx8:cd3dxbuffer.obj
 0001:00145aa2       ?GetBufferSize@CD3DXBuffer@@UAGKXZ 00546aa2 f   d3dx8:cd3dxbuffer.obj
 0001:00145aac       ?Grow@CD3DXBuffer@@IAEJK@Z 00546aac f   d3dx8:cd3dxbuffer.obj
 0001:00145b01       ?Init@CD3DXStringBuffer@@QAEJK@Z 00546b01 f   d3dx8:cd3dxbuffer.obj
 0001:00145b25       ??1CD3DXStringBuffer@@QAE@XZ 00546b25 f i d3dx8:cd3dxbuffer.obj
 0001:00145b2a       ?AddString@CD3DXStringBuffer@@QAEJPAD@Z 00546b2a f   d3dx8:cd3dxbuffer.obj
 0001:00145c29       ??0ID3DXBuffer@@QAE@XZ     00546c29 f i d3dx8:cd3dxbuffer.obj
 0001:00145c2c       ?QueryInterface@CD3DXBuffer@@UAGJABU_GUID@@PAPAX@Z 00546c2c f   d3dx8:cd3dxbuffer.obj
 0001:00145c73       ?Release@CD3DXBuffer@@UAGKXZ 00546c73 f   d3dx8:cd3dxbuffer.obj
 0001:00145c9c       ??_GCD3DXStringBuffer@@QAEPAXI@Z 00546c9c f i d3dx8:cd3dxbuffer.obj
 0001:00145cb8       ??0CD3DXBuffer@@QAE@XZ     00546cb8 f   d3dx8:cd3dxbuffer.obj
 0001:00145cd0       ??0CD3DXStringBuffer@@QAE@XZ 00546cd0 f   d3dx8:cd3dxbuffer.obj
 0001:00145ce6       ?D3DXCreateStringBuffer@@YAJKPAPAVCD3DXStringBuffer@@@Z 00546ce6 f   d3dx8:cd3dxbuffer.obj
 0001:001461c2       _D3DXLoadSurfaceFromMemory@40 005471c2 f   d3dx8:d3dx8tex.obj
 0001:001463f8       _D3DXLoadVolumeFromMemory@44 005473f8 f   d3dx8:d3dx8tex.obj
 0001:0014660e       _D3DXCheckTextureRequirements@28 0054760e f   d3dx8:d3dx8tex.obj
 0001:00146636       _D3DXCreateTexture@32      00547636 f   d3dx8:d3dx8tex.obj
 0001:0014669c       _D3DXCheckCubeTextureRequirements@24 0054769c f   d3dx8:d3dx8tex.obj
 0001:001466c4       _D3DXCreateCubeTexture@28  005476c4 f   d3dx8:d3dx8tex.obj
 0001:00146723       _D3DXCheckVolumeTextureRequirements@32 00547723 f   d3dx8:d3dx8tex.obj
 0001:0014674c       _D3DXCreateVolumeTexture@36 0054774c f   d3dx8:d3dx8tex.obj
 0001:001467b9       _D3DXLoadSurfaceFromFileInMemory@36 005477b9 f   d3dx8:d3dx8tex.obj
 0001:0014686f       _D3DXLoadSurfaceFromSurface@32 0054786f f   d3dx8:d3dx8tex.obj
 0001:0014698c       _D3DXLoadVolumeFromVolume@32 0054798c f   d3dx8:d3dx8tex.obj
 0001:00146ac1       _D3DXFilterTexture@16      00547ac1 f   d3dx8:d3dx8tex.obj
 0001:00146bf2       _D3DXFilterCubeTexture@16  00547bf2 f   d3dx8:d3dx8tex.obj
 0001:00146d44       _D3DXFilterVolumeTexture@16 00547d44 f   d3dx8:d3dx8tex.obj
 0001:00146e8a       _D3DXLoadSurfaceFromFileA@32 00547e8a f   d3dx8:d3dx8tex.obj
 0001:00146edb       _D3DXLoadSurfaceFromFileW@32 00547edb f   d3dx8:d3dx8tex.obj
 0001:00146f2c       _D3DXLoadSurfaceFromResourceA@36 00547f2c f   d3dx8:d3dx8tex.obj
 0001:00146f80       _D3DXLoadSurfaceFromResourceW@36 00547f80 f   d3dx8:d3dx8tex.obj
 0001:00146fd4       _D3DXCreateTextureFromFileInMemoryEx@60 00547fd4 f   d3dx8:d3dx8tex.obj
 0001:001473e5       _D3DXCreateCubeTextureFromFileInMemoryEx@56 005483e5 f   d3dx8:d3dx8tex.obj
 0001:00147827       _D3DXCreateTextureFromFileExA@56 00548827 f   d3dx8:d3dx8tex.obj
 0001:0014788a       _D3DXCreateTextureFromFileExW@56 0054888a f   d3dx8:d3dx8tex.obj
 0001:001478ed       _D3DXCreateTextureFromResourceExA@60 005488ed f   d3dx8:d3dx8tex.obj
 0001:00147953       _D3DXCreateTextureFromResourceExW@60 00548953 f   d3dx8:d3dx8tex.obj
 0001:001479b9       _D3DXCreateTextureFromFileInMemory@16 005489b9 f   d3dx8:d3dx8tex.obj
 0001:001479e2       _D3DXCreateCubeTextureFromFileExA@52 005489e2 f   d3dx8:d3dx8tex.obj
 0001:00147a42       _D3DXCreateCubeTextureFromFileExW@52 00548a42 f   d3dx8:d3dx8tex.obj
 0001:00147aa2       _D3DXCreateCubeTextureFromFileInMemory@16 00548aa2 f   d3dx8:d3dx8tex.obj
 0001:00147aca       _D3DXCreateTextureFromFileA@12 00548aca f   d3dx8:d3dx8tex.obj
 0001:00147aef       _D3DXCreateTextureFromFileW@12 00548aef f   d3dx8:d3dx8tex.obj
 0001:00147b14       _D3DXCreateTextureFromResourceA@16 00548b14 f   d3dx8:d3dx8tex.obj
 0001:00147b3d       _D3DXCreateTextureFromResourceW@16 00548b3d f   d3dx8:d3dx8tex.obj
 0001:00147b66       _D3DXCreateCubeTextureFromFileA@12 00548b66 f   d3dx8:d3dx8tex.obj
 0001:00147b8a       _D3DXCreateCubeTextureFromFileW@12 00548b8a f   d3dx8:d3dx8tex.obj
 0001:00147bae       ??0CD3DXBlt@@QAE@XZ        00548bae f   d3dx8:cd3dxblt.obj
 0001:00147bb8       ??1CD3DXBlt@@QAE@XZ        00548bb8 f   d3dx8:cd3dxblt.obj
 0001:00147bd6       _floorf                    00548bd6 f i d3dx8:cd3dxblt.obj
 0001:00147be7       ??0D3DXCOLOR@@QAE@XZ       00548be7 f i d3dx8:cd3dxblt.obj
 0001:00147bea       ??1TF_Row@@QAE@XZ          00548bea f i d3dx8:cd3dxblt.obj
 0001:00147c0c       ??_GTF_Row@@QAEPAXI@Z      00548c0c f i d3dx8:cd3dxblt.obj
 0001:00147ec9       ?BltTriangle2D@CD3DXBlt@@IAEJXZ 00548ec9 f   d3dx8:cd3dxblt.obj
 0001:0014827f       ?BltTriangle3D@CD3DXBlt@@IAEJXZ 0054927f f   d3dx8:cd3dxblt.obj
 0001:00148756       ??0D3DXCOLOR@@QAE@MMMM@Z   00549756 f i d3dx8:cd3dxblt.obj
 0001:00148776       ??HD3DXCOLOR@@QBE?AU0@ABU0@@Z 00549776 f i d3dx8:cd3dxblt.obj
 0001:001487a2       ??DD3DXCOLOR@@QBE?AU0@M@Z  005497a2 f i d3dx8:cd3dxblt.obj
 0001:001487ce       ?BltSame_DXTn@CD3DXBlt@@IAEJXZ 005497ce f   d3dx8:cd3dxblt.obj
 0001:0014894f       ?BltBox2D_R8G8B8@CD3DXBlt@@IAEJXZ 0054994f f   d3dx8:cd3dxblt.obj
 0001:00148955       ?BltBox2D_A8R8G8B8@CD3DXBlt@@IAEJXZ 00549955 f   d3dx8:cd3dxblt.obj
 0001:00148ab3       ?BltBox2D_X8R8G8B8@CD3DXBlt@@IAEJXZ 00549ab3 f   d3dx8:cd3dxblt.obj
 0001:00148bcf       ?BltBox2D_R5G6B5@CD3DXBlt@@IAEJXZ 00549bcf f   d3dx8:cd3dxblt.obj
 0001:00148d1f       ?BltBox2D_X1R5G5B5@CD3DXBlt@@IAEJXZ 00549d1f f   d3dx8:cd3dxblt.obj
 0001:00148e43       ?BltBox2D_A1R5G5B5@CD3DXBlt@@IAEJXZ 00549e43 f   d3dx8:cd3dxblt.obj
 0001:00148f92       ?BltBox2D_A4R4G4B4@CD3DXBlt@@IAEJXZ 00549f92 f   d3dx8:cd3dxblt.obj
 0001:001490e5       ?BltBox2D_R3G3B2@CD3DXBlt@@IAEJXZ 0054a0e5 f   d3dx8:cd3dxblt.obj
 0001:00149224       ?BltBox2D_A8@CD3DXBlt@@IAEJXZ 0054a224 f   d3dx8:cd3dxblt.obj
 0001:001492bf       ?BltBox2D_A8R3G3B2@CD3DXBlt@@IAEJXZ 0054a2bf f   d3dx8:cd3dxblt.obj
 0001:0014940b       ?BltBox2D_X4R4G4B4@CD3DXBlt@@IAEJXZ 0054a40b f   d3dx8:cd3dxblt.obj
 0001:0014952c       ?BltBox2D_A8P8@CD3DXBlt@@IAEJXZ 0054a52c f   d3dx8:cd3dxblt.obj
 0001:00149532       ?BltBox2D_P8@CD3DXBlt@@IAEJXZ 0054a532 f   d3dx8:cd3dxblt.obj
 0001:00149538       ?BltBox2D_A8L8@CD3DXBlt@@IAEJXZ 0054a538 f   d3dx8:cd3dxblt.obj
 0001:00149684       ?BltBox2D_A4L4@CD3DXBlt@@IAEJXZ 0054a684 f   d3dx8:cd3dxblt.obj
 0001:00149805       ?BltSame@CD3DXBlt@@IAEJXZ  0054a805 f   d3dx8:cd3dxblt.obj
 0001:00149937       ?BltCopy@CD3DXBlt@@IAEJXZ  0054a937 f   d3dx8:cd3dxblt.obj
 0001:001499d9       ?BltNone@CD3DXBlt@@IAEJXZ  0054a9d9 f   d3dx8:cd3dxblt.obj
 0001:00149b4e       ?BltPoint@CD3DXBlt@@IAEJXZ 0054ab4e f   d3dx8:cd3dxblt.obj
 0001:00149ce4       ?BltBox2D@CD3DXBlt@@IAEJXZ 0054ace4 f   d3dx8:cd3dxblt.obj
 0001:0014a079       ?BltBox3D@CD3DXBlt@@IAEJXZ 0054b079 f   d3dx8:cd3dxblt.obj
 0001:0014a4f3       ?BltLinear2D@CD3DXBlt@@IAEJXZ 0054b4f3 f   d3dx8:cd3dxblt.obj
 0001:0014a834       ?BltLinear3D@CD3DXBlt@@IAEJXZ 0054b834 f   d3dx8:cd3dxblt.obj
 0001:0014ae81       ?Blt@CD3DXBlt@@QAEJPAUD3DX_BLT@@0K@Z 0054be81 f   d3dx8:cd3dxblt.obj
 0001:0014af93       ??0CD3DXImage@@QAE@XZ      0054bf93 f   d3dx8:cd3dximage.obj
 0001:0014afac       ??1CD3DXImage@@QAE@XZ      0054bfac f   d3dx8:cd3dximage.obj
 0001:0014b005       ??_GCD3DXImage@@QAEPAXI@Z  0054c005 f i d3dx8:cd3dximage.obj
 0001:0014b021       ?LoadDIB@CD3DXImage@@AAEJPBXK@Z 0054c021 f   d3dx8:cd3dximage.obj
 0001:0014b6be       ?LoadJPG@CD3DXImage@@AAEJPBXK@Z 0054c6be f   d3dx8:cd3dximage.obj
 0001:0014b913       ?LoadTGA@CD3DXImage@@AAEJPBXK@Z 0054c913 f   d3dx8:cd3dximage.obj
 0001:0014bd8b       ?LoadPPM@CD3DXImage@@AAEJPBXK@Z 0054cd8b f   d3dx8:cd3dximage.obj
 0001:0014c05c       ?LoadPNG@CD3DXImage@@AAEJPBXK@Z 0054d05c f   d3dx8:cd3dximage.obj
 0001:0014c572       ?LoadDDS@CD3DXImage@@AAEJPBXK@Z 0054d572 f   d3dx8:cd3dximage.obj
 0001:0014c885       ?LoadBMP@CD3DXImage@@AAEJPBXK@Z 0054d885 f   d3dx8:cd3dximage.obj
 0001:0014c8b5       ?Load@CD3DXImage@@QAEJPBXKPAU_D3DXIMAGE_INFO@@@Z 0054d8b5 f   d3dx8:cd3dximage.obj
 0001:0014ca0f       ??0CD3DXResource@@QAE@XZ   0054da0f f   d3dx8:cd3dxresource.obj
 0001:0014ca1c       ??1CD3DXResource@@QAE@XZ   0054da1c f   d3dx8:cd3dxresource.obj
 0001:0014ca2a       ?Close@CD3DXResource@@QAEJXZ 0054da2a f   d3dx8:cd3dxresource.obj
 0001:0014ca49       ?Open@CD3DXResource@@QAEJPAUHINSTANCE__@@PBXH@Z 0054da49 f   d3dx8:cd3dxresource.obj
 0001:0014cac9       ??1CD3DXCodec@@UAE@XZ      0054dac9 f   d3dx8:cd3dxcodec.obj
 0001:0014cad0       ?Decode@CD3DXCodec@@UAEXIIPAUD3DXCOLOR@@@Z 0054dad0 f   d3dx8:cd3dxcodec.obj
 0001:0014cad3       ?Encode@CD3DXCodec@@UAEXIIPAUD3DXCOLOR@@@Z 0054dad3 f   d3dx8:cd3dxcodec.obj
 0001:0014cad6       ??0D3DXCOLOR@@QAE@K@Z      0054dad6 f i d3dx8:cd3dxcodec.obj
 0001:0014cb2c       ?Decode@CD3DXCodec_V8U8@@UAEXIIPAUD3DXCOLOR@@@Z 0054db2c f   d3dx8:cd3dxcodec.obj
 0001:0014cb95       ?Decode@CD3DXCodec_L6V5U5@@UAEXIIPAUD3DXCOLOR@@@Z 0054db95 f   d3dx8:cd3dxcodec.obj
 0001:0014cc2b       ?Decode@CD3DXCodec_X8L8V8U8@@UAEXIIPAUD3DXCOLOR@@@Z 0054dc2b f   d3dx8:cd3dxcodec.obj
 0001:0014cca3       ?Decode@CD3DXCodec_Q8W8V8U8@@UAEXIIPAUD3DXCOLOR@@@Z 0054dca3 f   d3dx8:cd3dxcodec.obj
 0001:0014cd21       ?Decode@CD3DXCodec_V16U16@@UAEXIIPAUD3DXCOLOR@@@Z 0054dd21 f   d3dx8:cd3dxcodec.obj
 0001:0014cd8b       ?Decode@CD3DXCodec_W11V11U10@@UAEXIIPAUD3DXCOLOR@@@Z 0054dd8b f   d3dx8:cd3dxcodec.obj
 0001:0014ce2a       ??GD3DXCOLOR@@QBE?AU0@ABU0@@Z 0054de2a f i d3dx8:cd3dxcodec.obj
 0001:0014ce56       ??8D3DXCOLOR@@QBEHABU0@@Z  0054de56 f i d3dx8:cd3dxcodec.obj
 0001:0014ced8       ??0CD3DXCodec@@IAE@PAUD3DX_BLT@@IK@Z 0054ded8 f   d3dx8:cd3dxcodec.obj
 0001:0014d0c1       ??_ECD3DXCodec@@UAEPAXI@Z  0054e0c1 f i d3dx8:cd3dxcodec.obj
 0001:0014d0c1       ??_GCD3DXCodec@@UAEPAXI@Z  0054e0c1 f i d3dx8:cd3dxcodec.obj
 0001:0014d0dd       ?ColorKey@CD3DXCodec@@IAEXPAUD3DXCOLOR@@@Z 0054e0dd f   d3dx8:cd3dxcodec.obj
 0001:0014d14d       ?Encode@CD3DXCodec_R8G8B8@@UAEXIIPAUD3DXCOLOR@@@Z 0054e14d f   d3dx8:cd3dxcodec.obj
 0001:0014d20e       ?Encode@CD3DXCodec_A8R8G8B8@@UAEXIIPAUD3DXCOLOR@@@Z 0054e20e f   d3dx8:cd3dxcodec.obj
 0001:0014d307       ?Encode@CD3DXCodec_X8R8G8B8@@UAEXIIPAUD3DXCOLOR@@@Z 0054e307 f   d3dx8:cd3dxcodec.obj
 0001:0014d3de       ?Encode@CD3DXCodec_R5G6B5@@UAEXIIPAUD3DXCOLOR@@@Z 0054e3de f   d3dx8:cd3dxcodec.obj
 0001:0014d4b5       ?Encode@CD3DXCodec_X1R5G5B5@@UAEXIIPAUD3DXCOLOR@@@Z 0054e4b5 f   d3dx8:cd3dxcodec.obj
 0001:0014d58c       ?Encode@CD3DXCodec_A1R5G5B5@@UAEXIIPAUD3DXCOLOR@@@Z 0054e58c f   d3dx8:cd3dxcodec.obj
 0001:0014d67f       ?Encode@CD3DXCodec_A4R4G4B4@@UAEXIIPAUD3DXCOLOR@@@Z 0054e67f f   d3dx8:cd3dxcodec.obj
 0001:0014d778       ?Encode@CD3DXCodec_R3G3B2@@UAEXIIPAUD3DXCOLOR@@@Z 0054e778 f   d3dx8:cd3dxcodec.obj
 0001:0014d849       ?Encode@CD3DXCodec_A8@@UAEXIIPAUD3DXCOLOR@@@Z 0054e849 f   d3dx8:cd3dxcodec.obj
 0001:0014d8cb       ?Encode@CD3DXCodec_A8R3G3B2@@UAEXIIPAUD3DXCOLOR@@@Z 0054e8cb f   d3dx8:cd3dxcodec.obj
 0001:0014d9c4       ?Encode@CD3DXCodec_X4R4G4B4@@UAEXIIPAUD3DXCOLOR@@@Z 0054e9c4 f   d3dx8:cd3dxcodec.obj
 0001:0014da9b       ?Encode@CD3DXCodec_A8P8@@UAEXIIPAUD3DXCOLOR@@@Z 0054ea9b f   d3dx8:cd3dxcodec.obj
 0001:0014db98       ?Encode@CD3DXCodec_P8@@UAEXIIPAUD3DXCOLOR@@@Z 0054eb98 f   d3dx8:cd3dxcodec.obj
 0001:0014dc52       ?Encode@CD3DXCodec_L8@@UAEXIIPAUD3DXCOLOR@@@Z 0054ec52 f   d3dx8:cd3dxcodec.obj
 0001:0014dcf0       ?Encode@CD3DXCodec_A8L8@@UAEXIIPAUD3DXCOLOR@@@Z 0054ecf0 f   d3dx8:cd3dxcodec.obj
 0001:0014ddc0       ?Encode@CD3DXCodec_A4L4@@UAEXIIPAUD3DXCOLOR@@@Z 0054edc0 f   d3dx8:cd3dxcodec.obj
 0001:0014de88       ?Encode@CD3DXCodec_V8U8@@UAEXIIPAUD3DXCOLOR@@@Z 0054ee88 f   d3dx8:cd3dxcodec.obj
 0001:0014df38       ?Encode@CD3DXCodec_L6V5U5@@UAEXIIPAUD3DXCOLOR@@@Z 0054ef38 f   d3dx8:cd3dxcodec.obj
 0001:0014e017       ?Encode@CD3DXCodec_X8L8V8U8@@UAEXIIPAUD3DXCOLOR@@@Z 0054f017 f   d3dx8:cd3dxcodec.obj
 0001:0014e0fe       ?Encode@CD3DXCodec_Q8W8V8U8@@UAEXIIPAUD3DXCOLOR@@@Z 0054f0fe f   d3dx8:cd3dxcodec.obj
 0001:0014e20f       ?Encode@CD3DXCodec_V16U16@@UAEXIIPAUD3DXCOLOR@@@Z 0054f20f f   d3dx8:cd3dxcodec.obj
 0001:0014e2c0       ?Encode@CD3DXCodec_W11V11U10@@UAEXIIPAUD3DXCOLOR@@@Z 0054f2c0 f   d3dx8:cd3dxcodec.obj
 0001:0014e3ac       ?Decode@CD3DXCodec_R8G8B8@@UAEXIIPAUD3DXCOLOR@@@Z 0054f3ac f   d3dx8:cd3dxcodec.obj
 0001:0014e438       ?Decode@CD3DXCodec_A8R8G8B8@@UAEXIIPAUD3DXCOLOR@@@Z 0054f438 f   d3dx8:cd3dxcodec.obj
 0001:0014e4da       ?Decode@CD3DXCodec_X8R8G8B8@@UAEXIIPAUD3DXCOLOR@@@Z 0054f4da f   d3dx8:cd3dxcodec.obj
 0001:0014e572       ?Decode@CD3DXCodec_R5G6B5@@UAEXIIPAUD3DXCOLOR@@@Z 0054f572 f   d3dx8:cd3dxcodec.obj
 0001:0014e617       ?Decode@CD3DXCodec_X1R5G5B5@@UAEXIIPAUD3DXCOLOR@@@Z 0054f617 f   d3dx8:cd3dxcodec.obj
 0001:0014e6b9       ?Decode@CD3DXCodec_A1R5G5B5@@UAEXIIPAUD3DXCOLOR@@@Z 0054f6b9 f   d3dx8:cd3dxcodec.obj
 0001:0014e769       ?Decode@CD3DXCodec_A4R4G4B4@@UAEXIIPAUD3DXCOLOR@@@Z 0054f769 f   d3dx8:cd3dxcodec.obj
 0001:0014e818       ?Decode@CD3DXCodec_R3G3B2@@UAEXIIPAUD3DXCOLOR@@@Z 0054f818 f   d3dx8:cd3dxcodec.obj
 0001:0014e8ba       ?Decode@CD3DXCodec_A8@@UAEXIIPAUD3DXCOLOR@@@Z 0054f8ba f   d3dx8:cd3dxcodec.obj
 0001:0014e92c       ?Decode@CD3DXCodec_A8R3G3B2@@UAEXIIPAUD3DXCOLOR@@@Z 0054f92c f   d3dx8:cd3dxcodec.obj
 0001:0014e9de       ?Decode@CD3DXCodec_X4R4G4B4@@UAEXIIPAUD3DXCOLOR@@@Z 0054f9de f   d3dx8:cd3dxcodec.obj
 0001:0014ea7d       ?Decode@CD3DXCodec_A8P8@@UAEXIIPAUD3DXCOLOR@@@Z 0054fa7d f   d3dx8:cd3dxcodec.obj
 0001:0014eb04       ?Decode@CD3DXCodec_P8@@UAEXIIPAUD3DXCOLOR@@@Z 0054fb04 f   d3dx8:cd3dxcodec.obj
 0001:0014eb68       ?Decode@CD3DXCodec_L8@@UAEXIIPAUD3DXCOLOR@@@Z 0054fb68 f   d3dx8:cd3dxcodec.obj
 0001:0014ebd6       ?Decode@CD3DXCodec_A8L8@@UAEXIIPAUD3DXCOLOR@@@Z 0054fbd6 f   d3dx8:cd3dxcodec.obj
 0001:0014ec5f       ?Decode@CD3DXCodec_A4L4@@UAEXIIPAUD3DXCOLOR@@@Z 0054fc5f f   d3dx8:cd3dxcodec.obj
 0001:0014ece8       ??0CD3DXCodecYUV@@QAE@PAUD3DX_BLT@@@Z 0054fce8 f   d3dx8:cd3dxcodec.obj
 0001:0014edb9       ?Commit@CD3DXCodecYUV@@QAEJXZ 0054fdb9 f   d3dx8:cd3dxcodec.obj
 0001:0014efac       ?Fetch@CD3DXCodecYUV@@QAEJIIH@Z 0054ffac f   d3dx8:cd3dxcodec.obj
 0001:0014f27d       ?Encode@CD3DXCodecYUV@@UAEXIIPAUD3DXCOLOR@@@Z 0055027d f   d3dx8:cd3dxcodec.obj
 0001:0014f2f5       ?Decode@CD3DXCodecYUV@@UAEXIIPAUD3DXCOLOR@@@Z 005502f5 f   d3dx8:cd3dxcodec.obj
 0001:0014f364       ??0CD3DXCodecDXT@@QAE@PAUD3DX_BLT@@@Z 00550364 f   d3dx8:cd3dxcodec.obj
 0001:0014f47b       ?Commit@CD3DXCodecDXT@@QAEJXZ 0055047b f   d3dx8:cd3dxcodec.obj
 0001:0014f7a8       ?Fetch@CD3DXCodecDXT@@QAEJIIH@Z 005507a8 f   d3dx8:cd3dxcodec.obj
 0001:0014fa4f       ??0CD3DXCodec_R8G8B8@@QAE@PAUD3DX_BLT@@@Z 00550a4f f i d3dx8:cd3dxcodec.obj
 0001:0014fa6b       ??_GCD3DXCodec_R8G8B8@@UAEPAXI@Z 00550a6b f i d3dx8:cd3dxcodec.obj
 0001:0014fa6b       ??_ECD3DXCodec_R8G8B8@@UAEPAXI@Z 00550a6b f i d3dx8:cd3dxcodec.obj
 0001:0014fa87       ??1CD3DXCodec_R8G8B8@@UAE@XZ 00550a87 f i d3dx8:cd3dxcodec.obj
 0001:0014fa8c       ?Encode@CD3DXCodecDXT@@UAEXIIPAUD3DXCOLOR@@@Z 00550a8c f   d3dx8:cd3dxcodec.obj
 0001:0014fb12       ??0CD3DXCodec_A8R8G8B8@@QAE@PAUD3DX_BLT@@@Z 00550b12 f i d3dx8:cd3dxcodec.obj
 0001:0014fb2e       ??_GCD3DXCodec_A8R8G8B8@@UAEPAXI@Z 00550b2e f i d3dx8:cd3dxcodec.obj
 0001:0014fb2e       ??_ECD3DXCodec_A8R8G8B8@@UAEPAXI@Z 00550b2e f i d3dx8:cd3dxcodec.obj
 0001:0014fb4a       ??1CD3DXCodec_A8R8G8B8@@UAE@XZ 00550b4a f i d3dx8:cd3dxcodec.obj
 0001:0014fb4f       ?Decode@CD3DXCodecDXT@@UAEXIIPAUD3DXCOLOR@@@Z 00550b4f f   d3dx8:cd3dxcodec.obj
 0001:0014fbc3       ??0CD3DXCodec_X8R8G8B8@@QAE@PAUD3DX_BLT@@@Z 00550bc3 f i d3dx8:cd3dxcodec.obj
 0001:0014fbdf       ??_ECD3DXCodec_X8R8G8B8@@UAEPAXI@Z 00550bdf f i d3dx8:cd3dxcodec.obj
 0001:0014fbdf       ??_GCD3DXCodec_X8R8G8B8@@UAEPAXI@Z 00550bdf f i d3dx8:cd3dxcodec.obj
 0001:0014fbfb       ??1CD3DXCodec_X8R8G8B8@@UAE@XZ 00550bfb f i d3dx8:cd3dxcodec.obj
 0001:0014fc00       ??0CD3DXCodec_R5G6B5@@QAE@PAUD3DX_BLT@@@Z 00550c00 f i d3dx8:cd3dxcodec.obj
 0001:0014fc1c       ??_GCD3DXCodec_R5G6B5@@UAEPAXI@Z 00550c1c f i d3dx8:cd3dxcodec.obj
 0001:0014fc1c       ??_ECD3DXCodec_R5G6B5@@UAEPAXI@Z 00550c1c f i d3dx8:cd3dxcodec.obj
 0001:0014fc38       ??1CD3DXCodec_R5G6B5@@UAE@XZ 00550c38 f i d3dx8:cd3dxcodec.obj
 0001:0014fc3d       ??0CD3DXCodec_X1R5G5B5@@QAE@PAUD3DX_BLT@@@Z 00550c3d f i d3dx8:cd3dxcodec.obj
 0001:0014fc59       ??_GCD3DXCodec_X1R5G5B5@@UAEPAXI@Z 00550c59 f i d3dx8:cd3dxcodec.obj
 0001:0014fc59       ??_ECD3DXCodec_X1R5G5B5@@UAEPAXI@Z 00550c59 f i d3dx8:cd3dxcodec.obj
 0001:0014fc75       ??1CD3DXCodec_X1R5G5B5@@UAE@XZ 00550c75 f i d3dx8:cd3dxcodec.obj
 0001:0014fc7a       ??0CD3DXCodec_A1R5G5B5@@QAE@PAUD3DX_BLT@@@Z 00550c7a f i d3dx8:cd3dxcodec.obj
 0001:0014fc96       ??_ECD3DXCodec_A1R5G5B5@@UAEPAXI@Z 00550c96 f i d3dx8:cd3dxcodec.obj
 0001:0014fc96       ??_GCD3DXCodec_A1R5G5B5@@UAEPAXI@Z 00550c96 f i d3dx8:cd3dxcodec.obj
 0001:0014fcb2       ??1CD3DXCodec_A1R5G5B5@@UAE@XZ 00550cb2 f i d3dx8:cd3dxcodec.obj
 0001:0014fcb7       ??0CD3DXCodec_A4R4G4B4@@QAE@PAUD3DX_BLT@@@Z 00550cb7 f i d3dx8:cd3dxcodec.obj
 0001:0014fcd3       ??_GCD3DXCodec_A4R4G4B4@@UAEPAXI@Z 00550cd3 f i d3dx8:cd3dxcodec.obj
 0001:0014fcd3       ??_ECD3DXCodec_A4R4G4B4@@UAEPAXI@Z 00550cd3 f i d3dx8:cd3dxcodec.obj
 0001:0014fcef       ??1CD3DXCodec_A4R4G4B4@@UAE@XZ 00550cef f i d3dx8:cd3dxcodec.obj
 0001:0014fcf4       ??0CD3DXCodec_R3G3B2@@QAE@PAUD3DX_BLT@@@Z 00550cf4 f i d3dx8:cd3dxcodec.obj
 0001:0014fd10       ??_GCD3DXCodec_R3G3B2@@UAEPAXI@Z 00550d10 f i d3dx8:cd3dxcodec.obj
 0001:0014fd10       ??_ECD3DXCodec_R3G3B2@@UAEPAXI@Z 00550d10 f i d3dx8:cd3dxcodec.obj
 0001:0014fd2c       ??1CD3DXCodec_R3G3B2@@UAE@XZ 00550d2c f i d3dx8:cd3dxcodec.obj
 0001:0014fd31       ??0CD3DXCodec_A8@@QAE@PAUD3DX_BLT@@@Z 00550d31 f i d3dx8:cd3dxcodec.obj
 0001:0014fd4d       ??_ECD3DXCodec_A8@@UAEPAXI@Z 00550d4d f i d3dx8:cd3dxcodec.obj
 0001:0014fd4d       ??_GCD3DXCodec_A8@@UAEPAXI@Z 00550d4d f i d3dx8:cd3dxcodec.obj
 0001:0014fd69       ??1CD3DXCodec_A8@@UAE@XZ   00550d69 f i d3dx8:cd3dxcodec.obj
 0001:0014fd6e       ??0CD3DXCodec_A8R3G3B2@@QAE@PAUD3DX_BLT@@@Z 00550d6e f i d3dx8:cd3dxcodec.obj
 0001:0014fd8a       ??_ECD3DXCodec_A8R3G3B2@@UAEPAXI@Z 00550d8a f i d3dx8:cd3dxcodec.obj
 0001:0014fd8a       ??_GCD3DXCodec_A8R3G3B2@@UAEPAXI@Z 00550d8a f i d3dx8:cd3dxcodec.obj
 0001:0014fda6       ??1CD3DXCodec_A8R3G3B2@@UAE@XZ 00550da6 f i d3dx8:cd3dxcodec.obj
 0001:0014fdab       ??0CD3DXCodec_X4R4G4B4@@QAE@PAUD3DX_BLT@@@Z 00550dab f i d3dx8:cd3dxcodec.obj
 0001:0014fdc7       ??_ECD3DXCodec_X4R4G4B4@@UAEPAXI@Z 00550dc7 f i d3dx8:cd3dxcodec.obj
 0001:0014fdc7       ??_GCD3DXCodec_X4R4G4B4@@UAEPAXI@Z 00550dc7 f i d3dx8:cd3dxcodec.obj
 0001:0014fde3       ??1CD3DXCodec_X4R4G4B4@@UAE@XZ 00550de3 f i d3dx8:cd3dxcodec.obj
 0001:0014fde8       ??0CD3DXCodec_A8P8@@QAE@PAUD3DX_BLT@@@Z 00550de8 f i d3dx8:cd3dxcodec.obj
 0001:0014fe04       ??_GCD3DXCodec_A8P8@@UAEPAXI@Z 00550e04 f i d3dx8:cd3dxcodec.obj
 0001:0014fe04       ??_ECD3DXCodec_A8P8@@UAEPAXI@Z 00550e04 f i d3dx8:cd3dxcodec.obj
 0001:0014fe20       ??1CD3DXCodec_A8P8@@UAE@XZ 00550e20 f i d3dx8:cd3dxcodec.obj
 0001:0014fe25       ??0CD3DXCodec_P8@@QAE@PAUD3DX_BLT@@@Z 00550e25 f i d3dx8:cd3dxcodec.obj
 0001:0014fe41       ??_ECD3DXCodec_P8@@UAEPAXI@Z 00550e41 f i d3dx8:cd3dxcodec.obj
 0001:0014fe41       ??_GCD3DXCodec_P8@@UAEPAXI@Z 00550e41 f i d3dx8:cd3dxcodec.obj
 0001:0014fe5d       ??1CD3DXCodec_P8@@UAE@XZ   00550e5d f i d3dx8:cd3dxcodec.obj
 0001:0014fe62       ??0CD3DXCodec_L8@@QAE@PAUD3DX_BLT@@@Z 00550e62 f i d3dx8:cd3dxcodec.obj
 0001:0014fe7e       ??_ECD3DXCodec_L8@@UAEPAXI@Z 00550e7e f i d3dx8:cd3dxcodec.obj
 0001:0014fe7e       ??_GCD3DXCodec_L8@@UAEPAXI@Z 00550e7e f i d3dx8:cd3dxcodec.obj
 0001:0014fe9a       ??1CD3DXCodec_L8@@UAE@XZ   00550e9a f i d3dx8:cd3dxcodec.obj
 0001:0014fe9f       ??0CD3DXCodec_A8L8@@QAE@PAUD3DX_BLT@@@Z 00550e9f f i d3dx8:cd3dxcodec.obj
 0001:0014febb       ??_ECD3DXCodec_A8L8@@UAEPAXI@Z 00550ebb f i d3dx8:cd3dxcodec.obj
 0001:0014febb       ??_GCD3DXCodec_A8L8@@UAEPAXI@Z 00550ebb f i d3dx8:cd3dxcodec.obj
 0001:0014fed7       ??1CD3DXCodec_A8L8@@UAE@XZ 00550ed7 f i d3dx8:cd3dxcodec.obj
 0001:0014fedc       ??0CD3DXCodec_A4L4@@QAE@PAUD3DX_BLT@@@Z 00550edc f i d3dx8:cd3dxcodec.obj
 0001:0014fef8       ??_GCD3DXCodec_A4L4@@UAEPAXI@Z 00550ef8 f i d3dx8:cd3dxcodec.obj
 0001:0014fef8       ??_ECD3DXCodec_A4L4@@UAEPAXI@Z 00550ef8 f i d3dx8:cd3dxcodec.obj
 0001:0014ff14       ??1CD3DXCodec_A4L4@@UAE@XZ 00550f14 f i d3dx8:cd3dxcodec.obj
 0001:0014ff19       ??0CD3DXCodec_V8U8@@QAE@PAUD3DX_BLT@@@Z 00550f19 f i d3dx8:cd3dxcodec.obj
 0001:0014ff35       ??_ECD3DXCodec_V8U8@@UAEPAXI@Z 00550f35 f i d3dx8:cd3dxcodec.obj
 0001:0014ff35       ??_GCD3DXCodec_V8U8@@UAEPAXI@Z 00550f35 f i d3dx8:cd3dxcodec.obj
 0001:0014ff51       ??1CD3DXCodec_V8U8@@UAE@XZ 00550f51 f i d3dx8:cd3dxcodec.obj
 0001:0014ff56       ??0CD3DXCodec_L6V5U5@@QAE@PAUD3DX_BLT@@@Z 00550f56 f i d3dx8:cd3dxcodec.obj
 0001:0014ff72       ??_GCD3DXCodec_L6V5U5@@UAEPAXI@Z 00550f72 f i d3dx8:cd3dxcodec.obj
 0001:0014ff72       ??_ECD3DXCodec_L6V5U5@@UAEPAXI@Z 00550f72 f i d3dx8:cd3dxcodec.obj
 0001:0014ff8e       ??1CD3DXCodec_L6V5U5@@UAE@XZ 00550f8e f i d3dx8:cd3dxcodec.obj
 0001:0014ff93       ??0CD3DXCodec_X8L8V8U8@@QAE@PAUD3DX_BLT@@@Z 00550f93 f i d3dx8:cd3dxcodec.obj
 0001:0014ffaf       ??_GCD3DXCodec_X8L8V8U8@@UAEPAXI@Z 00550faf f i d3dx8:cd3dxcodec.obj
 0001:0014ffaf       ??_ECD3DXCodec_X8L8V8U8@@UAEPAXI@Z 00550faf f i d3dx8:cd3dxcodec.obj
 0001:0014ffcb       ??1CD3DXCodec_X8L8V8U8@@UAE@XZ 00550fcb f i d3dx8:cd3dxcodec.obj
 0001:0014ffd0       ??0CD3DXCodec_Q8W8V8U8@@QAE@PAUD3DX_BLT@@@Z 00550fd0 f i d3dx8:cd3dxcodec.obj
 0001:0014ffec       ??_GCD3DXCodec_Q8W8V8U8@@UAEPAXI@Z 00550fec f i d3dx8:cd3dxcodec.obj
 0001:0014ffec       ??_ECD3DXCodec_Q8W8V8U8@@UAEPAXI@Z 00550fec f i d3dx8:cd3dxcodec.obj
 0001:00150008       ??1CD3DXCodec_Q8W8V8U8@@UAE@XZ 00551008 f i d3dx8:cd3dxcodec.obj
 0001:0015000d       ??0CD3DXCodec_V16U16@@QAE@PAUD3DX_BLT@@@Z 0055100d f i d3dx8:cd3dxcodec.obj
 0001:00150029       ??_GCD3DXCodec_V16U16@@UAEPAXI@Z 00551029 f i d3dx8:cd3dxcodec.obj
 0001:00150029       ??_ECD3DXCodec_V16U16@@UAEPAXI@Z 00551029 f i d3dx8:cd3dxcodec.obj
 0001:00150045       ??1CD3DXCodec_V16U16@@UAE@XZ 00551045 f i d3dx8:cd3dxcodec.obj
 0001:0015004a       ??0CD3DXCodec_W11V11U10@@QAE@PAUD3DX_BLT@@@Z 0055104a f i d3dx8:cd3dxcodec.obj
 0001:00150066       ??_ECD3DXCodec_W11V11U10@@UAEPAXI@Z 00551066 f i d3dx8:cd3dxcodec.obj
 0001:00150066       ??_GCD3DXCodec_W11V11U10@@UAEPAXI@Z 00551066 f i d3dx8:cd3dxcodec.obj
 0001:00150082       ??1CD3DXCodec_W11V11U10@@UAE@XZ 00551082 f i d3dx8:cd3dxcodec.obj
 0001:00150087       ??1CD3DXCodecYUV@@UAE@XZ   00551087 f   d3dx8:cd3dxcodec.obj
 0001:001500cc       ??1CD3DXCodecDXT@@UAE@XZ   005510cc f   d3dx8:cd3dxcodec.obj
 0001:00150120       ??0CD3DXCodec_UYVY@@QAE@PAUD3DX_BLT@@@Z 00551120 f i d3dx8:cd3dxcodec.obj
 0001:00150138       ??0CD3DXCodec_YUY2@@QAE@PAUD3DX_BLT@@@Z 00551138 f i d3dx8:cd3dxcodec.obj
 0001:00150150       ??0CD3DXCodec_DXT1@@QAE@PAUD3DX_BLT@@@Z 00551150 f i d3dx8:cd3dxcodec.obj
 0001:00150168       ??0CD3DXCodec_DXT2@@QAE@PAUD3DX_BLT@@@Z 00551168 f i d3dx8:cd3dxcodec.obj
 0001:00150180       ??0CD3DXCodec_DXT3@@QAE@PAUD3DX_BLT@@@Z 00551180 f i d3dx8:cd3dxcodec.obj
 0001:00150198       ??0CD3DXCodec_DXT4@@QAE@PAUD3DX_BLT@@@Z 00551198 f i d3dx8:cd3dxcodec.obj
 0001:001501b0       ??0CD3DXCodec_DXT5@@QAE@PAUD3DX_BLT@@@Z 005511b0 f i d3dx8:cd3dxcodec.obj
 0001:001501c8       ?Create@CD3DXCodec@@SAPAV1@PAUD3DX_BLT@@@Z 005511c8 f   d3dx8:cd3dxcodec.obj
 0001:001507d8       ??_ECD3DXCodecYUV@@UAEPAXI@Z 005517d8 f i d3dx8:cd3dxcodec.obj
 0001:001507d8       ??_GCD3DXCodecYUV@@UAEPAXI@Z 005517d8 f i d3dx8:cd3dxcodec.obj
 0001:001507f4       ??_GCD3DXCodecDXT@@UAEPAXI@Z 005517f4 f i d3dx8:cd3dxcodec.obj
 0001:001507f4       ??_ECD3DXCodecDXT@@UAEPAXI@Z 005517f4 f i d3dx8:cd3dxcodec.obj
 0001:00150810       ??_ECD3DXCodec_UYVY@@UAEPAXI@Z 00551810 f i d3dx8:cd3dxcodec.obj
 0001:00150810       ??_GCD3DXCodec_UYVY@@UAEPAXI@Z 00551810 f i d3dx8:cd3dxcodec.obj
 0001:0015082c       ??1CD3DXCodec_UYVY@@UAE@XZ 0055182c f i d3dx8:cd3dxcodec.obj
 0001:00150831       ??_ECD3DXCodec_YUY2@@UAEPAXI@Z 00551831 f i d3dx8:cd3dxcodec.obj
 0001:00150831       ??_GCD3DXCodec_YUY2@@UAEPAXI@Z 00551831 f i d3dx8:cd3dxcodec.obj
 0001:0015084d       ??1CD3DXCodec_YUY2@@UAE@XZ 0055184d f i d3dx8:cd3dxcodec.obj
 0001:00150852       ??_ECD3DXCodec_DXT1@@UAEPAXI@Z 00551852 f i d3dx8:cd3dxcodec.obj
 0001:00150852       ??_GCD3DXCodec_DXT1@@UAEPAXI@Z 00551852 f i d3dx8:cd3dxcodec.obj
 0001:0015086e       ??1CD3DXCodec_DXT1@@UAE@XZ 0055186e f i d3dx8:cd3dxcodec.obj
 0001:00150873       ??_GCD3DXCodec_DXT2@@UAEPAXI@Z 00551873 f i d3dx8:cd3dxcodec.obj
 0001:00150873       ??_ECD3DXCodec_DXT2@@UAEPAXI@Z 00551873 f i d3dx8:cd3dxcodec.obj
 0001:0015088f       ??1CD3DXCodec_DXT2@@UAE@XZ 0055188f f i d3dx8:cd3dxcodec.obj
 0001:00150894       ??_GCD3DXCodec_DXT3@@UAEPAXI@Z 00551894 f i d3dx8:cd3dxcodec.obj
 0001:00150894       ??_ECD3DXCodec_DXT3@@UAEPAXI@Z 00551894 f i d3dx8:cd3dxcodec.obj
 0001:001508b0       ??1CD3DXCodec_DXT3@@UAE@XZ 005518b0 f i d3dx8:cd3dxcodec.obj
 0001:001508b5       ??_ECD3DXCodec_DXT4@@UAEPAXI@Z 005518b5 f i d3dx8:cd3dxcodec.obj
 0001:001508b5       ??_GCD3DXCodec_DXT4@@UAEPAXI@Z 005518b5 f i d3dx8:cd3dxcodec.obj
 0001:001508d1       ??1CD3DXCodec_DXT4@@UAE@XZ 005518d1 f i d3dx8:cd3dxcodec.obj
 0001:001508d6       ??_ECD3DXCodec_DXT5@@UAEPAXI@Z 005518d6 f i d3dx8:cd3dxcodec.obj
 0001:001508d6       ??_GCD3DXCodec_DXT5@@UAEPAXI@Z 005518d6 f i d3dx8:cd3dxcodec.obj
 0001:001508f2       ??1CD3DXCodec_DXT5@@UAE@XZ 005518f2 f i d3dx8:cd3dxcodec.obj
 0001:001508f7       _jpeg_CreateDecompress     005518f7 f   d3dx8:jdapimin.obj
 0001:001509b7       _jpeg_destroy_decompress   005519b7 f   d3dx8:jdapimin.obj
 0001:001509bc       _jpeg_abort_decompress     005519bc f   d3dx8:jdapimin.obj
 0001:001509c1       _jpeg_set_marker_processor 005519c1 f   d3dx8:jdapimin.obj
 0001:00150b9d       _jpeg_consume_input        00551b9d f   d3dx8:jdapimin.obj
 0001:00150c37       _jpeg_input_complete       00551c37 f   d3dx8:jdapimin.obj
 0001:00150c6f       _jpeg_has_multiple_scans   00551c6f f   d3dx8:jdapimin.obj
 0001:00150ca7       _jpeg_finish_decompress    00551ca7 f   d3dx8:jdapimin.obj
 0001:00150d48       _jpeg_read_header          00551d48 f   d3dx8:jdapimin.obj
 0001:00150e4f       _jpeg_read_scanlines       00551e4f f   d3dx8:jdapistd.obj
 0001:00150ed3       _jpeg_read_raw_data        00551ed3 f   d3dx8:jdapistd.obj
 0001:00150f72       _jpeg_start_output         00551f72 f   d3dx8:jdapistd.obj
 0001:00150fcc       _jpeg_finish_output        00551fcc f   d3dx8:jdapistd.obj
 0001:00151049       _jpeg_start_decompress     00552049 f   d3dx8:jdapistd.obj
 0001:001526c3       _jpeg_resync_to_restart    005536c3 f   d3dx8:jdmarker.obj
 0001:001527dc       ?jinit_marker_reader@D3DX@@YAXPAUjpeg_decompress_struct@1@@Z 005537dc f   d3dx8:jdmarker.obj
 0001:0015296a       _jpeg_std_error            0055396a f   d3dx8:jerror.obj
 0001:00152a49       _png_set_error_fn          00553a49 f   d3dx8:pngerror.obj
 0001:00152a63       _png_get_error_ptr         00553a63 f   d3dx8:pngerror.obj
 0001:00152a6b       _png_error                 00553a6b f   d3dx8:pngerror.obj
 0001:00152a8e       _png_warning               00553a8e f   d3dx8:pngerror.obj
 0001:00152aa3       _png_chunk_error           00553aa3 f   d3dx8:pngerror.obj
 0001:00152ac8       _png_chunk_warning         00553ac8 f   d3dx8:pngerror.obj
 0001:00152aed       _png_create_read_struct    00553aed f   d3dx8:pngread.obj
 0001:00152bf0       _png_read_init             00553bf0 f   d3dx8:pngread.obj
 0001:00152cb0       _png_read_info             00553cb0 f   d3dx8:pngread.obj
 0001:00152e24       _png_read_update_info      00553e24 f   d3dx8:pngread.obj
 0001:00152e44       _png_start_read_image      00553e44 f   d3dx8:pngread.obj
 0001:00152e56       _png_read_row              00553e56 f   d3dx8:pngread.obj
 0001:001531fe       _png_read_rows             005541fe f   d3dx8:pngread.obj
 0001:00153278       _png_read_image            00554278 f   d3dx8:pngread.obj
 0001:001532c5       _png_read_end              005542c5 f   d3dx8:pngread.obj
 0001:001533c5       _png_read_destroy          005543c5 f   d3dx8:pngread.obj
 0001:001534e8       _png_set_read_status_fn    005544e8 f   d3dx8:pngread.obj
 0001:001534f7       _png_destroy_read_struct   005544f7 f   d3dx8:pngread.obj
 0001:00153578       _png_get_valid             00554578 f   d3dx8:pngget.obj
 0001:00153592       _png_get_rowbytes          00554592 f   d3dx8:pngget.obj
 0001:001535a8       _png_get_channels          005545a8 f   d3dx8:pngget.obj
 0001:001535be       _png_get_signature         005545be f   d3dx8:pngget.obj
 0001:001535d4       _png_get_gAMA              005545d4 f   d3dx8:pngget.obj
 0001:001535fd       _png_get_sRGB              005545fd f   d3dx8:pngget.obj
 0001:00153628       _png_get_IHDR              00554628 f   d3dx8:pngget.obj
 0001:001536f9       _png_get_PLTE              005546f9 f   d3dx8:pngget.obj
 0001:0015372c       _png_get_tRNS              0055472c f   d3dx8:pngget.obj
 0001:00153793       _png_set_bgr               00554793 f   d3dx8:pngtrans.obj
 0001:0015379c       _png_set_packing           0055479c f   d3dx8:pngtrans.obj
 0001:001537b5       _png_set_shift             005547b5 f   d3dx8:pngtrans.obj
 0001:001537ce       _png_set_interlace_handling 005547ce f   d3dx8:pngtrans.obj
 0001:001537e7       _png_set_filler            005547e7 f   d3dx8:pngtrans.obj
 0001:00153834       _png_do_bgr                00554834 f   d3dx8:pngtrans.obj
 0001:001538f3       _png_set_crc_action        005548f3 f   d3dx8:pngrtran.obj
 0001:00153972       _png_set_strip_16          00554972 f   d3dx8:pngrtran.obj
 0001:0015397b       _png_set_dither            0055497b f   d3dx8:pngrtran.obj
 0001:00153fce       _png_set_gamma             00554fce f   d3dx8:pngrtran.obj
 0001:00154004       _png_set_expand            00555004 f   d3dx8:pngrtran.obj
 0001:0015400d       _png_set_palette_to_rgb    0055500d f   d3dx8:pngrtran.obj
 0001:00154016       _png_set_gray_1_2_4_to_8   00555016 f   d3dx8:pngrtran.obj
 0001:0015401f       _png_set_tRNS_to_alpha     0055501f f   d3dx8:pngrtran.obj
 0001:00154028       _png_read_transform_info   00555028 f   d3dx8:pngrtran.obj
 0001:00154113       _png_do_unpack             00555113 f   d3dx8:pngrtran.obj
 0001:00154222       _png_do_unshift            00555222 f   d3dx8:pngrtran.obj
 0001:0015439d       _png_do_chop               0055539d f   d3dx8:pngrtran.obj
 0001:001543e1       _png_do_read_filler        005553e1 f   d3dx8:pngrtran.obj
 0001:00154618       _png_build_grayscale_palette 00555618 f   d3dx8:pngrtran.obj
 0001:00154678       _png_do_gamma              00555678 f   d3dx8:pngrtran.obj
 0001:001549ea       _png_do_expand_palette     005559ea f   d3dx8:pngrtran.obj
 0001:00154bf1       _png_do_expand             00555bf1 f   d3dx8:pngrtran.obj
 0001:00154f44       _png_do_dither             00555f44 f   d3dx8:pngrtran.obj
 0001:00155051       _png_build_gamma_table     00556051 f   d3dx8:pngrtran.obj
 0001:00155350       _png_init_read_transformations 00556350 f   d3dx8:pngrtran.obj
 0001:00155465       _png_do_read_transformations 00556465 f   d3dx8:pngrtran.obj
 0001:00155601       _png_set_gAMA              00556601 f   d3dx8:pngset.obj
 0001:0015561c       _png_set_IHDR              0055661c f   d3dx8:pngset.obj
 0001:001556be       _png_set_PLTE              005566be f   d3dx8:pngset.obj
 0001:001556e2       _png_set_sRGB              005566e2 f   d3dx8:pngset.obj
 0001:001556fd       _png_set_sRGB_gAMA_and_cHRM 005566fd f   d3dx8:pngset.obj
 0001:00155736       _png_set_tRNS              00556736 f   d3dx8:pngset.obj
 0001:0015577d       _png_permit_empty_plte     0055677d f   d3dx8:pngset.obj
 0001:00155790       _png_read_data             00556790 f   d3dx8:pngrio.obj
 0001:001557b8       _png_set_read_fn           005567b8 f   d3dx8:pngrio.obj
 0001:001557f7       _png_get_header_version    005567f7 f   d3dx8:png.obj
 0001:001557fd       _png_set_sig_bytes         005567fd f   d3dx8:png.obj
 0001:0015582a       _png_sig_cmp               0055682a f   d3dx8:png.obj
 0001:00155872       _png_check_sig             00556872 f   d3dx8:png.obj
 0001:0015588a       _png_zalloc                0055688a f   d3dx8:png.obj
 0001:001558dd       _png_zfree                 005568dd f   d3dx8:png.obj
 0001:001558e2       _png_reset_crc             005568e2 f   d3dx8:png.obj
 0001:001558fa       _png_calculate_crc         005568fa f   d3dx8:png.obj
 0001:00155939       _png_info_init             00556939 f   d3dx8:png.obj
 0001:00155947       _png_info_destroy          00556947 f   d3dx8:png.obj
 0001:00155952       _png_get_io_ptr            00556952 f   d3dx8:png.obj
 0001:0015595a       _png_get_copyright         0055695a f   d3dx8:png.obj
 0001:00155960       ?png_check_version@D3DX@@YAXPAUpng_struct_def@1@@Z 00556960 f   d3dx8:png.obj
 0001:00155961       _png_create_info_struct    00556961 f   d3dx8:png.obj
 0001:00155983       _png_destroy_info_struct   00556983 f   d3dx8:png.obj
 0001:001559aa       ?XXEncodeBlockRGB@@YAXQAUS3TC_COLOR@@PAUS3TCBlockRGB@@@Z 005569aa f   d3dx8:s3tchelp.obj
 0001:00155a13       ?XXDecodeBlockRGB@@YAXPAUS3TCBlockRGB@@QAUS3TC_COLOR@@@Z 00556a13 f   d3dx8:s3tchelp.obj
 0001:00155dda       ?EncodeBlockRGBColorKey@@YAXQAUS3TC_COLOR@@PAUS3TCBlockRGB@@U1@2@Z 00556dda f   d3dx8:s3tc.obj
 0001:00156271       ?DecodeBlockRGB@@YAXPAUS3TCBlockRGB@@QAUS3TC_COLOR@@@Z 00557271 f   d3dx8:s3tc.obj
 0001:0015635a       ?DecodeBlockAlpha4@@YAXPAUS3TCBlockAlpha4@@QAUS3TC_COLOR@@@Z 0055735a f   d3dx8:s3tc.obj
 0001:001563a8       ?DecodeBlockAlpha3@@YAXPAUS3TCBlockAlpha3@@QAUS3TC_COLOR@@@Z 005573a8 f   d3dx8:s3tc.obj
 0001:001564a8       ?EncodeBlockRGB@@YAXQAUS3TC_COLOR@@PAUS3TCBlockRGB@@@Z 005574a8 f   d3dx8:s3tc.obj
 0001:001564da       ?EncodeBlockAlpha4@@YAXQAUS3TC_COLOR@@PAUS3TCBlockAlpha4@@@Z 005574da f   d3dx8:s3tc.obj
 0001:00156533       ?EncodeBlockAlpha3@@YAXQAUS3TC_COLOR@@PAUS3TCBlockAlpha3@@@Z 00557533 f   d3dx8:s3tc.obj
 0001:00156689       ?jdiv_round_up@D3DX@@YAJJJ@Z 00557689 f   d3dx8:jutils.obj
 0001:00156699       ?jround_up@D3DX@@YAJJJ@Z   00557699 f   d3dx8:jutils.obj
 0001:001566b1       ?jcopy_sample_rows@D3DX@@YAXPAPAEH0HHI@Z 005576b1 f   d3dx8:jutils.obj
 0001:001566f8       ?jcopy_block_row@D3DX@@YAXPAY0EA@F0I@Z 005576f8 f   d3dx8:jutils.obj
 0001:0015671a       ?jzero_far@D3DX@@YAXPAXI@Z 0055771a f   d3dx8:jutils.obj
 0001:00156735       ?IsMMX@D3DX@@YAHXZ         00557735 f   d3dx8:jutils.obj
 0001:00156c3e       ?jinit_input_controller@D3DX@@YAXPAUjpeg_decompress_struct@1@@Z 00557c3e f   d3dx8:jdinput.obj
 0001:001575f4       ?jinit_memory_mgr@D3DX@@YAXPAUjpeg_common_struct@1@@Z 005585f4 f   d3dx8:jmemmgr.obj
 0001:001576a8       _jpeg_abort                005586a8 f   d3dx8:jcomapi.obj
 0001:001576ca       _jpeg_destroy              005586ca f   d3dx8:jcomapi.obj
 0001:001576e5       _jpeg_alloc_quant_table    005586e5 f   d3dx8:jcomapi.obj
 0001:00157701       _jpeg_alloc_huff_table     00558701 f   d3dx8:jcomapi.obj
 0001:0015778e       _jpeg_calc_output_dimensions 0055878e f   d3dx8:jdmaster.obj
 0001:00157ce7       _jpeg_new_colormap         00558ce7 f   d3dx8:jdmaster.obj
 0001:00157d4a       ?jinit_master_decompress@D3DX@@YAXPAUjpeg_decompress_struct@1@@Z 00558d4a f   d3dx8:jdmaster.obj
 0001:00157d7a       _inflateReset              00558d7a f   d3dx8:inflate.obj
 0001:00157db9       _inflateEnd                00558db9 f   d3dx8:inflate.obj
 0001:00157df7       _inflateInit2_             00558df7 f   d3dx8:inflate.obj
 0001:00157edc       _inflateInit_              00558edc f   d3dx8:inflate.obj
 0001:00157ef3       _inflate                   00558ef3 f   d3dx8:inflate.obj
 0001:00158254       _inflateSetDictionary      00559254 f   d3dx8:inflate.obj
 0001:001582cd       _inflateSync               005592cd f   d3dx8:inflate.obj
 0001:0015837b       _inflateSyncPoint          0055937b f   d3dx8:inflate.obj
 0001:0015839d       _png_create_struct         0055939d f   d3dx8:pngmem.obj
 0001:001583df       _png_destroy_struct        005593df f   d3dx8:pngmem.obj
 0001:001583ec       _png_malloc                005593ec f   d3dx8:pngmem.obj
 0001:00158422       _png_free                  00559422 f   d3dx8:pngmem.obj
 0001:0015843b       _png_memcpy_check          0055943b f   d3dx8:pngmem.obj
 0001:0015845e       _png_memset_check          0055945e f   d3dx8:pngmem.obj
 0001:00158491       _png_get_uint_32           00559491 f   d3dx8:pngrutil.obj
 0001:001584b4       _png_get_uint_16           005594b4 f   d3dx8:pngrutil.obj
 0001:001584c7       _png_crc_read              005594c7 f   d3dx8:pngrutil.obj
 0001:001584eb       _png_crc_error             005594eb f   d3dx8:pngrutil.obj
 0001:00158549       _png_check_chunk_name      00559549 f   d3dx8:pngrutil.obj
 0001:001585ab       _png_combine_row           005595ab f   d3dx8:pngrutil.obj
 0001:001587bf       _png_do_read_interlace     005597bf f   d3dx8:pngrutil.obj
 0001:00158a88       _png_read_filter_row       00559a88 f   d3dx8:pngrutil.obj
 0001:00158c01       _png_read_start_row        00559c01 f   d3dx8:pngrutil.obj
 0001:00158d9d       _png_crc_finish            00559d9d f   d3dx8:pngrutil.obj
 0001:00158e29       _png_handle_IHDR           00559e29 f   d3dx8:pngrutil.obj
 0001:00159020       _png_handle_PLTE           0055a020 f   d3dx8:pngrutil.obj
 0001:00159149       _png_handle_IEND           0055a149 f   d3dx8:pngrutil.obj
 0001:00159193       _png_handle_gAMA           0055a193 f   d3dx8:pngrutil.obj
 0001:00159293       _png_handle_sRGB           0055a293 f   d3dx8:pngrutil.obj
 0001:00159382       _png_handle_tRNS           0055a382 f   d3dx8:pngrutil.obj
 0001:0015951b       _png_handle_unknown        0055a51b f   d3dx8:pngrutil.obj
 0001:00159565       _png_read_finish_row       0055a565 f   d3dx8:pngrutil.obj
 0001:0015978a       _get_crc_table             0055a78a f   d3dx8:crc32.obj
 0001:00159790       _crc32                     0055a790 f   d3dx8:crc32.obj
 0001:00159899       ?jpeg_get_small@D3DX@@YAPAXPAUjpeg_common_struct@1@I@Z 0055a899 f   d3dx8:jmemnobs.obj
 0001:001598a4       ?jpeg_free_small@D3DX@@YAXPAUjpeg_common_struct@1@PAXI@Z 0055a8a4 f   d3dx8:jmemnobs.obj
 0001:001598af       ?jpeg_get_large@D3DX@@YAPAXPAUjpeg_common_struct@1@I@Z 0055a8af f   d3dx8:jmemnobs.obj
 0001:001598ba       ?jpeg_free_large@D3DX@@YAXPAUjpeg_common_struct@1@PAXI@Z 0055a8ba f   d3dx8:jmemnobs.obj
 0001:001598c5       ?jpeg_mem_available@D3DX@@YAJPAUjpeg_common_struct@1@JJJ@Z 0055a8c5 f   d3dx8:jmemnobs.obj
 0001:001598ca       ?jpeg_open_backing_store@D3DX@@YAXPAUjpeg_common_struct@1@PAUbacking_store_struct@1@J@Z 0055a8ca f   d3dx8:jmemnobs.obj
 0001:001598de       ?jpeg_mem_init@D3DX@@YAJPAUjpeg_common_struct@1@@Z 0055a8de f   d3dx8:jmemnobs.obj
 0001:001598e1       ?jpeg_mem_term@D3DX@@YAXPAUjpeg_common_struct@1@@Z 0055a8e1 f   d3dx8:jmemnobs.obj
 0001:00159e20       ?jinit_d_main_controller@D3DX@@YAXPAUjpeg_decompress_struct@1@E@Z 0055ae20 f   d3dx8:jdmainct.obj
 0001:0015aa5a       ?jinit_d_coef_controller@D3DX@@YAXPAUjpeg_decompress_struct@1@E@Z 0055ba5a f   d3dx8:jdcoefct.obj
 0001:0015ab52       ?jpeg_make_d_derived_tbl@D3DX@@YAXPAUjpeg_decompress_struct@1@PAUJHUFF_TBL@1@PAPAUd_derived_tbl@1@@Z 0055bb52 f   d3dx8:jdhuff.obj
 0001:0015acf5       ?jpeg_fill_bit_buffer@D3DX@@YAEPAUbitread_working_state@1@JHH@Z 0055bcf5 f   d3dx8:jdhuff.obj
 0001:0015addf       ?jpeg_huff_decode@D3DX@@YAHPAUbitread_working_state@1@JHPAUd_derived_tbl@1@H@Z 0055bddf f   d3dx8:jdhuff.obj
 0001:0015b41f       ?jinit_huff_decoder@D3DX@@YAXPAUjpeg_decompress_struct@1@@Z 0055c41f f   d3dx8:jdhuff.obj
 0001:0015bfd1       ?jinit_phuff_decoder@D3DX@@YAXPAUjpeg_decompress_struct@1@@Z 0055cfd1 f   d3dx8:jdphuff.obj
 0001:0015c1e9       ?jinit_inverse_dct@D3DX@@YAXPAUjpeg_decompress_struct@1@@Z 0055d1e9 f   d3dx8:jddctmgr.obj
 0001:0015c484       ?jinit_d_post_controller@D3DX@@YAXPAUjpeg_decompress_struct@1@E@Z 0055d484 f   d3dx8:jdpostct.obj
 0001:0015c944       ?jinit_upsampler@D3DX@@YAXPAUjpeg_decompress_struct@1@@Z 0055d944 f   d3dx8:jdsample.obj
 0001:0015cd75       ?MYCbCr2RGB@D3DX@@YAXHPAE000@Z 0055dd75 f   d3dx8:jdcolor.obj
 0001:0015ceb2       ?MYCbCrA2RGBA@D3DX@@YAXHPAE0000@Z 0055deb2 f   d3dx8:jdcolor.obj
 0001:0015cfe6       ?MYCbCrA2RGBALegacy@D3DX@@YAXHPAE0000@Z 0055dfe6 f   d3dx8:jdcolor.obj
 0001:0015d346       ?jinit_color_deconverter@D3DX@@YAXPAUjpeg_decompress_struct@1@@Z 0055e346 f   d3dx8:jdcolor.obj
 0001:0015d93f       ?jinit_merged_upsampler@D3DX@@YAXPAUjpeg_decompress_struct@1@@Z 0055e93f f   d3dx8:jdmerge.obj
 0001:0015e8c8       ?jinit_2pass_quantizer@D3DX@@YAXPAUjpeg_decompress_struct@1@@Z 0055f8c8 f   d3dx8:jquant2.obj
 0001:0015f361       ?jinit_1pass_quantizer@D3DX@@YAXPAUjpeg_decompress_struct@1@@Z 00560361 f   d3dx8:jquant1.obj
 0001:0015f3ea       ?inflate_blocks_reset@D3DX@@YAXPAUinflate_blocks_state@1@PAUz_stream_s@1@PAK@Z 005603ea f   d3dx8:infblock.obj
 0001:0015f455       ?inflate_blocks_new@D3DX@@YAPAUinflate_blocks_state@1@PAUz_stream_s@1@P6AKKPBEI@ZI@Z 00560455 f   d3dx8:infblock.obj
 0001:0015f4e0       ?inflate_blocks@D3DX@@YAHPAUinflate_blocks_state@1@PAUz_stream_s@1@H@Z 005604e0 f   d3dx8:infblock.obj
 0001:0015fdf9       ?inflate_blocks_free@D3DX@@YAHPAUinflate_blocks_state@1@PAUz_stream_s@1@@Z 00560df9 f   d3dx8:infblock.obj
 0001:0015fe2d       ?inflate_set_dictionary@D3DX@@YAXPAUinflate_blocks_state@1@PBEI@Z 00560e2d f   d3dx8:infblock.obj
 0001:0015fe5e       ?inflate_blocks_sync_point@D3DX@@YAHPAUinflate_blocks_state@1@@Z 00560e5e f   d3dx8:infblock.obj
 0001:0015fe6b       _adler32                   00560e6b f   d3dx8:adler32.obj
 0001:0015ff84       _zlibVersion               00560f84 f   d3dx8:zutil.obj
 0001:0015ff8a       _zError                    00560f8a f   d3dx8:zutil.obj
 0001:0015ff9b       ?zcalloc@D3DX@@YAPAXPAXII@Z 00560f9b f   d3dx8:zutil.obj
 0001:0015ffab       ?zcfree@D3DX@@YAXPAX0@Z    00560fab f   d3dx8:zutil.obj
 0001:0015ffb6       ?jpeg_idct_4x4@D3DX@@YAXPAUjpeg_decompress_struct@1@PAUjpeg_component_info@1@PAFPAPAEI@Z 00560fb6 f   d3dx8:jidctred.obj
 0001:001602cb       ?jpeg_idct_2x2@D3DX@@YAXPAUjpeg_decompress_struct@1@PAUjpeg_component_info@1@PAFPAPAEI@Z 005612cb f   d3dx8:jidctred.obj
 0001:00160489       ?jpeg_idct_1x1@D3DX@@YAXPAUjpeg_decompress_struct@1@PAUjpeg_component_info@1@PAFPAPAEI@Z 00561489 f   d3dx8:jidctred.obj
 0001:001604c6       ?jpeg_idct_islow@D3DX@@YAXPAUjpeg_decompress_struct@1@PAUjpeg_component_info@1@PAFPAPAEI@Z 005614c6 f   d3dx8:jidctint.obj
 0001:00160512       ?jpeg_idct_ifast@D3DX@@YAXPAUjpeg_decompress_struct@1@PAUjpeg_component_info@1@PAFPAPAEI@Z 00561512 f   d3dx8:jidctfst.obj
 0001:0016055e       ?jpeg_idct_float@D3DX@@YAXPAUjpeg_decompress_struct@1@PAUjpeg_component_info@1@PAFPAPAEI@Z 0056155e f   d3dx8:jidctflt.obj
 0001:0016093f       ?inflate_codes_new@D3DX@@YAPAUinflate_codes_state@1@IIPAUinflate_huft_s@1@0PAUz_stream_s@1@@Z 0056193f f   d3dx8:infcodes.obj
 0001:00160973       ?inflate_codes@D3DX@@YAHPAUinflate_blocks_state@1@PAUz_stream_s@1@H@Z 00561973 f   d3dx8:infcodes.obj
 0001:00160ec9       ?inflate_codes_free@D3DX@@YAXPAUinflate_codes_state@1@PAUz_stream_s@1@@Z 00561ec9 f   d3dx8:infcodes.obj
 0001:0016125f       ?inflate_trees_bits@D3DX@@YAHPAI0PAPAUinflate_huft_s@1@PAU21@PAUz_stream_s@1@@Z 0056225f f   d3dx8:inftrees.obj
 0001:001612de       ?inflate_trees_dynamic@D3DX@@YAHIIPAI00PAPAUinflate_huft_s@1@1PAU21@PAUz_stream_s@1@@Z 005622de f   d3dx8:inftrees.obj
 0001:001613e1       ?inflate_trees_fixed@D3DX@@YAHPAI0PAPAUinflate_huft_s@1@1PAUz_stream_s@1@@Z 005623e1 f   d3dx8:inftrees.obj
 0001:00161410       ?inflate_flush@D3DX@@YAHPAUinflate_blocks_state@1@PAUz_stream_s@1@H@Z 00562410 f   d3dx8:infutil.obj
 0001:00161525       ?pidct8x8llm@D3DX@@YAXPAF00PAPAEIPAE@Z 00562525 f   d3dx8:piint.obj
 0001:00161a12       ?midct8x8llm@D3DX@@YAXPAF00PAPAEIPAE@Z 00562a12 f   d3dx8:miint.obj
 0001:0016219d       ?pidct8x8aan@D3DX@@YAXPAF00PAPAEIPAE@Z 0056319d f   d3dx8:pifst.obj
 0001:00162546       ?midct8x8aan@D3DX@@YAXPAF00PAPAEIPAE@Z 00563546 f   d3dx8:mifst.obj
 0001:00163319       ?inflate_fast@D3DX@@YAHIIPAUinflate_huft_s@1@0PAUinflate_blocks_state@1@PAUz_stream_s@1@@Z 00564319 f   d3dx8:inffast.obj
 0001:001635d0       __fpmath                   005645d0 f   LIBCMTD:fpinit.obj
 0001:00163600       __fpclear                  00564600 f   LIBCMTD:fpinit.obj
 0001:00163610       __cfltcvt_init             00564610 f   LIBCMTD:fpinit.obj
 0001:00163660       ___setfflag                00564660 f   LIBCMTD:fpinit.obj
 0001:00163680       __chkesp                   00564680 f   LIBCMTD:chkesp.obj
 0001:001636c0       __CIsqrt                   005646c0 f   LIBCMTD:sqrt.obj
 0001:001636d4       _sqrt                      005646d4 f   LIBCMTD:sqrt.obj
 0001:00163780       _strlen                    00564780 f   LIBCMTD:strlen.obj
 0001:001637fc       __ftol                     005647fc f   LIBCMTD:ftol.obj
 0001:00163830       _sprintf                   00564830 f   LIBCMTD:sprintf.obj
 0001:00163930       __CIcos                    00564930 f   LIBCMTD:cos.obj
 0001:00163944       _cos                       00564944 f   LIBCMTD:cos.obj
 0001:001639e0       __CIsin                    005649e0 f   LIBCMTD:sin.obj
 0001:001639f4       _sin                       005649f4 f   LIBCMTD:sin.obj
 0001:00163a90       ?_JumpToContinuation@@YGXPAXPAUEHRegistrationNode@@@Z 00564a90 f   LIBCMTD:trnsctrl.obj
 0001:00163ad0       ?_CallMemberFunction0@@YGXPAX0@Z 00564ad0 f   LIBCMTD:trnsctrl.obj
 0001:00163ae0       ?_CallMemberFunction1@@YGXPAX00@Z 00564ae0 f   LIBCMTD:trnsctrl.obj
 0001:00163af0       ?_CallMemberFunction2@@YGXPAX00H@Z 00564af0 f   LIBCMTD:trnsctrl.obj
 0001:00163b00       ?_UnwindNestedFrames@@YGXPAUEHRegistrationNode@@PAUEHExceptionRecord@@@Z 00564b00 f   LIBCMTD:trnsctrl.obj
 0001:00163b60       ___CxxFrameHandler         00564b60 f   LIBCMTD:trnsctrl.obj
 0001:00163ba0       ___CxxLongjmpUnwind@4      00564ba0 f   LIBCMTD:trnsctrl.obj
 0001:00163bd0       ?_CallCatchBlock2@@YAPAXPAUEHRegistrationNode@@PBU_s_FuncInfo@@PAXHK@Z 00564bd0 f   LIBCMTD:trnsctrl.obj
 0001:00163c80       ?_CallSETranslator@@YAHPAUEHExceptionRecord@@PAUEHRegistrationNode@@PAX2PBU_s_FuncInfo@@H1@Z 00564c80 f   LIBCMTD:trnsctrl.obj
 0001:00163de0       ?_GetRangeOfTrysToCheck@@YAPBU_s_TryBlockMapEntry@@PBU_s_FuncInfo@@HHPAI1@Z 00564de0 f   LIBCMTD:trnsctrl.obj
 0001:00163e70       __global_unwind2           00564e70 f   LIBCMTD:exsup.obj
 0001:00163eb2       __local_unwind2            00564eb2 f   LIBCMTD:exsup.obj
 0001:00163f0a       __NLG_Return2              00564f0a f   LIBCMTD:exsup.obj
 0001:00163f1a       __abnormal_termination     00564f1a f   LIBCMTD:exsup.obj
 0001:00163f3d       __NLG_Notify1              00564f3d f   LIBCMTD:exsup.obj
 0001:00163f46       __NLG_Notify               00564f46 f   LIBCMTD:exsup.obj
 0001:00163f59       __NLG_Dispatch             00564f59 f   LIBCMTD:exsup.obj
 0001:00163f60       __CItan                    00564f60 f   LIBCMTD:tan.obj
 0001:00163f74       _tan                       00564f74 f   LIBCMTD:tan.obj
 0001:00164020       _atan2                     00565020 f   LIBCMTD:87ctriga.obj
 0001:0016402a       __CIatan2                  0056502a f   LIBCMTD:87ctriga.obj
 0001:00164040       _strcpy                    00565040 f   LIBCMTD:strcat.obj
 0001:00164050       _strcat                    00565050 f   LIBCMTD:strcat.obj
 0001:00164130       _exp                       00565130 f   LIBCMTD:87ctran.obj
 0001:0016413a       __CIexp                    0056513a f   LIBCMTD:87ctran.obj
 0001:00164150       __chkstk                   00565150 f   LIBCMTD:chkstk.obj
 0001:00164150       __alloca_probe             00565150 f   LIBCMTD:chkstk.obj
 0001:00164180       __CIacos                   00565180 f   LIBCMTD:acos.obj
 0001:00164194       _acos                      00565194 f   LIBCMTD:acos.obj
 0001:00164250       _fmod                      00565250 f   LIBCMTD:87fmod.obj
 0001:0016425a       __CIfmod                   0056525a f   LIBCMTD:87fmod.obj
 0001:00164290       _memcpy                    00565290 f   LIBCMTD:memcpy.obj
 0001:001645d0       __CIatan                   005655d0 f   LIBCMTD:atan.obj
 0001:001645e4       _atan                      005655e4 f   LIBCMTD:atan.obj
 0001:00164670       __onexit                   00565670 f   LIBCMTD:onexit.obj
 0001:00164730       _atexit                    00565730 f   LIBCMTD:onexit.obj
 0001:00164750       ___onexitinit              00565750 f   LIBCMTD:onexit.obj
 0001:001647a0       _memset                    005657a0 f   LIBCMTD:memset.obj
 0001:00164800       ??_L@YGXPAXIHP6EX0@Z1@Z    00565800 f   LIBCMTD:ehvecctr.obj
 0001:001648a0       ??_M@YGXPAXIHP6EX0@Z@Z     005658a0 f   LIBCMTD:ehvecdtr.obj
 0001:00164950       ?__ArrayUnwind@@YGXPAXIHP6EX0@Z@Z 00565950 f   LIBCMTD:ehvecdtr.obj
 0001:00164a00       _strcmp                    00565a00 f   LIBCMTD:strcmp.obj
 0001:00164a90       _vsprintf                  00565a90 f   LIBCMTD:vsprintf.obj
 0001:00164b90       _vswprintf                 00565b90 f   LIBCMTD:vswprint.obj
 0001:00164cd0       _strncpy                   00565cd0 f   LIBCMTD:strncpy.obj
 0001:00164dd0       __cinit                    00565dd0 f   LIBCMTD:crt0dat.obj
 0001:00164e10       _exit                      00565e10 f   LIBCMTD:crt0dat.obj
 0001:00164e30       __exit                     00565e30 f   LIBCMTD:crt0dat.obj
 0001:00164e50       __cexit                    00565e50 f   LIBCMTD:crt0dat.obj
 0001:00164e70       __c_exit                   00565e70 f   LIBCMTD:crt0dat.obj
 0001:00164f80       __lockexit                 00565f80 f   LIBCMTD:crt0dat.obj
 0001:00164f90       __unlockexit               00565f90 f   LIBCMTD:crt0dat.obj
 0001:00164fd0       _sscanf                    00565fd0 f   LIBCMTD:sscanf.obj
 0001:00165090       _atof                      00566090 f   LIBCMTD:atof.obj
 0001:00165110       _atol                      00566110 f   LIBCMTD:atox.obj
 0001:00165210       _atoi                      00566210 f   LIBCMTD:atox.obj
 0001:00165230       __atoi64                   00566230 f   LIBCMTD:atox.obj
 0001:00165370       _strchr                    00566370 f   LIBCMTD:strchr.obj
 0001:00165376       ___from_strstr_to_strchr   00566376 f   LIBCMTD:strchr.obj
 0001:00165430       _fprintf                   00566430 f   LIBCMTD:fprintf.obj
 0001:00165500       _fread                     00566500 f   LIBCMTD:fread.obj
 0001:00165540       __fread_lk                 00566540 f   LIBCMTD:fread.obj
 0001:00165710       _fclose                    00566710 f   LIBCMTD:fclose.obj
 0001:001657a0       __fclose_lk                005667a0 f   LIBCMTD:fclose.obj
 0001:00165860       _ftell                     00566860 f   LIBCMTD:ftell.obj
 0001:001658d0       __ftell_lk                 005668d0 f   LIBCMTD:ftell.obj
 0001:00165b70       _fseek                     00566b70 f   LIBCMTD:fseek.obj
 0001:00165be0       __fseek_lk                 00566be0 f   LIBCMTD:fseek.obj
 0001:00165d10       __fsopen                   00566d10 f   LIBCMTD:fopen.obj
 0001:00165e10       _fopen                     00566e10 f   LIBCMTD:fopen.obj
 0001:00165e30       _fabs                      00566e30 f   LIBCMTD:fabs.obj
 0001:00165f30       _WinMainCRTStartup         00566f30 f   LIBCMTD:wincrt0.obj
 0001:001660a0       __amsg_exit                005670a0 f   LIBCMTD:wincrt0.obj
 0001:00166100       _malloc                    00567100 f   LIBCMTD:dbgheap.obj
 0001:00166130       __malloc_dbg               00567130 f   LIBCMTD:dbgheap.obj
 0001:00166160       __nh_malloc                00567160 f   LIBCMTD:dbgheap.obj
 0001:00166180       __nh_malloc_dbg            00567180 f   LIBCMTD:dbgheap.obj
 0001:00166220       __heap_alloc               00567220 f   LIBCMTD:dbgheap.obj
 0001:00166240       __heap_alloc_dbg           00567240 f   LIBCMTD:dbgheap.obj
 0001:00166560       _calloc                    00567560 f   LIBCMTD:dbgheap.obj
 0001:00166590       __calloc_dbg               00567590 f   LIBCMTD:dbgheap.obj
 0001:001665f0       _realloc                   005675f0 f   LIBCMTD:dbgheap.obj
 0001:00166620       __realloc_dbg              00567620 f   LIBCMTD:dbgheap.obj
 0001:00166bd0       __expand                   00567bd0 f   LIBCMTD:dbgheap.obj
 0001:00166c00       __expand_dbg               00567c00 f   LIBCMTD:dbgheap.obj
 0001:00166c90       _free                      00567c90 f   LIBCMTD:dbgheap.obj
 0001:00166cb0       __free_lk                  00567cb0 f   LIBCMTD:dbgheap.obj
 0001:00166cd0       __free_dbg                 00567cd0 f   LIBCMTD:dbgheap.obj
 0001:00166d40       __free_dbg_lk              00567d40 f   LIBCMTD:dbgheap.obj
 0001:00167130       __msize                    00568130 f   LIBCMTD:dbgheap.obj
 0001:00167150       __msize_dbg                00568150 f   LIBCMTD:dbgheap.obj
 0001:001672e0       __CrtSetBreakAlloc         005682e0 f   LIBCMTD:dbgheap.obj
 0001:00167300       __CrtSetDbgBlockType       00568300 f   LIBCMTD:dbgheap.obj
 0001:001673e0       __CrtSetAllocHook          005683e0 f   LIBCMTD:dbgheap.obj
 0001:00167490       __CrtCheckMemory           00568490 f   LIBCMTD:dbgheap.obj
 0001:00167840       __CrtSetDbgFlag            00568840 f   LIBCMTD:dbgheap.obj
 0001:00167870       __CrtDoForAllClientObjects 00568870 f   LIBCMTD:dbgheap.obj
 0001:00167920       __CrtIsValidPointer        00568920 f   LIBCMTD:dbgheap.obj
 0001:00167970       __CrtIsValidHeapPointer    00568970 f   LIBCMTD:dbgheap.obj
 0001:00167aa0       __CrtIsMemoryBlock         00568aa0 f   LIBCMTD:dbgheap.obj
 0001:00167bd0       __CrtSetDumpClient         00568bd0 f   LIBCMTD:dbgheap.obj
 0001:00167bf0       __CrtMemCheckpoint         00568bf0 f   LIBCMTD:dbgheap.obj
 0001:00167da0       __CrtMemDifference         00568da0 f   LIBCMTD:dbgheap.obj
 0001:00167ed0       __CrtMemDumpAllObjectsSince 00568ed0 f   LIBCMTD:dbgheap.obj
 0001:001682f0       __CrtDumpMemoryLeaks       005692f0 f   LIBCMTD:dbgheap.obj
 0001:00168370       __CrtMemDumpStatistics     00569370 f   LIBCMTD:dbgheap.obj
 0001:00168440       __statusfp                 00569440 f   LIBCMTD:ieee87.obj
 0001:00168460       __clearfp                  00569460 f   LIBCMTD:ieee87.obj
 0001:00168480       __control87                00569480 f   LIBCMTD:ieee87.obj
 0001:001684d0       __controlfp                005694d0 f   LIBCMTD:ieee87.obj
 0001:001684f0       __fpreset                  005694f0 f   LIBCMTD:ieee87.obj
 0001:001688e0       _strrchr                   005698e0 f   LIBCMTD:strrchr.obj
 0001:00168910       _fflush                    00569910 f   LIBCMTD:fflush.obj
 0001:00168960       __fflush_lk                00569960 f   LIBCMTD:fflush.obj
 0001:001689b0       __flush                    005699b0 f   LIBCMTD:fflush.obj
 0001:00168a70       __flushall                 00569a70 f   LIBCMTD:fflush.obj
 0001:00168bc0       __CrtDbgBreak              00569bc0 f   LIBCMTD:dbgrpt.obj
 0001:00168bd0       __CrtSetReportMode         00569bd0 f   LIBCMTD:dbgrpt.obj
 0001:00168c30       __CrtSetReportFile         00569c30 f   LIBCMTD:dbgrpt.obj
 0001:00168cb0       __CrtSetReportHook         00569cb0 f   LIBCMTD:dbgrpt.obj
 0001:00168cd0       __CrtDbgReport             00569cd0 f   LIBCMTD:dbgrpt.obj
 0001:00169370       __alldiv                   0056a370 f   LIBCMTD:lldiv.obj
 0001:00169420       __allmul                   0056a420 f   LIBCMTD:llmul.obj
 0001:00169460       _strncat                   0056a460 f   LIBCMTD:strncat.obj
 0001:00169590       _memmove                   0056a590 f   LIBCMTD:memmove.obj
 0001:001698d0       _floor                     0056a8d0 f   LIBCMTD:floor.obj
 0001:00169a10       __CIpow                    0056aa10 f   LIBCMTD:pow.obj
 0001:00169a29       _pow                       0056aa29 f   LIBCMTD:pow.obj
 0001:00169c30       _printf                    0056ac30 f   LIBCMTD:printf.obj
 0001:00169cd0       __allshl                   0056acd0 f   LIBCMTD:llshl.obj
 0001:00169cf8       __except_handler3          0056acf8 f   LIBCMTD:exsup3.obj
 0001:00169db5       __seh_longjmp_unwind@4     0056adb5 f   LIBCMTD:exsup3.obj
 0001:00169dd0       _fwrite                    0056add0 f   LIBCMTD:fwrite.obj
 0001:00169e10       __fwrite_lk                0056ae10 f   LIBCMTD:fwrite.obj
 0001:0016a030       _memcmp                    0056b030 f   LIBCMTD:memcmp.obj
 0001:0016a0e0       _abs                       0056b0e0 f   LIBCMTD:abs.obj
 0001:0016a110       __aulldiv                  0056b110 f   LIBCMTD:ulldiv.obj
 0001:0016a180       __allrem                   0056b180 f   LIBCMTD:llrem.obj
 0001:0016a240       __CIasin                   0056b240 f   LIBCMTD:asin.obj
 0001:0016a254       _asin                      0056b254 f   LIBCMTD:asin.obj
 0001:0016a310       _wcslen                    0056b310 f   LIBCMTD:wcslen.obj
 0001:0016a340       _swprintf                  0056b340 f   LIBCMTD:swprintf.obj
 0001:0016a490       __snprintf                 0056b490 f   LIBCMTD:snprintf.obj
 0001:0016a58c       __EH_prolog                0056b58c f   LIBCMTD:ehprolog.obj
 0001:0016a5b0       __vsnprintf                0056b5b0 f   LIBCMTD:vsnprint.obj
 0001:0016a6b0       _isalpha                   0056b6b0 f   LIBCMTD:_ctype.obj
 0001:0016a700       _isupper                   0056b700 f   LIBCMTD:_ctype.obj
 0001:0016a740       _islower                   0056b740 f   LIBCMTD:_ctype.obj
 0001:0016a780       _isdigit                   0056b780 f   LIBCMTD:_ctype.obj
 0001:0016a7c0       _isxdigit                  0056b7c0 f   LIBCMTD:_ctype.obj
 0001:0016a810       _isspace                   0056b810 f   LIBCMTD:_ctype.obj
 0001:0016a850       _ispunct                   0056b850 f   LIBCMTD:_ctype.obj
 0001:0016a890       _isalnum                   0056b890 f   LIBCMTD:_ctype.obj
 0001:0016a8e0       _isprint                   0056b8e0 f   LIBCMTD:_ctype.obj
 0001:0016a930       _isgraph                   0056b930 f   LIBCMTD:_ctype.obj
 0001:0016a980       _iscntrl                   0056b980 f   LIBCMTD:_ctype.obj
 0001:0016a9c0       ___isascii                 0056b9c0 f   LIBCMTD:_ctype.obj
 0001:0016a9d0       ___toascii                 0056b9d0 f   LIBCMTD:_ctype.obj
 0001:0016a9e0       ___iscsymf                 0056b9e0 f   LIBCMTD:_ctype.obj
 0001:0016aa40       ___iscsym                  0056ba40 f   LIBCMTD:_ctype.obj
 0001:0016aaa0       __copysign                 0056baa0 f   LIBCMTD:ieeemisc.obj
 0001:0016aad0       __chgsign                  0056bad0 f   LIBCMTD:ieeemisc.obj
 0001:0016ab00       __scalb                    0056bb00 f   LIBCMTD:ieeemisc.obj
 0001:0016ab20       __logb                     0056bb20 f   LIBCMTD:ieeemisc.obj
 0001:0016ac50       __nextafter                0056bc50 f   LIBCMTD:ieeemisc.obj
 0001:0016af90       __finite                   0056bf90 f   LIBCMTD:ieeemisc.obj
 0001:0016afc0       __isnan                    0056bfc0 f   LIBCMTD:ieeemisc.obj
 0001:0016b010       __fpclass                  0056c010 f   LIBCMTD:ieeemisc.obj
 0001:0016b0e4       _longjmp                   0056c0e4 f   LIBCMTD:longjmp.obj
 0001:0016b160       __setjmp3                  0056c160 f   LIBCMTD:setjmp3.obj
 0001:0016b1e0       __setdefaultprecision      0056c1e0 f   LIBCMTD:fp8.obj
 0001:0016b200       __ms_p5_test_fdiv          0056c200 f   LIBCMTD:testfdiv.obj
 0001:0016b260       __ms_p5_mp_test_fdiv       0056c260 f   LIBCMTD:testfdiv.obj
 0001:0016b2b0       __forcdecpt                0056c2b0 f   LIBCMTD:cvt.obj
 0001:0016b360       __cropzeros                0056c360 f   LIBCMTD:cvt.obj
 0001:0016b440       __positive                 0056c440 f   LIBCMTD:cvt.obj
 0001:0016b470       __fassign                  0056c470 f   LIBCMTD:cvt.obj
 0001:0016b4c0       __cftoe                    0056c4c0 f   LIBCMTD:cvt.obj
 0001:0016b6b0       __cftof                    0056c6b0 f   LIBCMTD:cvt.obj
 0001:0016b860       __cftog                    0056c860 f   LIBCMTD:cvt.obj
 0001:0016b950       __cfltcvt                  0056c950 f   LIBCMTD:cvt.obj
 0001:0016b9e0       __trandisp1                0056c9e0 f   LIBCMTD:87disp.obj
 0001:0016ba47       __trandisp2                0056ca47 f   LIBCMTD:87disp.obj
 0001:0016bad3       __rttospopde               0056cad3 f   LIBCMTD:87disp.obj
 0001:0016bad8       __rttospop                 0056cad8 f   LIBCMTD:87disp.obj
 0001:0016bada       __rtnospop                 0056cada f   LIBCMTD:87disp.obj
 0001:0016badc       __rttosnpop                0056cadc f   LIBCMTD:87disp.obj
 0001:0016badd       __rtnospopde               0056cadd f   LIBCMTD:87disp.obj
 0001:0016bae4       __rtzeropop                0056cae4 f   LIBCMTD:87disp.obj
 0001:0016bae6       __rtzeronpop               0056cae6 f   LIBCMTD:87disp.obj
 0001:0016baeb       __rtonepop                 0056caeb f   LIBCMTD:87disp.obj
 0001:0016baed       __rtonenpop                0056caed f   LIBCMTD:87disp.obj
 0001:0016baf2       __tosnan1                  0056caf2 f   LIBCMTD:87disp.obj
 0001:0016bb1d       __nosnan2                  0056cb1d f   LIBCMTD:87disp.obj
 0001:0016bb1f       __tosnan2                  0056cb1f f   LIBCMTD:87disp.obj
 0001:0016bb47       __nan2                     0056cb47 f   LIBCMTD:87disp.obj
 0001:0016bb86       __rtindfpop                0056cb86 f   LIBCMTD:87disp.obj
 0001:0016bb88       __rtindfnpop               0056cb88 f   LIBCMTD:87disp.obj
 0001:0016bb99       __rttosnpopde              0056cb99 f   LIBCMTD:87disp.obj
 0001:0016bba3       __rtchsifneg               0056cba3 f   LIBCMTD:87disp.obj
 0001:0016bbb0       __startTwoArgErrorHandling 0056cbb0 f   LIBCMTD:genexcep.obj
 0001:0016bbc7       __startOneArgErrorHandling 0056cbc7 f   LIBCMTD:genexcep.obj
 0001:0016bc10       __twoToTOS                 0056cc10 f   LIBCMTD:common.obj
 0001:0016bc25       __load_CW                  0056cc25 f   LIBCMTD:common.obj
 0001:0016bc3c       __convertTOStoQNaN         0056cc3c f   LIBCMTD:common.obj
 0001:0016bc55       __fload_withFB             0056cc55 f   LIBCMTD:common.obj
 0001:0016bc98       __checkTOS_withFB          0056cc98 f   LIBCMTD:common.obj
 0001:0016bcae       __fast_exit                0056ccae f   LIBCMTD:common.obj
 0001:0016bcbb       __math_exit                0056ccbb f   LIBCMTD:common.obj
 0001:0016bce5       __check_overflow_exit      0056cce5 f   LIBCMTD:common.obj
 0001:0016bcf9       __check_range_exit         0056ccf9 f   LIBCMTD:common.obj
 0001:0016bda0       __flsbuf                   0056cda0 f   LIBCMTD:_flsbuf.obj
 0001:0016c020       __output                   0056d020 f   LIBCMTD:output.obj
 0001:0016cec0       ___InternalCxxFrameHandler 0056dec0 f   LIBCMTD:frame.obj
 0001:0016d430       ___FrameUnwindToState      0056e430 f   LIBCMTD:frame.obj
 0001:0016da40       ?_DestructExceptionObject@@YAXPAUEHExceptionRecord@@E@Z 0056ea40 f   LIBCMTD:frame.obj
 0001:0016db20       __CallSettingFrame@12      0056eb20 f   LIBCMTD:lowhelpr.obj
 0001:0016db47       __NLG_Return               0056eb47 f   LIBCMTD:lowhelpr.obj
 0001:0016db70       __mtinit                   0056eb70 f   LIBCMTD:tidtable.obj
 0001:0016dc00       __mtterm                   0056ec00 f   LIBCMTD:tidtable.obj
 0001:0016dc30       __initptd                  0056ec30 f   LIBCMTD:tidtable.obj
 0001:0016dc50       __getptd                   0056ec50 f   LIBCMTD:tidtable.obj
 0001:0016dcf0       __freeptd                  0056ecf0 f   LIBCMTD:tidtable.obj
 0001:0016de00       ___threadid                0056ee00 f   LIBCMTD:tidtable.obj
 0001:0016de10       ___threadhandle            0056ee10 f   LIBCMTD:tidtable.obj
 0001:0016de20       ?terminate@@YAXXZ          0056ee20 f   LIBCMTD:hooks.obj
 0001:0016deb0       ?unexpected@@YAXXZ         0056eeb0 f   LIBCMTD:hooks.obj
 0001:0016ded0       ?_inconsistency@@YAXXZ     0056eed0 f   LIBCMTD:hooks.obj
 0001:0016df7c       __fFATN2                   0056ef7c f   LIBCMTD:87triga.obj
 0001:0016dfcc       __rtpiby2                  0056efcc f   LIBCMTD:87triga.obj
 0001:0016e010       __cintrindisp2             0056f010 f   LIBCMTD:87cdisp.obj
 0001:0016e04e       __cintrindisp1             0056f04e f   LIBCMTD:87cdisp.obj
 0001:0016e08b       __ctrandisp2               0056f08b f   LIBCMTD:87cdisp.obj
 0001:0016e20b       __ctrandisp1               0056f20b f   LIBCMTD:87cdisp.obj
 0001:0016e23e       __fload                    0056f23e f   LIBCMTD:87cdisp.obj
 0001:0016e291       __fFEXP                    0056f291 f   LIBCMTD:87tran.obj
 0001:0016e2f8       __rtinfpopse               0056f2f8 f   LIBCMTD:87tran.obj
 0001:0016e2fa       __rtinfnpopse              0056f2fa f   LIBCMTD:87tran.obj
 0001:0016e30a       __fFLN                     0056f30a f   LIBCMTD:87tran.obj
 0001:0016e3bf       __rtinfpop                 0056f3bf f   LIBCMTD:87tran.obj
 0001:0016e3c1       __rtinfnpop                0056f3c1 f   LIBCMTD:87tran.obj
 0001:0016e3de       __ffexpm1                  0056f3de f   LIBCMTD:87tran.obj
 0001:0016e490       _fdiv_main_routine         0056f490 f   LIBCMTD:adj_fdiv.obj
 0001:0016e5a7       __adj_fdiv_r               0056f5a7 f   LIBCMTD:adj_fdiv.obj
 0001:0016ea46       __fdivp_sti_st             0056fa46 f   LIBCMTD:adj_fdiv.obj
 0001:0016ea59       __fdivrp_sti_st            0056fa59 f   LIBCMTD:adj_fdiv.obj
 0001:0016ea6c       __adj_fdiv_m32             0056fa6c f   LIBCMTD:adj_fdiv.obj
 0001:0016eab8       __adj_fdiv_m64             0056fab8 f   LIBCMTD:adj_fdiv.obj
 0001:0016eb04       __adj_fdiv_m16i            0056fb04 f   LIBCMTD:adj_fdiv.obj
 0001:0016eb38       __adj_fdiv_m32i            0056fb38 f   LIBCMTD:adj_fdiv.obj
 0001:0016eb6c       __adj_fdivr_m32            0056fb6c f   LIBCMTD:adj_fdiv.obj
 0001:0016ebb8       __adj_fdivr_m64            0056fbb8 f   LIBCMTD:adj_fdiv.obj
 0001:0016ec04       __adj_fdivr_m16i           0056fc04 f   LIBCMTD:adj_fdiv.obj
 0001:0016ec38       __adj_fdivr_m32i           0056fc38 f   LIBCMTD:adj_fdiv.obj
 0001:0016ec6c       __safe_fdiv                0056fc6c f   LIBCMTD:adj_fdiv.obj
 0001:0016ec81       __safe_fdivr               0056fc81 f   LIBCMTD:adj_fdiv.obj
 0001:0016ec96       __fprem_common             0056fc96 f   LIBCMTD:adj_fdiv.obj
 0001:0016ee9c       __adj_fprem                0056fe9c f   LIBCMTD:adj_fdiv.obj
 0001:0016ef4e       __fprem1_common            0056ff4e f   LIBCMTD:adj_fdiv.obj
 0001:0016f154       __adj_fprem1               00570154 f   LIBCMTD:adj_fdiv.obj
 0001:0016f209       __safe_fprem               00570209 f   LIBCMTD:adj_fdiv.obj
 0001:0016f20f       __safe_fprem1              0057020f f   LIBCMTD:adj_fdiv.obj
 0001:0016f215       __adj_fpatan               00570215 f   LIBCMTD:adj_fdiv.obj
 0001:0016f218       __adj_fptan                00570218 f   LIBCMTD:adj_fdiv.obj
 0001:0016f220       __woutput                  00570220 f   LIBCMTD:woutput.obj
 0001:00170000       __mtinitlocks              00571000 f   LIBCMTD:mlock.obj
 0001:00170040       __mtdeletelocks            00571040 f   LIBCMTD:mlock.obj
 0001:001700e0       __lock                     005710e0 f   LIBCMTD:mlock.obj
 0001:00170180       __unlock                   00571180 f   LIBCMTD:mlock.obj
 0001:001701a0       __lockerr_exit             005711a0 f   LIBCMTD:mlock.obj
 0001:001701c0       __input                    005711c0 f   LIBCMTD:input.obj
 0001:001716c0       __fltin2                   005726c0 f   LIBCMTD:cfin.obj
 0001:00171780       __isctype                  00572780 f   LIBCMTD:isctype.obj
 0001:00171840       ___initstdio               00572840 f   LIBCMTD:_file.obj
 0001:00171970       ___endstdio                00572970 f   LIBCMTD:_file.obj
 0001:00171990       __lock_file                00572990 f   LIBCMTD:_file.obj
 0001:001719d0       __lock_file2               005729d0 f   LIBCMTD:_file.obj
 0001:00171a00       __unlock_file              00572a00 f   LIBCMTD:_file.obj
 0001:00171a40       __unlock_file2             00572a40 f   LIBCMTD:_file.obj
 0001:00171a70       __stbuf                    00572a70 f   LIBCMTD:_sftbuf.obj
 0001:00171bd0       __ftbuf                    00572bd0 f   LIBCMTD:_sftbuf.obj
 0001:00171c70       __filbuf                   00572c70 f   LIBCMTD:_filbuf.obj
 0001:00171e60       __read                     00572e60 f   LIBCMTD:read.obj
 0001:00171ef0       __read_lk                  00572ef0 f   LIBCMTD:read.obj
 0001:00172340       __close                    00573340 f   LIBCMTD:close.obj
 0001:001723c0       __close_lk                 005733c0 f   LIBCMTD:close.obj
 0001:00172470       __freebuf                  00573470 f   LIBCMTD:_freebuf.obj
 0001:00172510       __dosmaperr                00573510 f   LIBCMTD:dosmap.obj
 0001:001725b0       __errno                    005735b0 f   LIBCMTD:dosmap.obj
 0001:001725c0       ___doserrno                005735c0 f   LIBCMTD:dosmap.obj
 0001:001725d0       __ioinit                   005735d0 f   LIBCMTD:ioinit.obj
 0001:00172900       __ioterm                   00573900 f   LIBCMTD:ioinit.obj
 0001:001729a0       __lseek                    005739a0 f   LIBCMTD:lseek.obj
 0001:00172a30       __lseek_lk                 00573a30 f   LIBCMTD:lseek.obj
 0001:00172af0       __openfile                 00573af0 f   LIBCMTD:_open.obj
 0001:00172e80       __getstream                00573e80 f   LIBCMTD:stream.obj
 0001:00173000       __handle_qnan1             00574000 f   LIBCMTD:fpexcept.obj
 0001:00173060       __handle_qnan2             00574060 f   LIBCMTD:fpexcept.obj
 0001:001730d0       __except1                  005740d0 f   LIBCMTD:fpexcept.obj
 0001:00173190       __except2                  00574190 f   LIBCMTD:fpexcept.obj
 0001:00173260       __raise_exc                00574260 f   LIBCMTD:fpexcept.obj
 0001:00173730       __handle_exc               00574730 f   LIBCMTD:fpexcept.obj
 0001:00173ab0       __umatherr                 00574ab0 f   LIBCMTD:fpexcept.obj
 0001:00173b50       __set_errno                00574b50 f   LIBCMTD:fpexcept.obj
 0001:00173bd0       __errcode                  00574bd0 f   LIBCMTD:fpexcept.obj
 0001:00173c50       __set_exp                  00574c50 f   LIBCMTD:util.obj
 0001:00173c90       __get_exp                  00574c90 f   LIBCMTD:util.obj
 0001:00173cc0       __add_exp                  00574cc0 f   LIBCMTD:util.obj
 0001:00173d00       __set_bexp                 00574d00 f   LIBCMTD:util.obj
 0001:00173d40       __sptype                   00574d40 f   LIBCMTD:util.obj
 0001:00173dc0       __decomp                   00574dc0 f   LIBCMTD:util.obj
 0001:00173f00       __statfp                   00574f00 f   LIBCMTD:fpctrl.obj
 0001:00173f20       __clrfp                    00574f20 f   LIBCMTD:fpctrl.obj
 0001:00173f40       __ctrlfp                   00574f40 f   LIBCMTD:fpctrl.obj
 0001:00173f80       __set_statfp               00574f80 f   LIBCMTD:fpctrl.obj
 0001:00174000       __XcptFilter               00575000 f   LIBCMTD:winxfltr.obj
 0001:00174220       __wincmdln                 00575220 f   LIBCMTD:wincmdln.obj
 0001:001742e0       __setenvp                  005752e0 f   LIBCMTD:stdenvp.obj
 0001:00174430       __setargv                  00575430 f   LIBCMTD:stdargv.obj
 0001:00174940       ___crtGetEnvironmentStringsA 00575940 f   LIBCMTD:a_env.obj
 0001:00174b60       __GetLinkerVersion         00575b60 f   LIBCMTD:heapinit.obj
 0001:00174bc0       ___heap_select             00575bc0 f   LIBCMTD:heapinit.obj
 0001:00174df0       __heap_init                00575df0 f   LIBCMTD:heapinit.obj
 0001:00174e80       __heap_term                00575e80 f   LIBCMTD:heapinit.obj
 0001:00174f70       __FF_MSGBANNER             00575f70 f   LIBCMTD:crt0msg.obj
 0001:00174fc0       __NMSG_WRITE               00575fc0 f   LIBCMTD:crt0msg.obj
 0001:00175180       __GET_RTERRMSG             00576180 f   LIBCMTD:crt0msg.obj
 0001:001751d0       ?_set_new_handler@@YAP6AHI@ZP6AHI@Z@Z 005761d0 f   LIBCMTD:handler.obj
 0001:00175200       ?_query_new_handler@@YAP6AHI@ZXZ 00576200 f   LIBCMTD:handler.obj
 0001:00175210       __callnewh                 00576210 f   LIBCMTD:handler.obj
 0001:00175240       __malloc_base              00576240 f   LIBCMTD:malloc.obj
 0001:00175260       __nh_malloc_base           00576260 f   LIBCMTD:malloc.obj
 0001:001752c0       __heap_alloc_base          005762c0 f   LIBCMTD:malloc.obj
 0001:00175410       __CrtDefaultAllocHook      00576410 f   LIBCMTD:dbghook.obj
 0001:00175420       __expand_base              00576420 f   LIBCMTD:expand.obj
 0001:00175630       __realloc_base             00576630 f   LIBCMTD:realloc.obj
 0001:00175ad0       __free_base                00576ad0 f   LIBCMTD:free.obj
 0001:00175c20       __heapchk                  00576c20 f   LIBCMTD:heapchk.obj
 0001:00175d30       __heapset                  00576d30 f   LIBCMTD:heapchk.obj
 0001:00175d40       __get_sbh_threshold        00576d40 f   LIBCMTD:sbheap.obj
 0001:00175d70       __set_sbh_threshold        00576d70 f   LIBCMTD:sbheap.obj
 0001:00175e80       ___sbh_heap_init           00576e80 f   LIBCMTD:sbheap.obj
 0001:00175ef0       ___sbh_find_block          00576ef0 f   LIBCMTD:sbheap.obj
 0001:00175f50       ___sbh_verify_block        00576f50 f   LIBCMTD:sbheap.obj
 0001:00175fb0       ___sbh_free_block          00576fb0 f   LIBCMTD:sbheap.obj
 0001:00176590       ___sbh_alloc_block         00577590 f   LIBCMTD:sbheap.obj
 0001:00176ad0       ___sbh_alloc_new_region    00577ad0 f   LIBCMTD:sbheap.obj
 0001:00176be0       ___sbh_alloc_new_group     00577be0 f   LIBCMTD:sbheap.obj
 0001:00176dd0       ___sbh_resize_block        00577dd0 f   LIBCMTD:sbheap.obj
 0001:001773c0       ___sbh_heapmin             005783c0 f   LIBCMTD:sbheap.obj
 0001:001774f0       ___sbh_heap_check          005784f0 f   LIBCMTD:sbheap.obj
 0001:00177b10       __get_old_sbh_threshold    00578b10 f   LIBCMTD:sbheap.obj
 0001:00177b20       __set_old_sbh_threshold    00578b20 f   LIBCMTD:sbheap.obj
 0001:00177b50       ___old_sbh_new_region      00578b50 f   LIBCMTD:sbheap.obj
 0001:00177d30       ___old_sbh_release_region  00578d30 f   LIBCMTD:sbheap.obj
 0001:00177db0       ___old_sbh_decommit_pages  00578db0 f   LIBCMTD:sbheap.obj
 0001:00177f10       ___old_sbh_find_block      00578f10 f   LIBCMTD:sbheap.obj
 0001:00177fa0       ___old_sbh_free_block      00578fa0 f   LIBCMTD:sbheap.obj
 0001:00178010       ___old_sbh_alloc_block     00579010 f   LIBCMTD:sbheap.obj
 0001:001783d0       ___old_sbh_alloc_block_from_page 005793d0 f   LIBCMTD:sbheap.obj
 0001:00178680       ___old_sbh_resize_block    00579680 f   LIBCMTD:sbheap.obj
 0001:001787f0       ___old_sbh_heap_check      005797f0 f   LIBCMTD:sbheap.obj
 0001:00178a30       _signal                    00579a30 f   LIBCMTD:winsig.obj
 0001:00178d00       _raise                     00579d00 f   LIBCMTD:winsig.obj
 0001:00178fa0       ___fpecode                 00579fa0 f   LIBCMTD:winsig.obj
 0001:00178fb0       ___pxcptinfoptrs           00579fb0 f   LIBCMTD:winsig.obj
 0001:00178fc0       __commit                   00579fc0 f   LIBCMTD:commit.obj
 0001:001790a0       __write                    0057a0a0 f   LIBCMTD:write.obj
 0001:00179130       __write_lk                 0057a130 f   LIBCMTD:write.obj
 0001:001793b0       __itoa                     0057a3b0 f   LIBCMTD:xtoa.obj
 0001:001794d0       __ltoa                     0057a4d0 f   LIBCMTD:xtoa.obj
 0001:00179510       __ultoa                    0057a510 f   LIBCMTD:xtoa.obj
 0001:00179530       __i64toa                   0057a530 f   LIBCMTD:xtoa.obj
 0001:00179680       __ui64toa                  0057a680 f   LIBCMTD:xtoa.obj
 0001:001796a0       ___crtMessageBoxA          0057a6a0 f   LIBCMTD:crtmbox.obj
 0001:00179760       __frnd                     0057a760 f   LIBCMTD:frnd.obj
 0001:00179780       __powhlp                   0057a780 f   LIBCMTD:powhlp.obj
 0001:001799f0       __d_inttype                0057a9f0 f   LIBCMTD:powhlp.obj
 0001:00179a70       _ldexp                     0057aa70 f   LIBCMTD:ldexp.obj
 0001:00179d30       __rt_probe_read4@4         0057ad30 f   LIBCMTD:sehsupp.obj
 0001:00179dc0       __tolower                  0057adc0 f   LIBCMTD:tolower.obj
 0001:00179dd0       _tolower                   0057add0 f   LIBCMTD:tolower.obj
 0001:00179e70       __tolower_lk               0057ae70 f   LIBCMTD:tolower.obj
 0001:00179fa0       __ZeroTail                 0057afa0 f   LIBCMTD:intrncvt.obj
 0001:0017a030       __IncMan                   0057b030 f   LIBCMTD:intrncvt.obj
 0001:0017a0e0       __RoundMan                 0057b0e0 f   LIBCMTD:intrncvt.obj
 0001:0017a1c0       __CopyMan                  0057b1c0 f   LIBCMTD:intrncvt.obj
 0001:0017a210       __FillZeroMan              0057b210 f   LIBCMTD:intrncvt.obj
 0001:0017a240       __IsZeroMan                0057b240 f   LIBCMTD:intrncvt.obj
 0001:0017a280       __ShrMan                   0057b280 f   LIBCMTD:intrncvt.obj
 0001:0017a370       __ld12cvt                  0057b370 f   LIBCMTD:intrncvt.obj
 0001:0017a5c0       __ld12tod                  0057b5c0 f   LIBCMTD:intrncvt.obj
 0001:0017a5e0       __ld12tof                  0057b5e0 f   LIBCMTD:intrncvt.obj
 0001:0017a600       __ld12told                 0057b600 f   LIBCMTD:intrncvt.obj
 0001:0017a6c0       __atodbl                   0057b6c0 f   LIBCMTD:intrncvt.obj
 0001:0017a700       __atoldbl                  0057b700 f   LIBCMTD:intrncvt.obj
 0001:0017a740       __atoflt                   0057b740 f   LIBCMTD:intrncvt.obj
 0001:0017a780       __fptostr                  0057b780 f   LIBCMTD:_fptostr.obj
 0001:0017a880       __fltout2                  0057b880 f   LIBCMTD:cfout.obj
 0001:0017a900       ___dtold                   0057b900 f   LIBCMTD:cfout.obj
 0001:0017aa70       __fptrap                   0057ba70 f   LIBCMTD:crt0fp.obj
 0001:0017aa80       __87except                 0057ba80 f   LIBCMTD:87except.obj
 0001:0017ac00       __getbuf                   0057bc00 f   LIBCMTD:_getbuf.obj
 0001:0017acd0       __isatty                   0057bcd0 f   LIBCMTD:isatty.obj
 0001:0017ad10       _wctomb                    0057bd10 f   LIBCMTD:wctomb.obj
 0001:0017ad90       __wctomb_lk                0057bd90 f   LIBCMTD:wctomb.obj
 0001:0017ae30       __aullrem                  0057be30 f   LIBCMTD:ullrem.obj
 0001:0017aeb0       ?__CxxUnhandledExceptionFilter@@YGJPAU_EXCEPTION_POINTERS@@@Z 0057beb0 f   LIBCMTD:unhandld.obj
 0001:0017af10       ?__CxxSetUnhandledExceptionFilter@@YAXXZ 0057bf10 f   LIBCMTD:unhandld.obj
 0001:0017af30       ?__CxxRestoreUnhandledExceptionFilter@@YAXXZ 0057bf30 f   LIBCMTD:unhandld.obj
 0001:0017af50       ?_ValidateRead@@YAHPBXI@Z  0057bf50 f   LIBCMTD:validate.obj
 0001:0017af80       ?_ValidateWrite@@YAHPAXI@Z 0057bf80 f   LIBCMTD:validate.obj
 0001:0017afb0       ?_ValidateExecute@@YAHP6GHXZ@Z 0057bfb0 f   LIBCMTD:validate.obj
 0001:0017afe0       _abort                     0057bfe0 f   LIBCMTD:abort.obj
 0001:0017b000       _mbtowc                    0057c000 f   LIBCMTD:mbtowc.obj
 0001:0017b080       __mbtowc_lk                0057c080 f   LIBCMTD:mbtowc.obj
 0001:0017b1e0       _fputwc                    0057c1e0 f   LIBCMTD:fputwc.obj
 0001:0017b260       __putwc_lk                 0057c260 f   LIBCMTD:fputwc.obj
 0001:0017b490       _putwc                     0057c490 f   LIBCMTD:fputwc.obj
 0001:0017b4b0       _ungetc                    0057c4b0 f   LIBCMTD:ungetc.obj
 0001:0017b520       __ungetc_lk                0057c520 f   LIBCMTD:ungetc.obj
 0001:0017b660       ___strgtold12              0057c660 f   LIBCMTD:strgtold.obj
 0001:0017c190       ___STRINGTOLD              0057d190 f   LIBCMTD:strgtold.obj
 0001:0017c1e0       ___crtGetStringTypeA       0057d1e0 f   LIBCMTD:a_str.obj
 0001:0017c3a0       __fcloseall                0057d3a0 f   LIBCMTD:closeall.obj
 0001:0017c480       __alloc_osfhnd             0057d480 f   LIBCMTD:osfinfo.obj
 0001:0017c670       __set_osfhnd               0057d670 f   LIBCMTD:osfinfo.obj
 0001:0017c730       __free_osfhnd              0057d730 f   LIBCMTD:osfinfo.obj
 0001:0017c810       __get_osfhandle            0057d810 f   LIBCMTD:osfinfo.obj
 0001:0017c880       __open_osfhandle           0057d880 f   LIBCMTD:osfinfo.obj
 0001:0017c990       __lock_fhandle             0057d990 f   LIBCMTD:osfinfo.obj
 0001:0017ca20       __unlock_fhandle           0057da20 f   LIBCMTD:osfinfo.obj
 0001:0017ca50       __open                     0057da50 f   LIBCMTD:open.obj
 0001:0017ca90       __sopen                    0057da90 f   LIBCMTD:open.obj
 0001:0017cff0       __matherr                  0057dff0 f   LIBCMTD:matherr.obj
 0001:0017d000       __ismbbkalnum              0057e000 f   LIBCMTD:ismbbyte.obj
 0001:0017d020       __ismbbkprint              0057e020 f   LIBCMTD:ismbbyte.obj
 0001:0017d040       __ismbbkpunct              0057e040 f   LIBCMTD:ismbbyte.obj
 0001:0017d060       __ismbbalnum               0057e060 f   LIBCMTD:ismbbyte.obj
 0001:0017d080       __ismbbalpha               0057e080 f   LIBCMTD:ismbbyte.obj
 0001:0017d0a0       __ismbbgraph               0057e0a0 f   LIBCMTD:ismbbyte.obj
 0001:0017d0c0       __ismbbprint               0057e0c0 f   LIBCMTD:ismbbyte.obj
 0001:0017d0e0       __ismbbpunct               0057e0e0 f   LIBCMTD:ismbbyte.obj
 0001:0017d100       __ismbblead                0057e100 f   LIBCMTD:ismbbyte.obj
 0001:0017d120       __ismbbtrail               0057e120 f   LIBCMTD:ismbbyte.obj
 0001:0017d140       __ismbbkana                0057e140 f   LIBCMTD:ismbbyte.obj
 0001:0017d1f0       __setmbcp                  0057e1f0 f   LIBCMTD:mbctype.obj
 0001:0017d9b0       __getmbcp                  0057e9b0 f   LIBCMTD:mbctype.obj
 0001:0017d9d0       ___initmbctable            0057e9d0 f   LIBCMTD:mbctype.obj
 0001:0017da00       _strtol                    0057ea00 f   LIBCMTD:strtol.obj
 0001:0017dd60       _strtoul                   0057ed60 f   LIBCMTD:strtol.obj
 0001:0017dd80       _strstr                    0057ed80 f   LIBCMTD:strstr.obj
 0001:0017de00       _strncmp                   0057ee00 f   LIBCMTD:strncmp.obj
 0001:0017de40       _setlocale                 0057ee40 f   LIBCMTD:setlocal.obj
 0001:0017e4d0       __expandlocale             0057f4d0 f   LIBCMTD:setlocal.obj
 0001:0017e660       ___init_dummy              0057f660 f   LIBCMTD:setlocal.obj
 0001:0017e670       __strcats                  0057f670 f   LIBCMTD:setlocal.obj
 0001:0017e6c0       ___lc_strtolc              0057f6c0 f   LIBCMTD:setlocal.obj
 0001:0017e820       ___lc_lctostr              0057f820 f   LIBCMTD:setlocal.obj
 0001:0017e890       ___crtLCMapStringA         0057f890 f   LIBCMTD:a_map.obj
 0001:0017ebf0       ___addl                    0057fbf0 f   LIBCMTD:mantold.obj
 0001:0017ec30       ___add_12                  0057fc30 f   LIBCMTD:mantold.obj
 0001:0017ece0       ___shl_12                  0057fce0 f   LIBCMTD:mantold.obj
 0001:0017ed40       ___shr_12                  0057fd40 f   LIBCMTD:mantold.obj
 0001:0017edb0       ___mtold12                 0057fdb0 f   LIBCMTD:mantold.obj
 0001:0017eef0       _$I10_OUTPUT               0057fef0 f   LIBCMTD:x10fout.obj
 0001:0017f410       __flswbuf                  00580410 f   LIBCMTD:_flswbuf.obj
 0001:0017f6a0       ___ld12mul                 005806a0 f   LIBCMTD:tenpow.obj
 0001:0017fae0       ___multtenpow12            00580ae0 f   LIBCMTD:tenpow.obj
 0001:0017fbb0       __chsize                   00580bb0 f   LIBCMTD:chsize.obj
 0001:0017fc30       __chsize_lk                00580c30 f   LIBCMTD:chsize.obj
 0001:0017fe60       __toupper                  00580e60 f   LIBCMTD:toupper.obj
 0001:0017fe70       _toupper                   00580e70 f   LIBCMTD:toupper.obj
 0001:0017ff10       __toupper_lk               00580f10 f   LIBCMTD:toupper.obj
 0001:00180040       ___init_time               00581040 f   LIBCMTD:inittime.obj
 0001:001809c0       ___init_numeric            005819c0 f   LIBCMTD:initnum.obj
 0001:00180cf0       ___init_monetary           00581cf0 f   LIBCMTD:initmon.obj
 0001:00181150       ___init_ctype              00582150 f   LIBCMTD:initctyp.obj
 0001:001814f0       ___init_collate            005824f0 f   LIBCMTD:initcoll.obj
 0001:00181500       _strcspn                   00582500 f   LIBCMTD:strcspn.obj
 0001:00181540       _strpbrk                   00582540 f   LIBCMTD:strpbrk.obj
 0001:00181580       ___get_qualified_locale    00582580 f   LIBCMTD:getqloc.obj
 0001:00182320       __setmode                  00583320 f   LIBCMTD:setmode.obj
 0001:001823a0       __setmode_lk               005833a0 f   LIBCMTD:setmode.obj
 0001:00182470       __Getdays                  00583470 f   LIBCMTD:strftime.obj
 0001:001825a0       __Getmonths                005835a0 f   LIBCMTD:strftime.obj
 0001:001826d0       __Gettnames                005836d0 f   LIBCMTD:strftime.obj
 0001:00182a40       _strftime                  00583a40 f   LIBCMTD:strftime.obj
 0001:00182a60       __Strftime                 00583a60 f   LIBCMTD:strftime.obj
 0001:001838e0       ___getlocaleinfo           005848e0 f   LIBCMTD:inithelp.obj
 0001:00183b70       _localeconv                00584b70 f   LIBCMTD:lconv.obj
 0001:00183b80       ___crtGetStringTypeW       00584b80 f   LIBCMTD:w_str.obj
 0001:00183df0       _stricmp                   00584df0 f   LIBCMTD:stricmp.obj
 0001:00183df0       _strcmpi                   00584df0 f   LIBCMTD:stricmp.obj
 0001:00183df0       __stricmp                  00584df0 f   LIBCMTD:stricmp.obj
 0001:00183df0       __strcmpi                  00584df0 f   LIBCMTD:stricmp.obj
 0001:00183ec0       __strnicmp                 00584ec0 f   LIBCMTD:strnicmp.obj
 0001:00183fd0       ___tzset                   00584fd0 f   LIBCMTD:tzset.obj
 0001:00184010       __tzset                    00585010 f   LIBCMTD:tzset.obj
 0001:001843e0       __isindst                  005853e0 f   LIBCMTD:tzset.obj
 0001:00184910       ___crtGetLocaleInfoW       00585910 f   LIBCMTD:w_loc.obj
 0001:00184ab0       ___crtGetLocaleInfoA       00585ab0 f   LIBCMTD:a_loc.obj
 0001:00184c60       _getenv                    00585c60 f   LIBCMTD:getenv.obj
 0001:00184c90       __getenv_lk                00585c90 f   LIBCMTD:getenv.obj
 0001:00184d60       __mbsnbicoll               00585d60 f   LIBCMTD:mbsnbico.obj
 0001:00184db0       ___wtomb_environ           00585db0 f   LIBCMTD:wtombenv.obj
 0001:00184e60       ___crtCompareStringA       00585e60 f   LIBCMTD:a_cmp.obj
 0001:001852b0       ___crtsetenv               005862b0 f   LIBCMTD:setenv.obj
 0001:00185700       __mbschr                   00586700 f   LIBCMTD:mbschr.obj
 0001:001857f0       _VirtualAlloc@16           005867f0 f   kernel32:KERNEL32.dll
 0001:001857f6       _VirtualFree@12            005867f6 f   kernel32:KERNEL32.dll
 0001:001857fc       _LocalFree@4               005867fc f   kernel32:KERNEL32.dll
 0001:00185802       _FormatMessageA@28         00586802 f   kernel32:KERNEL32.dll
 0001:00185808       _GetLastError@0            00586808 f   kernel32:KERNEL32.dll
 0001:0018580e       _GetModuleFileNameA@12     0058680e f   kernel32:KERNEL32.dll
 0001:00185814       _GetProcAddress@8          00586814 f   kernel32:KERNEL32.dll
 0001:0018581a       _GetModuleHandleA@4        0058681a f   kernel32:KERNEL32.dll
 0001:00185820       _CreateMutexA@12           00586820 f   kernel32:KERNEL32.dll
 0001:00185826       _GlobalMemoryStatus@4      00586826 f   kernel32:KERNEL32.dll
 0001:0018582c       _GetVersionExA@4           0058682c f   kernel32:KERNEL32.dll
 0001:00185832       _GetComputerNameA@8        00586832 f   kernel32:KERNEL32.dll
 0001:00185838       _CloseHandle@4             00586838 f   kernel32:KERNEL32.dll
 0001:0018583e       _ReleaseMutex@4            0058683e f   kernel32:KERNEL32.dll
 0001:00185844       _WaitForSingleObject@8     00586844 f   kernel32:KERNEL32.dll
 0001:0018584a       _GetLocalTime@4            0058684a f   kernel32:KERNEL32.dll
 0001:00185850       _SetThreadPriority@8       00586850 f   kernel32:KERNEL32.dll
 0001:00185856       _CreateThread@24           00586856 f   kernel32:KERNEL32.dll
 0001:0018585c       _CreateEventA@16           0058685c f   kernel32:KERNEL32.dll
 0001:00185862       _SetEvent@4                00586862 f   kernel32:KERNEL32.dll
 0001:00185868       _QueryPerformanceFrequency@4 00586868 f   kernel32:KERNEL32.dll
 0001:0018586e       _Sleep@4                   0058686e f   kernel32:KERNEL32.dll
 0001:00185874       _GetTickCount@0            00586874 f   kernel32:KERNEL32.dll
 0001:0018587a       _QueryPerformanceCounter@4 0058687a f   kernel32:KERNEL32.dll
 0001:00185880       _ResetEvent@4              00586880 f   kernel32:KERNEL32.dll
 0001:00185886       _GetCurrentThread@0        00586886 f   kernel32:KERNEL32.dll
 0001:0018588c       _GetCommandLineA@0         0058688c f   kernel32:KERNEL32.dll
 0001:00185892       _GetFileInformationByHandle@8 00586892 f   kernel32:KERNEL32.dll
 0001:00185898       _CreateFileA@28            00586898 f   kernel32:KERNEL32.dll
 0001:0018589e       _GetCurrentProcessId@0     0058689e f   kernel32:KERNEL32.dll
 0001:001858a4       _LoadLibraryA@4            005868a4 f   kernel32:KERNEL32.dll
 0001:001858aa       _GetCurrentProcess@0       005868aa f   kernel32:KERNEL32.dll
 0001:001858b0       _WriteFile@20              005868b0 f   kernel32:KERNEL32.dll
 0001:001858b6       _SetFilePointer@16         005868b6 f   kernel32:KERNEL32.dll
 0001:001858bc       _FileTimeToSystemTime@8    005868bc f   kernel32:KERNEL32.dll
 0001:001858c2       _LocalUnlock@4             005868c2 f   kernel32:KERNEL32.dll
 0001:001858c8       _LocalLock@4               005868c8 f   kernel32:KERNEL32.dll
 0001:001858ce       _LocalAlloc@8              005868ce f   kernel32:KERNEL32.dll
 0001:001858d4       _FindClose@4               005868d4 f   kernel32:KERNEL32.dll
 0001:001858da       _FindNextFileA@8           005868da f   kernel32:KERNEL32.dll
 0001:001858e0       _FileTimeToLocalFileTime@8 005868e0 f   kernel32:KERNEL32.dll
 0001:001858e6       _FindFirstFileA@8          005868e6 f   kernel32:KERNEL32.dll
 0001:001858ec       _DeleteFileA@4             005868ec f   kernel32:KERNEL32.dll
 0001:001858f2       _OutputDebugStringW@4      005868f2 f   kernel32:KERNEL32.dll
 0001:001858f8       _OutputDebugStringA@4      005868f8 f   kernel32:KERNEL32.dll
 0001:001858fe       _WideCharToMultiByte@32    005868fe f   kernel32:KERNEL32.dll
 0001:00185904       _MultiByteToWideChar@24    00586904 f   kernel32:KERNEL32.dll
 0001:0018590a       _GetFileSize@8             0058690a f   kernel32:KERNEL32.dll
 0001:00185910       _MapViewOfFile@20          00586910 f   kernel32:KERNEL32.dll
 0001:00185916       _CreateFileMappingA@24     00586916 f   kernel32:KERNEL32.dll
 0001:0018591c       _CreateFileW@28            0058691c f   kernel32:KERNEL32.dll
 0001:00185922       _UnmapViewOfFile@4         00586922 f   kernel32:KERNEL32.dll
 0001:00185928       _HeapFree@12               00586928 f   kernel32:KERNEL32.dll
 0001:0018592e       _GetProcessHeap@0          0058692e f   kernel32:KERNEL32.dll
 0001:00185934       _LockResource@4            00586934 f   kernel32:KERNEL32.dll
 0001:0018593a       _LoadResource@8            0058693a f   kernel32:KERNEL32.dll
 0001:00185940       _SizeofResource@8          00586940 f   kernel32:KERNEL32.dll
 0001:00185946       _FindResourceA@12          00586946 f   kernel32:KERNEL32.dll
 0001:0018594c       _FindResourceW@12          0058694c f   kernel32:KERNEL32.dll
 0001:00185952       _RtlUnwind@16              00586952 f   kernel32:KERNEL32.dll
 0001:00185958       _ExitProcess@4             00586958 f   kernel32:KERNEL32.dll
 0001:0018595e       _TerminateProcess@8        0058695e f   kernel32:KERNEL32.dll
 0001:00185964       _GetStartupInfoA@4         00586964 f   kernel32:KERNEL32.dll
 0001:0018596a       _GetVersion@0              0058696a f   kernel32:KERNEL32.dll
 0001:00185970       _IsBadWritePtr@8           00586970 f   kernel32:KERNEL32.dll
 0001:00185976       _IsBadReadPtr@8            00586976 f   kernel32:KERNEL32.dll
 0001:0018597c       _HeapValidate@12           0058697c f   kernel32:KERNEL32.dll
 0001:00185982       _DebugBreak@0              00586982 f   kernel32:KERNEL32.dll
 0001:00185988       _GetStdHandle@4            00586988 f   kernel32:KERNEL32.dll
 0001:0018598e       _InterlockedDecrement@4    0058698e f   kernel32:KERNEL32.dll
 0001:00185994       _InterlockedIncrement@4    00586994 f   kernel32:KERNEL32.dll
 0001:0018599a       _GetCurrentThreadId@0      0058699a f   kernel32:KERNEL32.dll
 0001:001859a0       _TlsSetValue@8             005869a0 f   kernel32:KERNEL32.dll
 0001:001859a6       _TlsAlloc@0                005869a6 f   kernel32:KERNEL32.dll
 0001:001859ac       _TlsFree@4                 005869ac f   kernel32:KERNEL32.dll
 0001:001859b2       _SetLastError@4            005869b2 f   kernel32:KERNEL32.dll
 0001:001859b8       _TlsGetValue@4             005869b8 f   kernel32:KERNEL32.dll
 0001:001859be       _InitializeCriticalSection@4 005869be f   kernel32:KERNEL32.dll
 0001:001859c4       _DeleteCriticalSection@4   005869c4 f   kernel32:KERNEL32.dll
 0001:001859ca       _EnterCriticalSection@4    005869ca f   kernel32:KERNEL32.dll
 0001:001859d0       _LeaveCriticalSection@4    005869d0 f   kernel32:KERNEL32.dll
 0001:001859d6       _FatalAppExitA@8           005869d6 f   kernel32:KERNEL32.dll
 0001:001859dc       _ReadFile@20               005869dc f   kernel32:KERNEL32.dll
 0001:001859e2       _SetHandleCount@4          005869e2 f   kernel32:KERNEL32.dll
 0001:001859e8       _GetFileType@4             005869e8 f   kernel32:KERNEL32.dll
 0001:001859ee       _RaiseException@16         005869ee f   kernel32:KERNEL32.dll
 0001:001859f4       _UnhandledExceptionFilter@4 005869f4 f   kernel32:KERNEL32.dll
 0001:001859fa       _FreeEnvironmentStringsA@4 005869fa f   kernel32:KERNEL32.dll
 0001:00185a00       _FreeEnvironmentStringsW@4 00586a00 f   kernel32:KERNEL32.dll
 0001:00185a06       _GetEnvironmentStrings@0   00586a06 f   kernel32:KERNEL32.dll
 0001:00185a0c       _GetEnvironmentStringsW@0  00586a0c f   kernel32:KERNEL32.dll
 0001:00185a12       _GetEnvironmentVariableA@12 00586a12 f   kernel32:KERNEL32.dll
 0001:00185a18       _HeapDestroy@4             00586a18 f   kernel32:KERNEL32.dll
 0001:00185a1e       _HeapCreate@12             00586a1e f   kernel32:KERNEL32.dll
 0001:00185a24       _HeapAlloc@12              00586a24 f   kernel32:KERNEL32.dll
 0001:00185a2a       _HeapReAlloc@16            00586a2a f   kernel32:KERNEL32.dll
 0001:00185a30       _SetConsoleCtrlHandler@8   00586a30 f   kernel32:KERNEL32.dll
 0001:00185a36       _FlushFileBuffers@4        00586a36 f   kernel32:KERNEL32.dll
 0001:00185a3c       _SetUnhandledExceptionFilter@4 00586a3c f   kernel32:KERNEL32.dll
 0001:00185a42       _IsBadCodePtr@4            00586a42 f   kernel32:KERNEL32.dll
 0001:00185a48       _GetStringTypeA@20         00586a48 f   kernel32:KERNEL32.dll
 0001:00185a4e       _GetStringTypeW@16         00586a4e f   kernel32:KERNEL32.dll
 0001:00185a54       _SetStdHandle@8            00586a54 f   kernel32:KERNEL32.dll
 0001:00185a5a       _GetCPInfo@8               00586a5a f   kernel32:KERNEL32.dll
 0001:00185a60       _GetACP@0                  00586a60 f   kernel32:KERNEL32.dll
 0001:00185a66       _GetOEMCP@0                00586a66 f   kernel32:KERNEL32.dll
 0001:00185a6c       _LCMapStringA@24           00586a6c f   kernel32:KERNEL32.dll
 0001:00185a72       _LCMapStringW@24           00586a72 f   kernel32:KERNEL32.dll
 0001:00185a78       _SetEndOfFile@4            00586a78 f   kernel32:KERNEL32.dll
 0001:00185a7e       _IsValidLocale@8           00586a7e f   kernel32:KERNEL32.dll
 0001:00185a84       _IsValidCodePage@4         00586a84 f   kernel32:KERNEL32.dll
 0001:00185a8a       _GetLocaleInfoA@16         00586a8a f   kernel32:KERNEL32.dll
 0001:00185a90       _EnumSystemLocalesA@8      00586a90 f   kernel32:KERNEL32.dll
 0001:00185a96       _GetUserDefaultLCID@0      00586a96 f   kernel32:KERNEL32.dll
 0001:00185a9c       _GetTimeZoneInformation@4  00586a9c f   kernel32:KERNEL32.dll
 0001:00185aa2       _GetLocaleInfoW@16         00586aa2 f   kernel32:KERNEL32.dll
 0001:00185aa8       _CompareStringA@24         00586aa8 f   kernel32:KERNEL32.dll
 0001:00185aae       _CompareStringW@24         00586aae f   kernel32:KERNEL32.dll
 0001:00185ab4       _SetEnvironmentVariableA@8 00586ab4 f   kernel32:KERNEL32.dll
 0001:00185aba       _MessageBoxA@16            00586aba f   user32:USER32.dll
 0001:00185ac0       _SetWindowTextA@8          00586ac0 f   user32:USER32.dll
 0001:00185ac6       _DispatchMessageA@4        00586ac6 f   user32:USER32.dll
 0001:00185acc       _TranslateMessage@4        00586acc f   user32:USER32.dll
 0001:00185ad2       _PeekMessageA@20           00586ad2 f   user32:USER32.dll
 0001:00185ad8       _ShowCursor@4              00586ad8 f   user32:USER32.dll
 0001:00185ade       _PostMessageA@16           00586ade f   user32:USER32.dll
 0001:00185ae4       _MsgWaitForMultipleObjects@20 00586ae4 f   user32:USER32.dll
 0001:00185aea       _CreateWindowExA@48        00586aea f   user32:USER32.dll
 0001:00185af0       _AdjustWindowRect@12       00586af0 f   user32:USER32.dll
 0001:00185af6       _RegisterClassA@4          00586af6 f   user32:USER32.dll
 0001:00185afc       _LoadCursorA@8             00586afc f   user32:USER32.dll
 0001:00185b02       _DefWindowProcA@16         00586b02 f   user32:USER32.dll
 0001:00185b08       _PostQuitMessage@4         00586b08 f   user32:USER32.dll
 0001:00185b0e       _wvsprintfA@12             00586b0e f   user32:USER32.dll
 0001:00185b14       _SetWindowPos@28           00586b14 f   user32:USER32.dll
 0001:00185b1a       _SystemParametersInfoA@16  00586b1a f   user32:USER32.dll
 0001:00185b20       _AdjustWindowRectEx@16     00586b20 f   user32:USER32.dll
 0001:00185b26       _MessageBoxW@16            00586b26 f   user32:USER32.dll
 0001:00185b2c       _DrawTextA@20              00586b2c f   user32:USER32.dll
 0001:00185b32       _DrawTextW@20              00586b32 f   user32:USER32.dll
 0001:00185b38       _GetStockObject@4          00586b38 f   gdi32:GDI32.dll
 0001:00185b3e       _GetObjectA@12             00586b3e f   gdi32:GDI32.dll
 0001:00185b44       _DeleteObject@4            00586b44 f   gdi32:GDI32.dll
 0001:00185b4a       _CreateFontIndirectA@4     00586b4a f   gdi32:GDI32.dll
 0001:00185b50       _DeleteDC@4                00586b50 f   gdi32:GDI32.dll
 0001:00185b56       _SelectObject@8            00586b56 f   gdi32:GDI32.dll
 0001:00185b5c       _SetTextColor@8            00586b5c f   gdi32:GDI32.dll
 0001:00185b62       _SetBkColor@8              00586b62 f   gdi32:GDI32.dll
 0001:00185b68       _SetBkMode@8               00586b68 f   gdi32:GDI32.dll
 0001:00185b6e       _CreateDIBSection@24       00586b6e f   gdi32:GDI32.dll
 0001:00185b74       _CreateCompatibleDC@4      00586b74 f   gdi32:GDI32.dll
 0001:00185b80       ?bInitSound@@YAHXZ         00586b80 f   bSound:bSound.obj
 0001:00185bd0       ?bShutdownSound@@YAXXZ     00586bd0 f   bSound:bSound.obj
 0001:00185bf0       ?bmInitACMeshInstance@@YAPAU_TBACMeshInstance@@QAU1@QAU_TBACMesh@@QAU_TBActorInstance@@@Z 00586bf0 f   bMaths:animatingCollision.obj
 0001:00185f00       ?bmFreeACMeshInstance@@YAXPAU_TBACMeshInstance@@@Z 00586f00 f   bMaths:animatingCollision.obj
 0001:00185f50       ?bLoadAnimatingCollisionMeshByCRC@@YAPAU_TBACMesh@@PAU_TBPackageIndex@@I@Z 00586f50 f   bMaths:animatingCollision.obj
 0001:00186070       ?bDeleteAnimatingCollisionMesh@@YAXPAU_TBACMesh@@@Z 00587070 f   bMaths:animatingCollision.obj
 0001:001860a0       ?bmCollideACMeshInstanceSphere@@YA?AW4_TBCollisionType@@QBU_TBACMeshInstance@@QBU_TBCollisionSphere@@QAU_TBAnimatingCollisionInfo@@@Z 005870a0 f   bMaths:animatingCollision.obj
 0001:00186180       ?bCollideACMeshInstanceNodeSphere@@YA?AW4_TBCollisionType@@QBU_TBACMeshInstance@@QBU_TBACMeshInstanceNode@@QBU_TBCollisionSphere@@QAU_TBAnimatingCollisionInfo@@@Z 00587180 f   bMaths:animatingCollision.obj
 0001:001867c0       ?bmCollideRotTrianglePoint@@YAHQBU_TBCollisionTriangle@@QBM11QAU_TBCollisionInfo@@@Z 005877c0 f   bMaths:animatingCollision.obj
 0001:00186f70       ?bmCollideRotTriangleSphere@@YAHQBU_TBCollisionTriangle@@QBU_TBCollisionSphere@@QBM2QAU_TBCollisionInfo@@@Z 00587f70 f   bMaths:animatingCollision.obj
 0001:00187b40       ?bmCollideSphereACMeshInstance@@YAHQBU_TBCollisionSphere@@QBU_TBACMeshInstance@@QBMQAHQAU_TBAnimatingCollisionInfo@@@Z 00588b40 f   bMaths:animatingCollision.obj
 0001:00187cb0       ?bCollideSphereACMeshInstanceNode@@YAHQBU_TBCollisionSphere@@QBU_TBACMeshInstance@@QBU_TBACMeshInstanceNode@@QBMHQAHQAU_TBAnimatingCollisionInfo@@@Z 00588cb0 f   bMaths:animatingCollision.obj
 0001:00188120       ?bmCollideRayACMeshInstance@@YAHQBU_TBCollisionRay@@QBU_TBACMeshInstance@@QAHQAU_TBAnimatingCollisionInfo@@@Z 00589120 f   bMaths:animatingCollision.obj
 0001:001882b0       ?bCollideRayACMeshInstanceNode@@YAHQBU_TBCollisionRay@@QBU_TBACMeshInstance@@QBU_TBACMeshInstanceNode@@HQAHQAU_TBAnimatingCollisionInfo@@@Z 005892b0 f   bMaths:animatingCollision.obj
 0001:00188710       ?bmUpdateACMeshInstance@@YAXQAU_TBACMeshInstance@@@Z 00589710 f   bMaths:animatingCollision.obj
 0001:00188730       ?bUpdateACMeshInstanceNode@@YAXQAU_TBACMeshInstanceNode@@@Z 00589730 f   bMaths:animatingCollision.obj
 0001:00188830       ?bmFindACMeshNodeByCRC@@YAPAU_TBACMeshInstanceNode@@QAU1@I@Z 00589830 f   bMaths:animatingCollision.obj
 0001:001888b0       ?bmFindACMeshNode@@YAPAU_TBACMeshInstanceNode@@QAU1@QAD@Z 005898b0 f   bMaths:animatingCollision.obj
 0001:001888e0       ?bInitMaths@@YAXXZ         005898e0 f   bMaths:pcbMaths.obj
 0001:001888f0       ?bShutdownMaths@@YAXXZ     005898f0 f   bMaths:pcbMaths.obj
 0001:00188900       ?bkInitStopwatch@@YAXPAU_TBStopwatch@@H@Z 00589900 f   bKernel:timer.obj
 0001:00188940       ?bkStartStopwatch@@YAXPAU_TBStopwatch@@@Z 00589940 f   bKernel:timer.obj
 0001:00188960       ?bkStopStopwatch@@YAHPAU_TBStopwatch@@@Z 00589960 f   bKernel:timer.obj
 0001:00188a00       ?bCheckSignature@@YAXXZ    00589a00 f   bKernel:encryption.obj
 0001:00188ba0       _strlwr                    00589ba0 f   LIBCMTD:strlwr.obj
 0001:00188ba0       __strlwr                   00589ba0 f   LIBCMTD:strlwr.obj
 0002:0000001c       ??_C@_06HEOI@react4?$AA@   0058e01c     alligator.obj
 0002:00000024       ??_C@_06CBAN@react3?$AA@   0058e024     alligator.obj
 0002:0000002c       ??_C@_05EBNC@dive3?$AA@    0058e02c     alligator.obj
 0002:00000034       ??_C@_0N@MNFG@ra_landwater?$AA@ 0058e034     alligator.obj
 0002:00000044       ??_C@_05OLEF@dive2?$AA@    0058e044     alligator.obj
 0002:0000004c       ??_C@_0M@LCHN@ra_jumpback?$AA@ 0058e04c     alligator.obj
 0002:00000058       ??_C@_05BEPM@dive1?$AA@    0058e058     alligator.obj
 0002:00000060       ??_C@_05MFBI@turn2?$AA@    0058e060     alligator.obj
 0002:00000068       ??_C@_06ILJK@react2?$AA@   0058e068     alligator.obj
 0002:00000070       ??_C@_07LDAA@attack7?$AA@  0058e070     alligator.obj
 0002:00000078       ??_C@_07BJJH@attack6?$AA@  0058e078     alligator.obj
 0002:00000080       ??_C@_07OGCO@attack5?$AA@  0058e080     alligator.obj
 0002:00000088       ??_C@_07NEIH@ra_land?$AA@  0058e088     alligator.obj
 0002:00000090       ??_C@_05KBAE@jump2?$AA@    0058e090     alligator.obj
 0002:00000098       ??_C@_07FKII@ra_jump?$AA@  0058e098     alligator.obj
 0002:000000a0       ??_C@_05FOLN@jump1?$AA@    0058e0a0     alligator.obj
 0002:000000a8       ??_C@_05GMOE@swim1?$AA@    0058e0a8     alligator.obj
 0002:000000b0       ??_C@_07BJFM@attack3?$AA@  0058e0b0     alligator.obj
 0002:000000b8       ??_C@_07LDML@attack2?$AA@  0058e0b8     alligator.obj
 0002:000000c0       ??_C@_04LKFJ@jump?$AA@     0058e0c0     alligator.obj
 0002:000000c8       ??_C@_06HECD@react1?$AA@   0058e0c8     alligator.obj
 0002:000000d0       ??_C@_05OPDA@idle3?$AA@    0058e0d0     alligator.obj
 0002:000000d8       ??_C@_05LKNF@idle4?$AA@    0058e0d8     alligator.obj
 0002:000000e0       ??_C@_0N@NDNN@checkrattack?$AA@ 0058e0e0     alligator.obj
 0002:000000f0       ??_C@_05JDFN@swim2?$AA@    0058e0f0     alligator.obj
 0002:000000f8       ??_C@_0BA@KPDO@External?5Object?$AA@ 0058e0f8     alligator.obj
 0002:00000108       ??_C@_0BA@NDPA@taz_gen_10a?4wav?$AA@ 0058e108     alligator.obj
 0002:00000118       ??_C@_0L@INOG@recover22c?$AA@ 0058e118     alligator.obj
 0002:00000124       __real@4@3fff8ccccd0000000000 0058e124     alligator.obj
 0002:00000128       __real@4@3fffa000000000000000 0058e128     alligator.obj
 0002:0000012c       __real@4@00000000000000000000 0058e12c     alligator.obj
 0002:00000130       __real@4@400dc350000000000000 0058e130     alligator.obj
 0002:00000134       ??_C@_08JGJL@bounceup?$AA@ 0058e134     alligator.obj
 0002:00000140       __real@4@4005fa00000000000000 0058e140     alligator.obj
 0002:00000144       ??_C@_04FGBI@brow?$AA@     0058e144     alligator.obj
 0002:0000014c       ??_C@_0BG@CNLG@genericAI?9?$DOcustomData?$AA@ 0058e14c     alligator.obj
 0002:00000164       ??_C@_0BM@CKFF@C?3?2Taz?2Source?2alligator?4cpp?$AA@ 0058e164     alligator.obj
 0002:00000180       ??_C@_0L@KFGM@spinelower?$AA@ 0058e180     alligator.obj
 0002:0000018c       ??_C@_06HNDN@tail01?$AA@   0058e18c     alligator.obj
 0002:00000194       ??_C@_06ILFB@react7?$AA@   0058e194     apes.obj
 0002:0000019c       ??_C@_06CBMG@react6?$AA@   0058e19c     apes.obj
 0002:000001a4       ??_C@_06NOHP@react5?$AA@   0058e1a4     apes.obj
 0002:000001ac       ??_C@_07EMHC@attack1?$AA@  0058e1ac     apes.obj
 0002:000001b4       ??_C@_05LAP@walk1?$AA@     0058e1b4     apes.obj
 0002:000001bc       ??_C@_05BAEC@idle5?$AA@    0058e1bc     apes.obj
 0002:000001c4       ??_C@_05FOCB@walk3?$AA@    0058e1c4     apes.obj
 0002:000001cc       ??_C@_06KHCK@idle10?$AA@   0058e1cc     apes.obj
 0002:000001d4       ??_C@_05OPPL@idle6?$AA@    0058e1d4     apes.obj
 0002:000001dc       ??_C@_05EFKH@idle2?$AA@    0058e1dc     apes.obj
 0002:000001e4       ??_C@_05LKBO@idle1?$AA@    0058e1e4     apes.obj
 0002:000001ec       ??_C@_05PELG@walk2?$AA@    0058e1ec     apes.obj
 0002:000001f4       ??_C@_0BA@EHBG@sam_voc_08a?4wav?$AA@ 0058e1f4     apes.obj
 0002:00000204       ??_C@_0BA@MMIN@sam_voc_17b?4wav?$AA@ 0058e204     apes.obj
 0002:00000214       ??_C@_0BA@HKC@sam_voc_15a?4wav?$AA@ 0058e214     apes.obj
 0002:00000224       ??_C@_08JHBH@lfingers?$AA@ 0058e224     apes.obj
 0002:00000230       ??_C@_0L@CODI@recover12d?$AA@ 0058e230     apes.obj
 0002:0000023c       ??_C@_08OEGN@rfingers?$AA@ 0058e23c     apes.obj
 0002:00000248       ??_C@_05BLDL@lfoot?$AA@    0058e248     apes.obj
 0002:00000250       __real@4@3fff8000000000000000 0058e250     apes.obj
 0002:00000254       ??_C@_0L@BMIO@recover21b?$AA@ 0058e254     apes.obj
 0002:00000260       ??_C@_0O@IOOI@sb_recovernow?$AA@ 0058e260     apes.obj
 0002:00000270       ??_C@_0BH@EGEJ@C?3?2Taz?2Source?2apes?4cpp?$AA@ 0058e270     apes.obj
 0002:00000288       ??_C@_06LGAE@death2?$AA@   0058e288     bears.obj
 0002:00000290       ??_C@_08FLML@stunned1?$AA@ 0058e290     bears.obj
 0002:0000029c       ??_C@_09PPNH@snowball3?$AA@ 0058e29c     bears.obj
 0002:000002a8       ??_C@_05LJBC@throw?$AA@    0058e2a8     bears.obj
 0002:000002b0       ??_C@_09FFEA@snowball2?$AA@ 0058e2b0     bears.obj
 0002:000002bc       ??_C@_06BNDA@pickup?$AA@   0058e2bc     bears.obj
 0002:000002c4       ??_C@_09KKPJ@snowball1?$AA@ 0058e2c4     bears.obj
 0002:000002d0       ??_C@_0M@CGPG@still?5sniff?$AA@ 0058e2d0     bears.obj
 0002:000002dc       ??_C@_0M@DFOP@smell?5crawl?$AA@ 0058e2dc     bears.obj
 0002:000002e8       ??_C@_0L@CFKF@armlfinger?$AA@ 0058e2e8     bears.obj
 0002:000002f4       ??_C@_0N@GALD@snowball?4obe?$AA@ 0058e2f4     bears.obj
 0002:00000304       ??_C@_08FBKD@snowbone?$AA@ 0058e304     bears.obj
 0002:00000310       ??_C@_05OOKG@idle9?$AA@    0058e310     buzzard.obj
 0002:00000318       ??_C@_05EEDB@idle8?$AA@    0058e318     buzzard.obj
 0002:00000320       ??_C@_05EFGM@idle7?$AA@    0058e320     buzzard.obj
 0002:00000328       __real@4@4006d700000000000000 0058e328     buzzard.obj
 0002:0000032c       ??_C@_0DJ@EJJJ@?$CK?$CK?$CK?5WARNING?5?$CK?$CK?$CK?5could?5not?5find?5b@ 0058e32c     buzzard.obj
 0002:00000368       ??_C@_09BCKA@beaky?4obe?$AA@ 0058e368     buzzard.obj
 0002:00000374       ??_C@_0EG@PNJL@?$CK?$CK?$CK?5WARNING?5?$CK?$CK?$CK?5could?5not?5alloca@ 0058e374     buzzard.obj
 0002:000003bc       ??_C@_0BK@MOMI@C?3?2Taz?2Source?2buzzard?4cpp?$AA@ 0058e3bc     buzzard.obj
 0002:000003d8       ??_C@_05PFCA@walk8?$AA@    0058e3d8     constructionbot.obj
 0002:000003e0       ??_C@_06JMNF@idle20?$AA@   0058e3e0     constructionbot.obj
 0002:000003e8       ??_C@_04OLBH@fire?$AA@     0058e3e8     constructionbot.obj
 0002:000003f0       ??_C@_05LME@walk4?$AA@     0058e3f0     constructionbot.obj
 0002:000003f8       ??_C@_06PCMP@idle17?$AA@   0058e3f8     constructionbot.obj
 0002:00000400       ??_C@_06FIFI@idle16?$AA@   0058e400     constructionbot.obj
 0002:00000408       ??_C@_06KHOB@idle15?$AA@   0058e408     constructionbot.obj
 0002:00000410       ??_C@_06FIJD@idle13?$AA@   0058e410     constructionbot.obj
 0002:00000418       ??_C@_06NHG@idle14?$AA@    0058e418     constructionbot.obj
 0002:00000420       ??_C@_06PCAE@idle12?$AA@   0058e420     constructionbot.obj
 0002:00000428       ??_C@_06NLN@idle11?$AA@    0058e428     constructionbot.obj
 0002:00000430       ??_C@_05KBFD@walk5?$AA@    0058e430     constructionbot.obj
 0002:00000438       ??_C@_06FJAF@idle19?$AA@   0058e438     constructionbot.obj
 0002:00000440       ??_C@_05PEHN@walk7?$AA@    0058e440     constructionbot.obj
 0002:00000448       ??_C@_05FOOK@walk6?$AA@    0058e448     constructionbot.obj
 0002:00000450       ??_C@_06PDJC@idle18?$AA@   0058e450     constructionbot.obj
 0002:00000458       ??_C@_05DKKB@turn1?$AA@    0058e458     constructionbot.obj
 0002:00000460       ??_C@_08PHPI@spinetop?$AA@ 0058e460     constructionbot.obj
 0002:0000046c       ??_C@_06EBCC@bullet?$AA@   0058e46c     constructionbot.obj
 0002:00000474       __real@4@40008000000000000000 0058e474     constructionbot.obj
 0002:00000478       ??_C@_09IGAF@rivet?4obe?$AA@ 0058e478     constructionbot.obj
 0002:00000484       ??_C@_0CC@FOBH@C?3?2Taz?2Source?2constructionbot?4cp@ 0058e484     constructionbot.obj
 0002:000004a8       ??_C@_03MKJL@hat?$AA@      0058e4a8     constructionbot.obj
 0002:000004ac       ??_C@_08JBKI@disguise?$AA@ 0058e4ac     constructionworker.obj
 0002:000004b8       ??_C@_06CAJL@react9?$AA@   0058e4b8     constructionworker.obj
 0002:000004c0       ??_C@_06IKAM@react8?$AA@   0058e4c0     constructionworker.obj
 0002:000004c8       ??_C@_0L@FLOD@lowestorso?$AA@ 0058e4c8     constructionworker.obj
 0002:000004d4       ??_C@_05OOPP@rhand?$AA@    0058e4d4     constructionworker.obj
 0002:000004dc       ??_C@_0CF@FDPO@C?3?2Taz?2Source?2constructionworker@ 0058e4dc     constructionworker.obj
 0002:00000504       ??_C@_0BK@JJML@SEQ_ATTACKHOLDDISTANDFACE?$AA@ 0058e504     genericai.obj
 0002:00000520       ??_C@_0M@HHLG@SEQ_DESTROY?$AA@ 0058e520     genericai.obj
 0002:0000052c       ??_C@_09DLML@SEQ_RESET?$AA@ 0058e52c     genericai.obj
 0002:00000538       ??_C@_0L@NMMA@SEQ_PURSUE?$AA@ 0058e538     genericai.obj
 0002:00000544       ??_C@_0BB@GMPI@SEQ_SETVIEWANGLE?$AA@ 0058e544     genericai.obj
 0002:00000558       ??_C@_0BC@JGIO@SEQ_SETCOLLHEIGHT?$AA@ 0058e558     genericai.obj
 0002:0000056c       ??_C@_0BC@OKAI@SEQ_SETCOLLRADIUS?$AA@ 0058e56c     genericai.obj
 0002:00000580       ??_C@_0BD@MADO@SEQ_ENDEXCLAMATION?$AA@ 0058e580     genericai.obj
 0002:00000594       ??_C@_0BF@PBFC@SEQ_STARTEXCLAMATION?$AA@ 0058e594     genericai.obj
 0002:000005ac       ??_C@_0BA@KEE@SEQ_ENDQUESTION?$AA@ 0058e5ac     genericai.obj
 0002:000005bc       ??_C@_0BC@GH@SEQ_STARTQUESTION?$AA@ 0058e5bc     genericai.obj
 0002:000005d0       ??_C@_0L@JCLA@SEQ_ENDZZZ?$AA@ 0058e5d0     genericai.obj
 0002:000005dc       ??_C@_0N@NJBG@SEQ_STARTZZZ?$AA@ 0058e5dc     genericai.obj
 0002:000005ec       ??_C@_0P@MPFE@SEQ_STOPSAMPLE?$AA@ 0058e5ec     genericai.obj
 0002:000005fc       ??_C@_0P@MCHK@SEQ_PLAYSAMPLE?$AA@ 0058e5fc     genericai.obj
 0002:0000060c       ??_C@_0N@CKNI@SEQ_BOUNDARY?$AA@ 0058e60c     genericai.obj
 0002:0000061c       ??_C@_0M@JMKP@SEQ_LOCKSEQ?$AA@ 0058e61c     genericai.obj
 0002:00000628       ??_C@_0P@IHOO@SEQ_MOTIONBONE?$AA@ 0058e628     genericai.obj
 0002:00000638       ??_C@_0N@EEFO@SEQ_ENDSTARS?$AA@ 0058e638     genericai.obj
 0002:00000648       ??_C@_09DAMD@SEQ_STARS?$AA@ 0058e648     genericai.obj
 0002:00000654       ??_C@_0BH@DKNL@SEQ_LOOKAWAYFROMCENTER?$AA@ 0058e654     genericai.obj
 0002:0000066c       ??_C@_0P@NCFG@SEQ_FACECENTER?$AA@ 0058e66c     genericai.obj
 0002:0000067c       ??_C@_0M@OCKB@SEQ_MESSAGE?$AA@ 0058e67c     genericai.obj
 0002:00000688       ??_C@_0BB@KCPF@SEQ_SETANIMSPEED?$AA@ 0058e688     genericai.obj
 0002:0000069c       ??_C@_0BA@BEHD@SEQ_SETROTSPEED?$AA@ 0058e69c     genericai.obj
 0002:000006ac       ??_C@_0BB@DEKA@SEQ_SETBLENDTIME?$AA@ 0058e6ac     genericai.obj
 0002:000006c0       ??_C@_0M@PBOL@SEQ_STUNNED?$AA@ 0058e6c0     genericai.obj
 0002:000006cc       ??_C@_08COPP@SEQ_WAIT?$AA@ 0058e6cc     genericai.obj
 0002:000006d8       ??_C@_0BD@FNIK@SEQ_WALKTOPOSITION?$AA@ 0058e6d8     genericai.obj
 0002:000006ec       ??_C@_0BB@JHKP@SEQ_SAVEPOSITION?$AA@ 0058e6ec     genericai.obj
 0002:00000700       ??_C@_0BF@MCED@SEQ_RESTOREDIRECTION?$AA@ 0058e700     genericai.obj
 0002:00000718       ??_C@_0BC@EGBF@SEQ_SAVEDIRECTION?$AA@ 0058e718     genericai.obj
 0002:0000072c       ??_C@_08JPNJ@SEQ_LOOP?$AA@ 0058e72c     genericai.obj
 0002:00000738       ??_C@_08MKNC@SEQ_WALK?$AA@ 0058e738     genericai.obj
 0002:00000744       ??_C@_07BGHP@SEQ_END?$AA@  0058e744     genericai.obj
 0002:0000074c       ??_C@_0BE@PPDP@SEQ_LOOKAWAYFROMTAZ?$AA@ 0058e74c     genericai.obj
 0002:00000760       ??_C@_0M@NPFO@SEQ_FACETAZ?$AA@ 0058e760     genericai.obj
 0002:0000076c       ??_C@_0L@MBK@SEQ_RETURN?$AA@ 0058e76c     genericai.obj
 0002:00000778       ??_C@_0BC@OBHL@SEQ_ATTACKANDFACE?$AA@ 0058e778     genericai.obj
 0002:0000078c       ??_C@_0L@FPHA@SEQ_ATTACK?$AA@ 0058e78c     genericai.obj
 0002:00000798       ??_C@_09JIMH@SEQ_CHASE?$AA@ 0058e798     genericai.obj
 0002:000007a4       ??_C@_0O@EHOD@SEQ_TURNRIGHT?$AA@ 0058e7a4     genericai.obj
 0002:000007b4       ??_C@_0N@DGNA@SEQ_TURNLEFT?$AA@ 0058e7b4     genericai.obj
 0002:000007c4       ??_C@_08LPJP@SEQ_PLAY?$AA@ 0058e7c4     genericai.obj
 0002:000007d0       ??_C@_0BA@KOJO@AISTATE_COSTUME?$AA@ 0058e7d0     genericai.obj
 0002:000007e0       ??_C@_0BB@KBDB@AISTATE_TOOCLOSE?$AA@ 0058e7e0     genericai.obj
 0002:000007f4       ??_C@_0BD@DAOC@AISTATE_OUTOFRANGE?$AA@ 0058e7f4     genericai.obj
 0002:00000808       ??_C@_0BB@GKFK@AISTATE_OVERRIDE?$AA@ 0058e808     genericai.obj
 0002:0000081c       ??_C@_0O@BLGB@AISTATE_DEATH?$AA@ 0058e81c     genericai.obj
 0002:0000082c       ??_C@_0BB@IDBJ@AISTATE_ATTACKED?$AA@ 0058e82c     genericai.obj
 0002:00000840       ??_C@_0P@LALK@AISTATE_DEFEND?$AA@ 0058e840     genericai.obj
 0002:00000850       ??_C@_0P@HODM@AISTATE_ATTACK?$AA@ 0058e850     genericai.obj
 0002:00000860       ??_C@_0O@HNI@AISTATE_AWARE?$AA@ 0058e860     genericai.obj
 0002:00000870       ??_C@_0N@CLOB@AISTATE_IDLE?$AA@ 0058e870     genericai.obj
 0002:00000880       ??_C@_0M@EABK@AISTATE_NEW?$AA@ 0058e880     genericai.obj
 0002:0000088c       ??_C@_0BB@CLKK@AISTATE_INACTIVE?$AA@ 0058e88c     genericai.obj
 0002:000008a0       __real@4@3fffc90fdb0000000000 0058e8a0     genericai.obj
 0002:000008a4       __real@4@4000c90fdb0000000000 0058e8a4     genericai.obj
 0002:000008a8       __real@4@4006fa00000000000000 0058e8a8     genericai.obj
 0002:000008ac       ??_C@_0BE@GHPM@Actor?5?$CFs?0?5?$CFs?5?9?$DO?5?$CFs?6?$AA@ 0058e8ac     genericai.obj
 0002:000008c0       __real@4@bfff8000000000000000 0058e8c0     genericai.obj
 0002:000008c4       __real@4@3ff98efa350000000000 0058e8c4     genericai.obj
 0002:000008c8       ??_C@_0BC@KKJI@Actor?5?$CFs?0?5seq?5?$CFs?6?$AA@ 0058e8c8     genericai.obj
 0002:000008dc       ??_C@_0BA@BGKJ@exclamation?4tga?$AA@ 0058e8dc     genericai.obj
 0002:000008ec       ??_C@_0BB@DFNN@questionmark?4tga?$AA@ 0058e8ec     genericai.obj
 0002:00000900       ??_C@_07FJHP@one?4tga?$AA@ 0058e900     genericai.obj
 0002:00000908       ??_C@_08MNKN@zero?4tga?$AA@ 0058e908     genericai.obj
 0002:00000914       ??_C@_0BM@JCGM@c?3?2taz?2source?2genericai?4cpp?$AA@ 0058e914     genericai.obj
 0002:00000930       __real@4@4004f000000000000000 0058e930     genericai.obj
 0002:00000934       ??_C@_0P@JGOB@sguard_21a?4wav?$AA@ 0058e934     museumguard.obj
 0002:00000944       ??_C@_0P@DEB@sguard_20a?4wav?$AA@ 0058e944     museumguard.obj
 0002:00000954       ??_C@_0P@NNPO@sguard_18a?4wav?$AA@ 0058e954     museumguard.obj
 0002:00000964       ??_C@_0P@MOBP@sguard_13a?4wav?$AA@ 0058e964     museumguard.obj
 0002:00000974       ??_C@_0P@FLLP@sguard_12a?4wav?$AA@ 0058e974     museumguard.obj
 0002:00000984       ??_C@_0P@OFFP@sguard_11a?4wav?$AA@ 0058e984     museumguard.obj
 0002:00000994       ??_C@_0P@LGOO@keeper_02a?4wav?$AA@ 0058e994     museumguard.obj
 0002:000009a4       ??_C@_07EMLJ@attack4?$AA@  0058e9a4     museumguard.obj
 0002:000009ac       ??_C@_0P@HAPP@sguard_10a?4wav?$AA@ 0058e9ac     museumguard.obj
 0002:000009bc       ??_C@_04OPJ@run2?$AA@      0058e9bc     museumguard.obj
 0002:000009c4       ??_C@_0P@PDGL@sguard_08a?4wav?$AA@ 0058e9c4     museumguard.obj
 0002:000009d4       ??_C@_0P@JNEK@sguard_05a?4wav?$AA@ 0058e9d4     museumguard.obj
 0002:000009e4       ??_C@_04PBEA@run1?$AA@     0058e9e4     museumguard.obj
 0002:000009ec       ??_C@_0P@CGHP@sguard_14a?4wav?$AA@ 0058e9ec     museumguard.obj
 0002:000009fc       ??_C@_0P@HFCK@sguard_02a?4wav?$AA@ 0058e9fc     museumguard.obj
 0002:00000a0c       ??_C@_0P@MLMK@sguard_01a?4wav?$AA@ 0058ea0c     museumguard.obj
 0002:00000a1c       ??_C@_04FHBD@root?$AA@     0058ea1c     museumguard.obj
 0002:00000a24       ??_C@_09PPAP@truncheon?$AA@ 0058ea24     museumguard.obj
 0002:00000a30       ??_C@_0L@KONL@cannonfail?$AA@ 0058ea30     museumguard.obj
 0002:00000a3c       ??_C@_07IELN@rfinger?$AA@  0058ea3c     museumguard.obj
 0002:00000a44       __real@4@4001a000000000000000 0058ea44     museumguard.obj
 0002:00000a48       ??_C@_0BO@POIF@C?3?2Taz?2Source?2museumguard?4cpp?$AA@ 0058ea48     museumguard.obj
 0002:00000a68       ??_C@_0N@INKO@sbot_08a?4wav?$AA@ 0058ea68     securitybot.obj
 0002:00000a78       ??_C@_0N@CFHK@sbot_12a?4wav?$AA@ 0058ea78     securitybot.obj
 0002:00000a88       ??_C@_0N@JLJK@sbot_11a?4wav?$AA@ 0058ea88     securitybot.obj
 0002:00000a98       ??_C@_0N@ODK@sbot_10a?4wav?$AA@ 0058ea98     securitybot.obj
 0002:00000aa8       ??_C@_0N@BIAO@sbot_09a?4wav?$AA@ 0058eaa8     securitybot.obj
 0002:00000ab8       ??_C@_0N@LANK@sbot_13a?4wav?$AA@ 0058eab8     securitybot.obj
 0002:00000ac8       ??_C@_0N@ODIP@sbot_05a?4wav?$AA@ 0058eac8     securitybot.obj
 0002:00000ad8       ??_C@_0N@HGCP@sbot_04a?4wav?$AA@ 0058ead8     securitybot.obj
 0002:00000ae8       ??_C@_0N@LOP@sbot_02a?4wav?$AA@ 0058eae8     securitybot.obj
 0002:00000af8       ??_C@_0N@JOEP@sbot_03a?4wav?$AA@ 0058eaf8     securitybot.obj
 0002:00000b08       ??_C@_0N@LFAP@sbot_01a?4wav?$AA@ 0058eb08     securitybot.obj
 0002:00000b18       ??_C@_07CPDI@mallet2?$AA@  0058eb18     securitybot.obj
 0002:00000b20       ??_C@_0BO@GPNJ@C?3?2Taz?2Source?2securitybot?4cpp?$AA@ 0058eb20     securitybot.obj
 0002:00000b40       ??_C@_05GMCP@swim4?$AA@    0058eb40     shark.obj
 0002:00000b48       ??_C@_05JDJG@swim7?$AA@    0058eb48     shark.obj
 0002:00000b50       ??_C@_05DJAB@swim6?$AA@    0058eb50     shark.obj
 0002:00000b58       ??_C@_0M@JDGB@waterbounce?$AA@ 0058eb58     shark.obj
 0002:00000b64       ??_C@_03JBAP@jaw?$AA@      0058eb64     shark.obj
 0002:00000b68       ??_C@_05DJMK@swim3?$AA@    0058eb68     shark.obj
 0002:00000b70       ??_C@_05MGLI@swim5?$AA@    0058eb70     shark.obj
 0002:00000b78       ??_C@_0BI@NNNF@C?3?2Taz?2Source?2shark?4cpp?$AA@ 0058eb78     shark.obj
 0002:00000b90       ??_C@_0M@JDJM@react3cycle?$AA@ 0058eb90     tazcatcher.obj
 0002:00000b9c       ??_C@_0BA@FLFH@catcher_07a?4wav?$AA@ 0058eb9c     tazcatcher.obj
 0002:00000bac       ??_C@_0BA@MOPH@catcher_06a?4wav?$AA@ 0058ebac     tazcatcher.obj
 0002:00000bbc       ??_C@_09DENI@react1run?$AA@ 0058ebbc     tazcatcher.obj
 0002:00000bc8       ??_C@_0BA@NNH@catcher_03a?4wav?$AA@ 0058ebc8     tazcatcher.obj
 0002:00000bd8       ??_C@_08GEAE@recover3?$AA@ 0058ebd8     tazcatcher.obj
 0002:00000be4       ??_C@_0BA@LGOC@catcher_12a?4wav?$AA@ 0058ebe4     tazcatcher.obj
 0002:00000bf4       ??_C@_06BMJD@death3?$AA@   0058ebf4     tazcatcher.obj
 0002:00000bfc       ??_C@_0BA@IAC@catcher_11a?4wav?$AA@ 0058ebfc     tazcatcher.obj
 0002:00000c0c       ??_C@_06EJLN@death1?$AA@   0058ec0c     tazcatcher.obj
 0002:00000c14       ??_C@_0BA@BODG@catcher_08a?4wav?$AA@ 0058ec14     tazcatcher.obj
 0002:00000c24       ??_C@_08MOJD@recover2?$AA@ 0058ec24     tazcatcher.obj
 0002:00000c30       ??_C@_0BA@JNKC@catcher_10a?4wav?$AA@ 0058ec30     tazcatcher.obj
 0002:00000c40       ??_C@_0BA@ILJG@catcher_09a?4wav?$AA@ 0058ec40     tazcatcher.obj
 0002:00000c50       ??_C@_09FLCO@react2run?$AA@ 0058ec50     tazcatcher.obj
 0002:00000c5c       ??_C@_0BA@CGJH@catcher_01a?4wav?$AA@ 0058ec5c     tazcatcher.obj
 0002:00000c6c       ??_C@_0N@EGBM@blowwhistle1?$AA@ 0058ec6c     tazcatcher.obj
 0002:00000c7c       ??_C@_0BA@CDEC@catcher_13a?4wav?$AA@ 0058ec7c     tazcatcher.obj
 0002:00000c8c       ??_C@_0N@LJKF@blowwhistle2?$AA@ 0058ec8c     tazcatcher.obj
 0002:00000c9c       ??_C@_0BA@MLCC@catcher_14a?4wav?$AA@ 0058ec9c     tazcatcher.obj
 0002:00000cac       ??_C@_03EHIM@run?$AA@      0058ecac     tazcatcher.obj
 0002:00000cb0       ??_C@_0BA@OAGC@catcher_16a?4wav?$AA@ 0058ecb0     tazcatcher.obj
 0002:00000cc0       ??_C@_0BA@FOIC@catcher_15a?4wav?$AA@ 0058ecc0     tazcatcher.obj
 0002:00000cd0       ??_C@_0L@LIDG@sleepcycle?$AA@ 0058ecd0     tazcatcher.obj
 0002:00000cdc       __real@4@4009bb80000000000000 0058ecdc     tazcatcher.obj
 0002:00000ce0       ??_C@_06DPKL@handle?$AA@   0058ece0     tazcatcher.obj
 0002:00000ce8       ??_C@_0BN@HOFG@C?3?2Taz?2Source?2tazcatcher?4cpp?$AA@ 0058ece8     tazcatcher.obj
 0002:00000d08       ??_C@_06MDLL@tweety?$AA@   0058ed08     tweety.obj
 0002:00000d10       ??_C@_0CH@FIEH@?$CK?$CK?$CK?5ERROR?5?$CK?$CK?$CK?5Could?5not?5create?5t@ 0058ed10     tweety.obj
 0002:00000d38       ??_C@_0L@JDIJ@tweety?4obe?$AA@ 0058ed38     tweety.obj
 0002:00000d44       __real@4@3ffacccccd0000000000 0058ed44     tweety.obj
 0002:00000d48       __real@4@400bea60000000000000 0058ed48     tweety.obj
 0002:00000d4c       ??_C@_08EAEM@flyright?$AA@ 0058ed4c     tweety.obj
 0002:00000d58       ??_C@_07CAKK@flyback?$AA@  0058ed58     tweety.obj
 0002:00000d60       ??_C@_07HJKB@flyleft?$AA@  0058ed60     tweety.obj
 0002:00000d68       ??_C@_04NJBM@fly1?$AA@     0058ed68     tweety.obj
 0002:00000d70       __real@4@400196cbe40000000000 0058ed70     tweety.obj
 0002:00000d74       __real@4@3ffec90fdb0000000000 0058ed74     tweety.obj
 0002:00000d78       __real@4@40078980000000000000 0058ed78     tweety.obj
 0002:00000d7c       __real@4@4008bb80000000000000 0058ed7c     tweety.obj
 0002:00000d80       __real@4@40128954400000000000 0058ed80     tweety.obj
 0002:00000d84       __real@4@4007fa00000000000000 0058ed84     tweety.obj
 0002:00000d88       ??_C@_0P@HFMO@keeper_07a?4wav?$AA@ 0058ed88     zookeeper.obj
 0002:00000d98       ??_C@_0P@BODK@keeper_18a?4wav?$AA@ 0058ed98     zookeeper.obj
 0002:00000da8       ??_C@_0P@JIHL@keeper_12a?4wav?$AA@ 0058eda8     zookeeper.obj
 0002:00000db8       ??_C@_0P@CGJL@keeper_11a?4wav?$AA@ 0058edb8     zookeeper.obj
 0002:00000dc8       ??_C@_0P@FLFL@keeper_17a?4wav?$AA@ 0058edc8     zookeeper.obj
 0002:00000dd8       ??_C@_0BC@IMEH@stars?5around?5head?$AA@ 0058edd8     zookeeper.obj
 0002:00000dec       __real@4@4000c000000000000000 0058edec     zookeeper.obj
 0002:00000df0       ??_C@_07GNNN@netidle?$AA@  0058edf0     zookeeper.obj
 0002:00000df8       __real@4@4004fa00000000000000 0058edf8     zookeeper.obj
 0002:00000dfc       ??_C@_07HDM@trapped?$AA@   0058edfc     zookeeper.obj
 0002:00000e04       ??_C@_0BM@EKEE@C?3?2Taz?2Source?2zookeeper?4cpp?$AA@ 0058ee04     zookeeper.obj
 0002:00000e20       __real@4@3ffe8000000000000000 0058ee20     breakables.obj
 0002:00000e24       __real@4@4002a000000000000000 0058ee24     breakables.obj
 0002:00000e28       __real@4@3ffd8000000000000000 0058ee28     breakables.obj
 0002:00000e2c       __real@4@400d8000000000000000 0058ee2c     breakables.obj
 0002:00000e30       ??_C@_0BA@LMJH@sam_voc_04a?4wav?$AA@ 0058ee30     breakables.obj
 0002:00000e40       ??_C@_0BA@FEPH@sam_voc_03a?4wav?$AA@ 0058ee40     breakables.obj
 0002:00000e50       ??_C@_0BA@IBBN@sam_voc_02c?4wav?$AA@ 0058ee50     breakables.obj
 0002:00000e60       ??_C@_0BA@JPNI@sam_voc_01b?4wav?$AA@ 0058ee60     breakables.obj
 0002:00000e70       __real@4@4008b400000000000000 0058ee70     breakables.obj
 0002:00000e74       __real@4@4007b400000000000000 0058ee74     breakables.obj
 0002:00000e78       ??_C@_0BN@OGJI@C?3?2Taz?2Source?2breakables?4cpp?$AA@ 0058ee78     breakables.obj
 0002:00000e98       ??_C@_0FG@OHEN@?$CK?$CK?$CK?5ERROR?5?$CK?$CK?$CK?5could?5not?5create?5i@ 0058ee98     bumper.obj
 0002:00000ef0       ??_C@_0BJ@PHAE@C?3?2Taz?2Source?2bumper?4cpp?$AA@ 0058eef0     bumper.obj
 0002:00000f0c       ??_C@_0BD@MHPK@bumper?9?$DObumperInfo?$AA@ 0058ef0c     bumper.obj
 0002:00000f20       ??_C@_0N@NHKO@debrisObject?$AA@ 0058ef20     destructibles.obj
 0002:00000f30       ??_C@_07GPNL@ONFIRST?$AA@  0058ef30     destructibles.obj
 0002:00000f38       ??_C@_0O@DJLG@ONPENULTIMATE?$AA@ 0058ef38     destructibles.obj
 0002:00000f48       ??_C@_0O@KFOP@ONDESTRUCTION?$AA@ 0058ef48     destructibles.obj
 0002:00000f58       ??_C@_09NBOD@HITANIM?$CFd?$AA@ 0058ef58     destructibles.obj
 0002:00000f64       ??_C@_07NLGI@ONHIT?$CFd?$AA@ 0058ef64     destructibles.obj
 0002:00000f6c       ??_C@_0CA@BBMG@C?3?2Taz?2Source?2destructibles?4cpp?$AA@ 0058ef6c     destructibles.obj
 0002:00000f8c       ??_C@_0CN@KGIO@?$CK?$CK?$CK?5ERROR?5?$CK?$CK?$CK?5Could?5not?5create?5d@ 0058ef8c     destructibles.obj
 0002:00000fbc       ??_C@_0L@NHAO@objects?2?$CFs?$AA@ 0058efbc     destructibles.obj
 0002:00000fc8       ??_C@_0DK@DBDA@?$CK?$CK?$CK?5WARNING?5?$CK?$CK?$CK?5Could?5not?5create@ 0058efc8     destructibles.obj
 0002:00001004       ??_C@_0P@HEMJ@eatlargeobject?$AA@ 0058f004     destructibles.obj
 0002:00001014       ??_C@_0BC@MCFM@crash_gen_02e?4wav?$AA@ 0058f014     destructibles.obj
 0002:00001028       ??_C@_0BC@GCHJ@crash_gen_02d?4wav?$AA@ 0058f028     destructibles.obj
 0002:0000103c       ??_C@_0BC@CID@crash_gen_02c?4wav?$AA@ 0058f03c     destructibles.obj
 0002:00001050       ??_C@_0BC@KCKG@crash_gen_02b?4wav?$AA@ 0058f050     destructibles.obj
 0002:00001064       ??_C@_0BC@ECMJ@crash_gen_02a?4wav?$AA@ 0058f064     destructibles.obj
 0002:00001078       ??_C@_0P@HHOP@destroycollect?$AA@ 0058f078     destructibles.obj
 0002:00001088       ??_C@_0M@ONJH@D?5?$CF08x?5?$CF08x?$AA@ 0058f088     destructibles.obj
 0002:00001094       __real@4@400582e6520000000000 0058f094     destructibles.obj
 0002:00001098       ??_C@_0O@PFCG@spinsign1?4wav?$AA@ 0058f098     destructibles.obj
 0002:000010a8       ??_C@_05NNFE@sound?$AA@    0058f0a8     destructibles.obj
 0002:000010b0       ??_C@_0N@HBHD@POS?$DN?$CFf?5?$CFf?5?$CFf?$AA@ 0058f0b0     destructibles.obj
 0002:000010c0       ??_C@_0ED@KNGO@?$CK?$CK?$CK?5ERROR?5?$CK?$CK?$CK?5Could?5not?5allocate@ 0058f0c0     destructibles.obj
 0002:00001104       ??_C@_0DN@ONAM@?$CK?$CK?$CK?5WARNING?5?$CK?$CK?$CK?5Tried?5to?5destroy@ 0058f104     destructibles.obj
 0002:00001144       ??_C@_08NHBM@destruct?$AA@ 0058f144     destructibles.obj
 0002:00001150       ??_C@_04MNLL@copy?$AA@     0058f150     destructibles.obj
 0002:00001158       __real@4@400482e6520000000000 0058f158     destructibles.obj
 0002:0000115c       ??_C@_0DK@GEOM@?$CK?$CK?$CK?5WARNING?5?$CK?$CK?$CK?5door?5info?5struct@ 0058f15c     doors.obj
 0002:00001198       ??_C@_0BI@NOMJ@C?3?2Taz?2Source?2doors?4cpp?$AA@ 0058f198     doors.obj
 0002:000011b0       __real@4@3ffd99999a0000000000 0058f1b0     doors.obj
 0002:000011b4       __real@4@3ffad677500000000000 0058f1b4     doors.obj
 0002:000011b8       __real@4@4003c800000000000000 0058f1b8     doors.obj
 0002:000011bc       ??_C@_0BA@PGJE@obj_mus_12a?4wav?$AA@ 0058f1bc     doors.obj
 0002:000011cc       ??_C@_0FC@NAGN@?$CK?$CK?$CK?5LEAMINGTON?0?5WE?5HAVE?5A?5PROBLE@ 0058f1cc     escalator.obj
 0002:00001220       ??_C@_0BM@DENB@C?3?2Taz?2Source?2escalator?4cpp?$AA@ 0058f220     escalator.obj
 0002:0000123c       __real@4@3ffbcccccd0000000000 0058f23c     escalator.obj
 0002:00001240       ??_C@_0GG@HGEH@?5?5?5?5?5?5?$CK?$CK?$CK?5WARNING?5?$CK?$CK?$CK?5falling?5ob@ 0058f240     fallingobjects.obj
 0002:000012a8       ??_C@_0CB@JIBN@C?3?2Taz?2Source?2fallingobjects?4cpp@ 0058f2a8     fallingobjects.obj
 0002:000012cc       ??_C@_0EA@KLBK@?$CK?$CK?$CK?$CK?5ERROR?5?$CK?$CK?$CK?$CK?5pointer?5to?5be?5re@ 0058f2cc     fallingobjects.obj
 0002:0000130c       ??_C@_0BP@OLKO@FreeAllFallingObjectsFromList?6?$AA@ 0058f30c     fallingobjects.obj
 0002:0000132c       ??_C@_07OBH@falling?$AA@   0058f32c     fallingobjects.obj
 0002:00001334       ??_C@_0DO@HHLB@?$CK?$CK?$CK?5ERROR?5?$CK?$CK?$CK?5Could?5not?5create?5f@ 0058f334     fallingobjects.obj
 0002:00001374       __real@4@400a9c40000000000000 0058f374     fallingobjects.obj
 0002:00001378       ??_C@_0L@ODDH@recover21a?$AA@ 0058f378     fallingobjects.obj
 0002:00001384       ??_C@_0BA@MFME@taz_gen_09a?4wav?$AA@ 0058f384     fallingobjects.obj
 0002:00001394       ??_C@_0CH@JNOB@flamethrowa?5info?5could?5not?5be?5ma@ 0058f394     famethrowa.obj
 0002:000013bc       ??_C@_0BN@HIKE@C?3?2Taz?2Source?2famethrowa?4cpp?$AA@ 0058f3bc     famethrowa.obj
 0002:000013dc       __real@4@4001c000000000000000 0058f3dc     famethrowa.obj
 0002:000013e0       __real@4@4002c800000000000000 0058f3e0     famethrowa.obj
 0002:000013e4       __real@4@4005c800000000000000 0058f3e4     famethrowa.obj
 0002:000013e8       __real@4@40049600000000000000 0058f3e8     famethrowa.obj
 0002:000013ec       __real@4@3ff783126f0000000000 0058f3ec     famethrowa.obj
 0002:000013f0       ??_C@_0BN@OFEF@extras?2wantedlogomagenta?4bmp?$AA@ 0058f3f0     floorpolisherwantedposter.obj
 0002:00001410       ??_C@_0CM@JPAI@C?3?2Taz?2Source?2floorpolisherwante@ 0058f410     floorpolisherwantedposter.obj
 0002:0000143c       __real@4@3ff583126f0000000000 0058f43c     floorpolisherwantedposter.obj
 0002:00001440       ??_7TAG_TEXTBOX@@6B@       0058f440     floorpolisherwantedposter.obj
 0002:0000146c       ??_7TAG_PAGEITEM@@6B@      0058f46c     floorpolisherwantedposter.obj
 0002:00001498       ??_7TAG_BOOK@@6B@          0058f498     floorpolisherwantedposter.obj
 0002:000014c8       __real@4@c005fa00000000000000 0058f4c8     floorpolisherwantedposter.obj
 0002:000014cc       ??_C@_04FOAE@?$CFd?$CF?$CF?$AA@ 0058f4cc     floorpolisherwantedposter.obj
 0002:000014d8       __real@8@3ffee666666666666800 0058f4d8     floorpolisherwantedposter.obj
 0002:000014e0       ??_C@_0BA@LCLC@sam_voc_14d?4wav?$AA@ 0058f4e0     floorpolisherwantedposter.obj
 0002:000014f0       ??_C@_0BA@HKGC@sam_voc_13a?4wav?$AA@ 0058f4f0     floorpolisherwantedposter.obj
 0002:00001500       __real@4@40088000000000000000 0058f500     floorpolisherwantedposter.obj
 0002:00001504       __real@4@4005af00000000000000 0058f504     floorpolisherwantedposter.obj
 0002:00001508       __real@4@3fffc000000000000000 0058f508     floorpolisherwantedposter.obj
 0002:0000150c       __real@4@4004c800000000000000 0058f50c     floorpolisherwantedposter.obj
 0002:00001510       ??_C@_0O@NLJK@WPDECAL_VERTS?$AA@ 0058f510     floorpolisherwantedposter.obj
 0002:00001520       ??_C@_0BB@DAJA@clubsandwich?4obe?$AA@ 0058f520     foodrandomiser.obj
 0002:00001534       ??_C@_0N@DPDB@dynamite?4obe?$AA@ 0058f534     foodrandomiser.obj
 0002:00001544       ??_C@_0BF@HAAP@fountainVertexBuffer?$AA@ 0058f544     fountain.obj
 0002:0000155c       ??_C@_0BL@FHOE@C?3?2Taz?2Source?2fountain?4cpp?$AA@ 0058f55c     fountain.obj
 0002:00001578       ??_C@_0DL@BLDA@?$CK?$CK?$CK?5WARNING?5?$CK?$CK?$CK?0?5could?5not?5creat@ 0058f578     fountain.obj
 0002:000015b4       __real@4@400b9c40000000000000 0058f5b4     fountain.obj
 0002:000015b8       __real@4@4009fa00000000000000 0058f5b8     fountain.obj
 0002:000015bc       ??_C@_08NGAJ@fountain?$AA@ 0058f5bc     fountainextrasystem.obj
 0002:000015c8       ??_C@_0CG@OPMK@C?3?2Taz?2Source?2fountainextrasyste@ 0058f5c8     fountainextrasystem.obj
 0002:000015f0       ??_C@_0L@FJBJ@bufIndex?92?$AA@ 0058f5f0     fountainextrasystem.obj
 0002:000015fc       ??_C@_08LLBF@spinslip?$AA@ 0058f5fc     ice.obj
 0002:00001608       ??_C@_0BB@MLCA@spin?5slip?5on?5ice?$AA@ 0058f608     ice.obj
 0002:0000161c       ??_C@_0BA@MDGL@taz_mus_03a?4wav?$AA@ 0058f61c     ice.obj
 0002:0000162c       ??_C@_09ELH@slipslide?$AA@ 0058f62c     ice.obj
 0002:00001638       ??_C@_0BH@OJL@C?3?2Taz?2Source?2lava?4cpp?$AA@ 0058f638     lava.obj
 0002:00001650       ??_C@_0EB@GLJG@?$CK?$CK?$CK?5WARNING?5?$CK?$CK?$CK?0?5magnet?5info?5str@ 0058f650     magnet.obj
 0002:00001694       ??_C@_0BJ@GAIH@C?3?2Taz?2Source?2magnet?4cpp?$AA@ 0058f694     magnet.obj
 0002:000016b0       ??_C@_0N@KFFN@staticflagup?$AA@ 0058f6b0     mailbox.obj
 0002:000016c0       ??_C@_0P@GJOI@staticflagdown?$AA@ 0058f6c0     mailbox.obj
 0002:000016d0       ??_C@_0DC@KFOF@?5?5?5?5?5?5?$CK?$CK?$CK?5ERROR?5?$CK?$CK?$CK?5No?5mailbox?5n@ 0058f6d0     mailbox.obj
 0002:00001704       ??_C@_0DH@HLJJ@?$CK?$CK?$CK?5ERROR?5?$CK?$CK?$CK?5Could?5not?5create?5m@ 0058f704     mailbox.obj
 0002:0000173c       ??_C@_0BK@FIBH@C?3?2Taz?2Source?2mailbox?4cpp?$AA@ 0058f73c     mailbox.obj
 0002:00001758       ??_C@_0BE@GOAB@find?5mailbox?501?4wav?$AA@ 0058f758     mailbox.obj
 0002:0000176c       ??_C@_07HACG@opening?$AA@  0058f76c     mailbox.obj
 0002:00001774       ??_C@_0M@HHFN@veryexcited?$AA@ 0058f774     mailbox.obj
 0002:00001780       ??_C@_0BA@FKIL@slightlyexcited?$AA@ 0058f780     mailbox.obj
 0002:00001790       ??_C@_09HLCE@lowvolume?$AA@ 0058f790     musicandsavagebeasts.obj
 0002:0000179c       ??_C@_0P@DFEC@semiquaver?4tga?$AA@ 0058f79c     musicandsavagebeasts.obj
 0002:000017ac       ??_C@_0L@JCND@quaver?4tga?$AA@ 0058f7ac     musicandsavagebeasts.obj
 0002:000017b8       ??_C@_0N@CGAO@crotchet?4tga?$AA@ 0058f7b8     musicandsavagebeasts.obj
 0002:000017c8       ??_C@_0CD@DGCG@musicBoxInfo?5could?5not?5be?5malloc@ 0058f7c8     musicandsavagebeasts.obj
 0002:000017ec       ??_C@_0CH@NFGI@C?3?2Taz?2Source?2musicandsavagebeas@ 0058f7ec     musicandsavagebeasts.obj
 0002:00001814       ??_C@_0L@BAMC@walk2start?$AA@ 0058f814     musicandsavagebeasts.obj
 0002:00001820       ??_C@_05NBEJ@stave?$AA@    0058f820     musicandsavagebeasts.obj
 0002:00001828       ??_C@_09CINM@stave?4tga?$AA@ 0058f828     musicandsavagebeasts.obj
 0002:00001834       __real@4@40039000000000000000 0058f834     musicandsavagebeasts.obj
 0002:00001838       __real@4@4006b400000000000000 0058f838     musicandsavagebeasts.obj
 0002:0000183c       __real@4@4005b400000000000000 0058f83c     musicandsavagebeasts.obj
 0002:00001840       __real@4@4002f000000000000000 0058f840     musicandsavagebeasts.obj
 0002:00001844       __real@4@40099c40000000000000 0058f844     musicandsavagebeasts.obj
 0002:00001848       __real@4@4007af00000000000000 0058f848     musicandsavagebeasts.obj
 0002:0000184c       __real@4@40049000000000000000 0058f84c     musicandsavagebeasts.obj
 0002:00001850       ??_C@_0M@HCHM@underground?$AA@ 0058f850     phonebox.obj
 0002:0000185c       ??_C@_06BGJL@static?$AA@   0058f85c     phonebox.obj
 0002:00001864       ??_C@_0BC@OCCJ@phonehiderbox?4obe?$AA@ 0058f864     phonebox.obj
 0002:00001878       ??_C@_0N@KCJB@phonehidebox?$AA@ 0058f878     phonebox.obj
 0002:00001888       ??_C@_0DL@HEI@?5?5?5?$CK?$CK?$CK?5ERROR?5?$CK?$CK?$CK?5Could?5not?5alloc@ 0058f888     phonebox.obj
 0002:000018c4       ??_C@_0BL@OLBN@C?3?2Taz?2Source?2phonebox?4cpp?$AA@ 0058f8c4     phonebox.obj
 0002:000018e0       ??_C@_0O@MDBK@enterphonebox?$AA@ 0058f8e0     phonebox.obj
 0002:000018f0       ??_C@_08EFBA@tazenter?$AA@ 0058f8f0     phonebox.obj
 0002:000018fc       ??_C@_08BHBK@tazexit3?$AA@ 0058f8fc     phonebox.obj
 0002:00001908       ??_C@_08LNIN@tazexit2?$AA@ 0058f908     phonebox.obj
 0002:00001914       ??_C@_08ECDE@tazexit1?$AA@ 0058f914     phonebox.obj
 0002:00001920       ??_C@_0P@DHJL@changeclothes2?$AA@ 0058f920     phonebox.obj
 0002:00001930       ??_C@_0P@MICC@changeclothes1?$AA@ 0058f930     phonebox.obj
 0002:00001940       ??_C@_0L@PFNE@disappear2?$AA@ 0058f940     phonebox.obj
 0002:0000194c       ??_C@_0L@KGN@disappear1?$AA@ 0058f94c     phonebox.obj
 0002:00001958       ??_C@_07CCHA@arrive1?$AA@  0058f958     phonebox.obj
 0002:00001960       __real@4@4012f424000000000000 0058f960     phonebox.obj
 0002:00001964       ??_C@_0O@JJA@costumetarzan?$AA@ 0058f964     phonebox.obj
 0002:00001974       ??_C@_0O@OLLL@costumeskater?$AA@ 0058f974     phonebox.obj
 0002:00001984       ??_C@_0O@JHIL@costumesurfer?$AA@ 0058f984     phonebox.obj
 0002:00001994       ??_C@_0BB@LMDC@costumesnowboard?$AA@ 0058f994     phonebox.obj
 0002:000019a8       ??_C@_0N@IGBM@costumerappa?$AA@ 0058f9a8     phonebox.obj
 0002:000019b8       ??_C@_0M@JFHM@costumeswat?$AA@ 0058f9b8     phonebox.obj
 0002:000019c4       ??_C@_0BA@HCFE@costumeindianna?$AA@ 0058f9c4     phonebox.obj
 0002:000019d4       ??_C@_0BA@CL@costumewerewolf?$AA@ 0058f9d4     phonebox.obj
 0002:000019e4       ??_C@_0N@IAGG@costumeninja?$AA@ 0058f9e4     phonebox.obj
 0002:000019f4       ??_C@_0O@EFPM@costumecowboy?$AA@ 0058f9f4     phonebox.obj
 0002:00001a04       ??_C@_0BA@MNEP@obj_gen_03a?4wav?$AA@ 0058fa04     phonebox.obj
 0002:00001a14       ??_C@_0EA@KECA@?5?5?5?5?5?5?$CK?$CK?$CK?5ERROR?5?$CK?$CK?$CK?5Could?5not?5cr@ 0058fa14     projectile.obj
 0002:00001a54       ??_C@_05BBHH@ready?$AA@    0058fa54     projectile.obj
 0002:00001a5c       ??_C@_0CJ@DKD@?5?5?5?5?5?5?$CK?$CK?$CK?5ERROR?5?$CK?$CK?$CK?5No?5angle?5spe@ 0058fa5c     projectile.obj
 0002:00001a88       ??_C@_0CN@PBJB@?5?5?5?5?5?5?$CK?$CK?$CK?5ERROR?5?$CK?$CK?$CK?5No?5landing?5p@ 0058fa88     projectile.obj
 0002:00001ab8       ??_C@_0BN@PKKK@C?3?2Taz?2Source?2projectile?4cpp?$AA@ 0058fab8     projectile.obj
 0002:00001ad8       ??_C@_0BA@BBID@obj_zoo_06a?4wav?$AA@ 0058fad8     projectile.obj
 0002:00001ae8       ??_C@_03OKDD@aim?$AA@      0058fae8     projectile.obj
 0002:00001aec       ??_C@_0BA@IECD@obj_zoo_07a?4wav?$AA@ 0058faec     projectile.obj
 0002:00001afc       ??_C@_06CNFG@recoil?$AA@   0058fafc     projectile.obj
 0002:00001b04       ??_C@_04CGKF@fly2?$AA@     0058fb04     projectile.obj
 0002:00001b0c       ??_C@_0DK@OLDN@?$CK?$CK?$CK?$CKERROR?$CK?$CK?$CK?$CK?5Projector?5cannot?5f@ 0058fb0c     projectile.obj
 0002:00001b48       ??_C@_0EG@BGFO@?$CK?$CK?$CK?$CKERROR?$CK?$CK?$CK?$CK?5Projector?5projecti@ 0058fb48     projectile.obj
 0002:00001b90       ??_C@_0DO@JCHA@?$CK?$CK?$CK?5WARNING?5?$CK?$CK?$CK?0?5scenic?5info?5str@ 0058fb90     scenicobjects.obj
 0002:00001bd0       ??_C@_0CA@ILIF@C?3?2Taz?2Source?2scenicobjects?4cpp?$AA@ 0058fbd0     scenicobjects.obj
 0002:00001bf0       ??_C@_0BF@KDAG@loop?2taz_gen_08a?4wav?$AA@ 0058fbf0     slides.obj
 0002:00001c08       ??_C@_05HJLB@slide?$AA@    0058fc08     slides.obj
 0002:00001c10       ??_C@_0FK@OGCI@?$CK?$CK?$CK?5ERROR?5?$CK?$CK?$CK?5could?5not?5create?5i@ 0058fc10     speedboost.obj
 0002:00001c6c       ??_C@_0BN@MBNI@C?3?2Taz?2Source?2speedboost?4cpp?$AA@ 0058fc6c     speedboost.obj
 0002:00001c8c       ??_C@_0BA@IFCK@obj_mus_22a?4wav?$AA@ 0058fc8c     speedboost.obj
 0002:00001c9c       __real@4@3ffecccccd0000000000 0058fc9c     splatobjects.obj
 0002:00001ca0       ??_C@_0L@OKLF@recover11b?$AA@ 0058fca0     splatobjects.obj
 0002:00001cac       ??_C@_0L@BFAM@recover11a?$AA@ 0058fcac     splatobjects.obj
 0002:00001cb8       ??_C@_0DL@CICD@?5?5?5?5?5?5?$CK?$CK?$CK?5WARNING?5?$CK?$CK?$CK?5Max?5height@ 0058fcb8     springyobjects.obj
 0002:00001cf4       ??_C@_0DG@ICPC@?5?5?5?5?5?5?$CK?$CK?$CK?5WARNING?5?$CK?$CK?$CK?5Radius?5on?5@ 0058fcf4     springyobjects.obj
 0002:00001d2c       ??_C@_0DO@NONM@?$CK?$CK?$CK?5ERROR?5?$CK?$CK?$CK?5Could?5not?5create?5s@ 0058fd2c     springyobjects.obj
 0002:00001d6c       ??_C@_0CB@ELOA@C?3?2Taz?2Source?2springyobjects?4cpp@ 0058fd6c     springyobjects.obj
 0002:00001d90       ??_C@_06IIMB@bounce?$AA@   0058fd90     springyobjects.obj
 0002:00001d98       ??_C@_0BA@KPGD@obj_zoo_05a?4wav?$AA@ 0058fd98     springyobjects.obj
 0002:00001da8       ??_C@_0BA@MOJB@taz_gen_30c?4wav?$AA@ 0058fda8     springyobjects.obj
 0002:00001db8       ??_C@_0BA@GOLE@taz_gen_30b?4wav?$AA@ 0058fdb8     springyobjects.obj
 0002:00001dc8       ??_C@_0BA@IONL@taz_gen_30a?4wav?$AA@ 0058fdc8     springyobjects.obj
 0002:00001dd8       ??_C@_0BA@HIIA@taz_gen_29b?4wav?$AA@ 0058fdd8     springyobjects.obj
 0002:00001de8       ??_C@_0BA@JIOP@taz_gen_29a?4wav?$AA@ 0058fde8     springyobjects.obj
 0002:00001df8       ??_C@_0EC@NDJG@?5?5?5?5?5?5?$CK?$CK?$CK?5WARNING?5?$CK?$CK?$CK?5negative?5s@ 0058fdf8     steppingstone.obj
 0002:00001e3c       ??_C@_0EF@KGNJ@?$CK?$CK?$CK?5ERROR?5?$CK?$CK?$CK?5Could?5not?5create?5s@ 0058fe3c     steppingstone.obj
 0002:00001e84       ??_C@_0CA@HIPP@C?3?2Taz?2Source?2steppingstone?4cpp?$AA@ 0058fe84     steppingstone.obj
 0002:00001ea4       ??_C@_0BA@CIGA@crateonrope?4obe?$AA@ 0058fea4     swingingobjects.obj
 0002:00001eb4       ??_C@_0M@MPKF@crateonrope?$AA@ 0058feb4     swingingobjects.obj
 0002:00001ec0       ??_C@_0BB@MDB@chandtrigger?4obe?$AA@ 0058fec0     swingingobjects.obj
 0002:00001ed4       ??_C@_0N@FKBA@chandtrigger?$AA@ 0058fed4     swingingobjects.obj
 0002:00001ee4       ??_C@_0P@FGJK@chandelier?4obe?$AA@ 0058fee4     swingingobjects.obj
 0002:00001ef4       ??_C@_0L@CIAO@chandelier?$AA@ 0058fef4     swingingobjects.obj
 0002:00001f00       ??_C@_06OHMA@monkey?$AA@   0058ff00     swingingobjects.obj
 0002:00001f08       ??_C@_0BB@KOJO@irrepresible?4obe?$AA@ 0058ff08     swingingobjects.obj
 0002:00001f1c       ??_C@_0N@PLNF@irrepresible?$AA@ 0058ff1c     swingingobjects.obj
 0002:00001f2c       ??_C@_0DO@KMLO@?$CK?$CK?$CK?5ERROR?5?$CK?$CK?$CK?5Could?5not?5create?5t@ 0058ff2c     swingingobjects.obj
 0002:00001f6c       ??_C@_0CC@BMDK@C?3?2Taz?2Source?2swingingobjects?4cp@ 0058ff6c     swingingobjects.obj
 0002:00001f90       ??_C@_0BF@JAFG@loop?2obj_mus_13a?4wav?$AA@ 0058ff90     swingingobjects.obj
 0002:00001fa8       ??_C@_05KENJ@swing?$AA@    0058ffa8     swingingobjects.obj
 0002:00001fb0       __real@4@40009333330000000000 0058ffb0     swingingobjects.obj
 0002:00001fb4       ??_C@_0N@BAHO@mswingstatic?$AA@ 0058ffb4     swingingobjects.obj
 0002:00001fc4       ??_C@_0DB@IKLN@?$CK?$CK?$CK?5ERROR?5?$CK?$CK?$CK?5swing?5buggered?5by?5@ 0058ffc4     swingingobjects.obj
 0002:00001ff8       __real@4@4001e000000000000000 0058fff8     swingingobjects.obj
 0002:00001ffc       ??_C@_0FK@FCGC@?5?5?5?5?5?5?$CK?$CK?$CK?5WARNING?5?$CK?$CK?$CK?5tilting?5ob@ 0058fffc     tiltingobjects.obj
 0002:00002058       ??_C@_0DN@MDLE@?5?5?5?5?5?5?$CK?$CK?$CK?5WARNING?5?$CK?$CK?$CK?5tilting?5ob@ 00590058     tiltingobjects.obj
 0002:00002098       ??_C@_0CB@HCLO@C?3?2Taz?2Source?2tiltingobjects?4cpp@ 00590098     tiltingobjects.obj
 0002:000020bc       ??_C@_0FA@BEFG@?5?5?5?5?5?5?$CK?$CK?$CK?5MOSES?5?$CK?$CK?$CK?5Transporter?5@ 005900bc     transporter.obj
 0002:0000210c       ??_C@_0EC@HHCO@?$CK?$CK?$CK?5ERROR?5?$CK?$CK?$CK?5Could?5not?5create?5t@ 0059010c     transporter.obj
 0002:00002150       ??_C@_0BO@KFNO@C?3?2Taz?2Source?2transporter?4cpp?$AA@ 00590150     transporter.obj
 0002:00002170       ??_C@_0BA@HPEC@taz_voc_09c?4wav?$AA@ 00590170     transporter.obj
 0002:00002180       ??_C@_0DE@OOBF@?5?5?5?5?5?5?$CK?$CK?$CK?5WARNING?5?$CK?$CK?$CK?5Poster?5num@ 00590180     wantedposter.obj
 0002:000021b4       ??_C@_0BP@IHEC@C?3?2Taz?2Source?2wantedposter?4cpp?$AA@ 005901b4     wantedposter.obj
 0002:000021d4       ??_C@_0BA@IJAF@clockhandminute?$AA@ 005901d4     wantedposter.obj
 0002:000021e4       ??_C@_0O@EGJP@clockhandhour?$AA@ 005901e4     wantedposter.obj
 0002:000021f4       ??_C@_08MGIJ@clockpin?$AA@ 005901f4     wantedposter.obj
 0002:00002200       ??_C@_0O@KOOJ@clockpendulum?$AA@ 00590200     wantedposter.obj
 0002:00002210       ??_C@_0M@KAH@clockface04?$AA@ 00590210     wantedposter.obj
 0002:0000221c       ??_C@_0M@FPOC@clockface03?$AA@ 0059021c     wantedposter.obj
 0002:00002228       ??_C@_0M@PFHF@clockface02?$AA@ 00590228     wantedposter.obj
 0002:00002234       ??_C@_0M@KMM@clockface01?$AA@ 00590234     wantedposter.obj
 0002:00002240       ??_C@_0N@EHG@clockdinger2?$AA@ 00590240     wantedposter.obj
 0002:00002250       ??_C@_0N@PLMP@clockdinger1?$AA@ 00590250     wantedposter.obj
 0002:00002260       ??_C@_0O@GCML@explosion?4wav?$AA@ 00590260     wantedposter.obj
 0002:00002270       ??_C@_06FOKH@xplode?$AA@   00590270     wantedposter.obj
 0002:00002278       ??_C@_06EBAO@windup?$AA@   00590278     wantedposter.obj
 0002:00002280       ??_C@_04CDFL@tick?$AA@     00590280     wantedposter.obj
 0002:00002288       ??_C@_0DN@OBMG@?$CK?$CK?$CK?5ERROR?5?$CK?$CK?$CK?5Could?5not?5create?5w@ 00590288     water.obj
 0002:000022c8       ??_C@_0BI@LBAO@C?3?2Taz?2Source?2water?4cpp?$AA@ 005902c8     water.obj
 0002:000022e0       ??_C@_08CJMP@stop?4wav?$AA@ 005902e0     water.obj
 0002:000022ec       ??_C@_08EIAJ@spindown?$AA@ 005902ec     water.obj
 0002:000022f8       ??_C@_0N@JFBJ@tazdevil?4obe?$AA@ 005902f8     water.obj
 0002:00002308       __real@4@3ffee666660000000000 00590308     water.obj
 0002:0000230c       ??_C@_0BA@OLFB@taz_gen_19a?4wav?$AA@ 0059030c     water.obj
 0002:0000231c       ??_C@_0O@PLLH@waterring?4bmp?$AA@ 0059031c     water.obj
 0002:0000232c       __real@4@3ffec000000000000000 0059032c     water.obj
 0002:00002330       ??_C@_0BA@CJDH@sam_voc_05a?4wav?$AA@ 00590330     water.obj
 0002:00002340       ??_C@_09LMMD@snoutstem?$AA@ 00590340     water.obj
 0002:0000234c       ??_C@_05KNGD@drown?$AA@    0059034c     water.obj
 0002:00002354       __real@4@4003a000000000000000 00590354     cartoonscaling.obj
 0002:00002358       __real@4@40018000000000000000 00590358     cartoonscaling.obj
 0002:0000235c       ??_C@_0DN@MKMC@?$CK?$CK?$CK?5ERROR?5?$CK?$CK?$CK?5Could?5not?5create?5c@ 0059035c     cartoonscaling.obj
 0002:0000239c       ??_C@_0CB@FCAD@C?3?2Taz?2Source?2cartoonscaling?4cpp@ 0059039c     cartoonscaling.obj
 0002:000023c0       ??_C@_0M@CILG@cheeese?4obe?$AA@ 005903c0     cheesegun.obj
 0002:000023cc       ??_C@_0BM@IJL@C?3?2Taz?2Source?2cheesegun?4cpp?$AA@ 005903cc     cheesegun.obj
 0002:000023e8       ??_C@_0N@EEMF@stickydebris?$AA@ 005903e8     cheesegun.obj
 0002:000023f8       ??_C@_0M@LPMN@chsmoke?4tga?$AA@ 005903f8     cheesegun.obj
 0002:00002404       ??_C@_06JAJJ@Cheese?$AA@   00590404     cheesegun.obj
 0002:0000240c       __real@4@3ffe860a920000000000 0059040c     cheesegun.obj
 0002:00002410       __real@4@4005a000000000000000 00590410     cheesegun.obj
 0002:00002414       ??_C@_0BK@GBEG@this?9?$DOitemLast?4last?9?$DOnext?$AA@ 00590414     cheesegun.obj
 0002:00002430       ??_C@_0BL@FBPH@c?3?2taz?2source?2linkedlist?4h?$AA@ 00590430     cheesegun.obj
 0002:0000244c       ??_C@_0BA@OKLH@injuredstar?4obe?$AA@ 0059044c     clouds.obj
 0002:0000245c       ??_C@_0BJ@LNFG@C?3?2Taz?2Source?2clouds?4cpp?$AA@ 0059045c     clouds.obj
 0002:00002478       ??_C@_0BC@FJMC@objects?2cloud?4obe?$AA@ 00590478     clouds.obj
 0002:0000248c       ??_C@_0CK@NNHN@?$CK?$CK?$CK?$CK?5ERROR?5?$CK?$CK?$CK?$CK?5cloud?5bank?5MALLO@ 0059048c     clouds.obj
 0002:000024b8       ??_C@_0DO@BAHA@?$CK?$CK?$CK?$CK?5ERROR?5?$CK?$CK?$CK?$CK?5pointer?5to?5be?5re@ 005904b8     clouds.obj
 0002:000024f8       __real@4@4001c90fdb0000000000 005904f8     clouds.obj
 0002:000024fc       ??_C@_0P@PGDB@FreeCloudBank?6?$AA@ 005904fc     clouds.obj
 0002:0000250c       ??_C@_0P@NOOL@agentwatch?4obe?$AA@ 0059050c     costumes.obj
 0002:0000251c       ??_C@_0BO@JBLF@costume?2skaterbaseballcap?4obe?$AA@ 0059051c     costumes.obj
 0002:0000253c       ??_C@_0BN@CEOI@costume?2skaterskateboard?4obe?$AA@ 0059053c     costumes.obj
 0002:0000255c       ??_C@_0BM@HDCO@costume?2skaterelbowpadr?4obe?$AA@ 0059055c     costumes.obj
 0002:00002578       ??_C@_0BM@LAIO@costume?2skaterelbowpadl?4obe?$AA@ 00590578     costumes.obj
 0002:00002594       ??_C@_0BG@KBEO@costume?2tazskater?4obe?$AA@ 00590594     costumes.obj
 0002:000025ac       ??_C@_08PHMF@handleft?$AA@ 005905ac     costumes.obj
 0002:000025b8       ??_C@_0N@CHFA@armforeright?$AA@ 005905b8     costumes.obj
 0002:000025c8       ??_C@_0M@GFPL@armforeleft?$AA@ 005905c8     costumes.obj
 0002:000025d4       ??_C@_0BK@CFMM@costume?2swatcheesegun?4obe?$AA@ 005905d4     costumes.obj
 0002:000025f0       ??_C@_0BK@MJFL@costume?2swatelbowpadr?4obe?$AA@ 005905f0     costumes.obj
 0002:0000260c       ??_C@_0BK@KPL@costume?2swatelbowpadl?4obe?$AA@ 0059060c     costumes.obj
 0002:00002628       ??_C@_0BH@MBHH@costume?2swatshades?4obe?$AA@ 00590628     costumes.obj
 0002:00002640       ??_C@_0BJ@JDME@costume?2swatbackpack?4obe?$AA@ 00590640     costumes.obj
 0002:0000265c       ??_C@_0BE@KGMD@costume?2swatcap?4obe?$AA@ 0059065c     costumes.obj
 0002:00002670       ??_C@_0BE@MHBB@costume?2swattaz?4obe?$AA@ 00590670     costumes.obj
 0002:00002684       ??_C@_0BF@LKMP@costume?2snowball?4obe?$AA@ 00590684     costumes.obj
 0002:0000269c       ??_C@_0BG@ICCA@costume?2snowboard?4obe?$AA@ 0059069c     costumes.obj
 0002:000026b4       ??_C@_0BN@OAFH@costume?2snowboardgoggles?4obe?$AA@ 005906b4     costumes.obj
 0002:000026d4       ??_C@_0BJ@COEG@costume?2snowboardhat?4obe?$AA@ 005906d4     costumes.obj
 0002:000026f0       ??_C@_0BL@KGAG@costume?2tazsnowboarder?4obe?$AA@ 005906f0     costumes.obj
 0002:0000270c       ??_C@_0BI@FJBE@costume?2minerhelmet?4obe?$AA@ 0059070c     costumes.obj
 0002:00002724       ??_C@_0BG@MPOF@costume?2minerbelt?4obe?$AA@ 00590724     costumes.obj
 0002:0000273c       ??_C@_0BJ@KNMI@costume?2minerpickaxe?4obe?$AA@ 0059073c     costumes.obj
 0002:00002758       ??_C@_0BI@GMLG@costume?2tazwerewolf?4obe?$AA@ 00590758     costumes.obj
 0002:00002770       ??_C@_06BCGM@motion?$AA@   00590770     costumes.obj
 0002:00002778       ??_C@_0BA@BALC@costume?2dex?4obe?$AA@ 00590778     costumes.obj
 0002:00002788       ??_C@_0BI@EGHH@costume?2baseballcap?4obe?$AA@ 00590788     costumes.obj
 0002:000027a0       ??_C@_0BF@GCKJ@costume?2tazrappa?4obe?$AA@ 005907a0     costumes.obj
 0002:000027b8       ??_C@_09BIMC@handright?$AA@ 005907b8     costumes.obj
 0002:000027c4       ??_C@_0BK@OGHD@costume?2aquasurfboard?4obe?$AA@ 005907c4     costumes.obj
 0002:000027e0       ??_C@_0BH@OCOB@costume?2aquashades?4obe?$AA@ 005907e0     costumes.obj
 0002:000027f8       ??_C@_0BK@MEKL@costume?2tazaquasurfer?4obe?$AA@ 005907f8     costumes.obj
 0002:00002814       ??_C@_0BM@HDII@costume?2explorermonacle?4obe?$AA@ 00590814     costumes.obj
 0002:00002830       ??_C@_0BI@BIL@costume?2explorerhat?4obe?$AA@ 00590830     costumes.obj
 0002:00002848       ??_C@_0BJ@FDIM@costume?2explorerbelt?4obe?$AA@ 00590848     costumes.obj
 0002:00002864       ??_C@_08GAOC@spinemid?$AA@ 00590864     costumes.obj
 0002:00002870       ??_C@_0BN@KHKE@costume?2explorerbackpack?4obe?$AA@ 00590870     costumes.obj
 0002:00002890       ??_C@_0BM@ONBK@costume?2explorermachete?4obe?$AA@ 00590890     costumes.obj
 0002:000028ac       ??_C@_0BI@OHNP@costume?2explorertaz?4obe?$AA@ 005908ac     costumes.obj
 0002:000028c4       ??_C@_0BH@IBIF@costume?2icerednose?4obe?$AA@ 005908c4     costumes.obj
 0002:000028dc       ??_C@_0BH@DCMO@costume?2iceantlers?4obe?$AA@ 005908dc     costumes.obj
 0002:000028f4       ??_C@_0BN@EHLL@costume?2constructionbelt?4obe?$AA@ 005908f4     costumes.obj
 0002:00002914       ??_C@_0BM@DGJC@costume?2constructionhat?4obe?$AA@ 00590914     costumes.obj
 0002:00002930       ??_C@_0BM@OAMA@costume?2cowboymoustache?4obe?$AA@ 00590930     costumes.obj
 0002:0000294c       ??_C@_0BH@LGJO@costume?2cowboymask?4obe?$AA@ 0059094c     costumes.obj
 0002:00002964       ??_C@_0BG@BONB@costume?2cowboyhat?4obe?$AA@ 00590964     costumes.obj
 0002:0000297c       ??_C@_0BH@MJJD@costume?2cowboybelt?4obe?$AA@ 0059097c     costumes.obj
 0002:00002994       ??_C@_0BN@EHEM@costume?2tazstubblecowboy?4obe?$AA@ 00590994     costumes.obj
 0002:000029b4       ??_C@_0BG@IEPA@costume?2taztarzan?4obe?$AA@ 005909b4     costumes.obj
 0002:000029cc       ??_C@_0BF@FBMM@costume?2indywhip?4obe?$AA@ 005909cc     costumes.obj
 0002:000029e4       ??_C@_0BE@OHKE@costume?2indyhat?4obe?$AA@ 005909e4     costumes.obj
 0002:000029f8       ??_C@_0BI@ECFN@costume?2ninjakatana?4obe?$AA@ 005909f8     costumes.obj
 0002:00002a10       ??_C@_0BE@FNHD@costume?2bandana?4obe?$AA@ 00590a10     costumes.obj
 0002:00002a24       ??_C@_0BG@IPFE@costume?2ninjabelt?4obe?$AA@ 00590a24     costumes.obj
 0002:00002a3c       ??_C@_0BF@LKPH@costume?2tazninja?4obe?$AA@ 00590a3c     costumes.obj
 0002:00002a54       ??_C@_09OLCN@decallist?$AA@ 00590a54     decals.obj
 0002:00002a60       ??_C@_0BJ@FNND@C?3?2Taz?2Source?2decals?4cpp?$AA@ 00590a60     decals.obj
 0002:00002a7c       ??_C@_0BJ@HMDM@C?3?2Taz?2Source?2eating?4cpp?$AA@ 00590a7c     eating.obj
 0002:00002a98       ??_C@_08GGPA@newEntry?$AA@ 00590a98     effects.obj
 0002:00002aa4       ??_C@_0BK@HBPG@C?3?2Taz?2Source?2effects?4cpp?$AA@ 00590aa4     effects.obj
 0002:00002ac0       ??_C@_0BI@ENHN@FreeAllEffectsFromList?6?$AA@ 00590ac0     effects.obj
 0002:00002ad8       __real@4@c0008000000000000000 00590ad8     effects.obj
 0002:00002adc       ??_C@_0CA@HMCH@C?3?2Taz?2Source?2electrocution?4cpp?$AA@ 00590adc     electrocution.obj
 0002:00002afc       ??_C@_0L@LAAH@electrofly?$AA@ 00590afc     electrocution.obj
 0002:00002b08       ??_C@_0BA@FBCC@sam_voc_11a?4wav?$AA@ 00590b08     electrocution.obj
 0002:00002b18       ??_C@_0BA@CEON@sam_voc_10b?4wav?$AA@ 00590b18     electrocution.obj
 0002:00002b28       ??_C@_0BA@BLHL@taz_gen_31a?4wav?$AA@ 00590b28     electrocution.obj
 0002:00002b38       ??_C@_0M@NNM@electrocute?$AA@ 00590b38     electrocution.obj
 0002:00002b44       __real@4@4000e000000000000000 00590b44     electrocution.obj
 0002:00002c68       ??_C@_0BJ@CMEA@C?3?2Taz?2Source?2envmap?4cpp?$AA@ 00590c68     envmap.obj
 0002:00002c84       ??_C@_0BB@IAGK@explosionred?4obe?$AA@ 00590c84     explode.obj
 0002:00002c98       ??_C@_0BE@NICB@explosionyellow?4obe?$AA@ 00590c98     explode.obj
 0002:00002cac       ??_C@_07LNLI@explode?$AA@  00590cac     explode.obj
 0002:00002cb4       ??_C@_0BK@CFFG@C?3?2Taz?2Source?2explode?4cpp?$AA@ 00590cb4     explode.obj
 0002:00002cd0       __real@4@4000a000000000000000 00590cd0     explode.obj
 0002:00002cd4       __real@4@3ff08001000000000000 00590cd4     explode.obj
 0002:00002cd8       __real@4@4006aa00000000000000 00590cd8     explode.obj
 0002:00002cdc       __real@4@4006e600000000000000 00590cdc     explode.obj
 0002:00002ce0       __real@4@4008fa00000000000000 00590ce0     explode.obj
 0002:00002ce4       __real@4@3ffea666660000000000 00590ce4     explode.obj
 0002:00002ce8       __real@4@3ffba3d70a0000000000 00590ce8     explode.obj
 0002:00002cec       __real@4@3ff8a3d70a0000000000 00590cec     explode.obj
 0002:00002cf0       __real@4@3ff18001000000000000 00590cf0     explode.obj
 0002:00002cf4       ??_C@_0BA@KMMA@chilliflame?4tga?$AA@ 00590cf4     explode.obj
 0002:00002d04       __real@4@4004a000000000000000 00590d04     fade.obj
 0002:00002d08       __real@4@4006eb00000000000000 00590d08     fade.obj
 0002:00002d0c       __real@4@4006ff00000000000000 00590d0c     fade.obj
 0002:00002d10       __real@4@40078000000000000000 00590d10     fade.obj
 0002:00002d14       ??_C@_08PHOK@fire?4bmp?$AA@ 00590d14     fire.obj
 0002:00002d20       ??_C@_0BH@HNAK@C?3?2Taz?2Source?2fire?4cpp?$AA@ 00590d20     fire.obj
 0002:00002d38       ??_C@_0DH@LHOL@?$CK?$CK?$CK?5WARNING?5?$CK?$CK?$CK?0?5could?5not?5creat@ 00590d38     fire.obj
 0002:00002d70       __real@4@3ffdcccccd0000000000 00590d70     fire.obj
 0002:00002d74       __real@4@40068000000000000000 00590d74     fire.obj
 0002:00002d78       __real@4@40058000000000000000 00590d78     fire.obj
 0002:00002d7c       ??_C@_09NOCG@fireworks?$AA@ 00590d7c     fireworks.obj
 0002:00002d88       __real@4@4006c800000000000000 00590d88     fireworks.obj
 0002:00002d8c       __real@4@3ffc99999a0000000000 00590d8c     fireworks.obj
 0002:00002d90       __real@4@c008bb80000000000000 00590d90     fireworks.obj
 0002:00002d94       __real@4@4004ac00000000000000 00590d94     fireworks.obj
 0002:00002d98       ??_C@_05BLPM@flies?$AA@    00590d98     Flies.obj
 0002:00002da0       __real@4@400dfffe000000000000 00590da0     Flies.obj
 0002:00002da4       ??_C@_0P@JDHM@this?9?$DOflyVerts?$AA@ 00590da4     Flies.obj
 0002:00002db4       ??_C@_0M@MOAJ@this?9?$DOflies?$AA@ 00590db4     Flies.obj
 0002:00002dc0       ??_C@_0BI@JODA@C?3?2Taz?2Source?2Flies?4cpp?$AA@ 00590dc0     Flies.obj
 0002:00002dd8       ??_C@_0P@FLJI@this?9?$DOnumFlies?$AA@ 00590dd8     Flies.obj
 0002:00002de8       __real@4@3ffccccccd0000000000 00590de8     Flies.obj
 0002:00002dec       __real@4@400adac0000000000000 00590dec     Flies.obj
 0002:00002df0       ??_C@_05GCOD@group?$AA@    00590df0     Flies.obj
 0002:00002df8       ??_C@_03BLHO@fly?$AA@      00590df8     flocking.obj
 0002:00002dfc       ??_C@_0BL@CKHJ@C?3?2Taz?2Source?2flocking?4cpp?$AA@ 00590dfc     flocking.obj
 0002:00002e18       ??_C@_0CK@CLPN@?$CK?$CK?$CK?5WARNING?5?$CK?$CK?$CK?5flocker?5creation@ 00590e18     flocking.obj
 0002:00002e44       ??_C@_0DD@HIMG@?$CK?$CK?$CK?5WARNING?5?$CK?$CK?$CK?5flockers?5ptr?5arr@ 00590e44     flocking.obj
 0002:00002e78       ??_C@_0EA@GOIA@?$CK?$CK?$CK?5WARNING?5?$CK?$CK?$CK?5flocking?5info?5st@ 00590e78     flocking.obj
 0002:00002eb8       ??_C@_04MLBN@flop?$AA@     00590eb8     flocking.obj
 0002:00002ec0       __real@4@3ffcb2b8c20000000000 00590ec0     flocking.obj
 0002:00002ec4       __real@4@400afa00000000000000 00590ec4     flocking.obj
 0002:00002ec8       ??_C@_0DO@LHLJ@?$CK?$CK?$CK?5WARNING?5?$CK?$CK?$CK?5collision?5list?5e@ 00590ec8     haar.obj
 0002:00002f08       ??_C@_0BH@HOHJ@C?3?2Taz?2Source?2haar?4cpp?$AA@ 00590f08     haar.obj
 0002:00002f20       ??_C@_04CDBN@haar?$AA@     00590f20     haar.obj
 0002:00002f28       __real@4@4003f000000000000000 00590f28     holysmoke.obj
 0002:00002f2c       __real@4@4003e000000000000000 00590f2c     holysmoke.obj
 0002:00002f30       __real@4@4004e800000000000000 00590f30     holysmoke.obj
 0002:00002f34       __real@4@4007bb80000000000000 00590f34     holysmoke.obj
 0002:00002f38       __real@4@40069600000000000000 00590f38     holysmoke.obj
 0002:00002f3c       ??_C@_0N@IMBI@laserred?4tga?$AA@ 00590f3c     laser.obj
 0002:00002f4c       ??_C@_0BI@IPN@C?3?2Taz?2Source?2laser?4cpp?$AA@ 00590f4c     laser.obj
 0002:00002f64       ??_C@_08JDGI@pathNode?$AA@ 00590f64     laser.obj
 0002:00002f70       ??_C@_05HPHD@laser?$AA@    00590f70     laser.obj
 0002:00002f78       ??_C@_0L@KOAK@startPoint?$AA@ 00590f78     lightning.obj
 0002:00002f84       ??_C@_0CN@FAGM@?$CK?$CK?$CK?5WARNING?5?$CK?$CK?$CK?5lightningInfo?5MA@ 00590f84     lightning.obj
 0002:00002fb4       ??_C@_0BM@OOBK@C?3?2Taz?2Source?2lightning?4cpp?$AA@ 00590fb4     lightning.obj
 0002:00002fd0       __real@4@3ffeab851f0000000000 00590fd0     lightning.obj
 0002:00002fd4       __real@4@3ffda8f5c30000000000 00590fd4     lightning.obj
 0002:00002fd8       ??_C@_0BJ@LFCB@C?3?2Taz?2Source?2lights?4cpp?$AA@ 00590fd8     lights.obj
 0002:00002ff4       ??_7TAG_MFXMARQUEE@@6B@    00590ff4     MonitorFX.obj
 0002:00002ffc       ??_7TAG_MONITOREFFECT@@6B@ 00590ffc     MonitorFX.obj
 0002:00003004       ??_7TAG_MFXMYSTIFY@@6B@    00591004     MonitorFX.obj
 0002:0000300c       ??_7TAG_MFXFLYINGWINDOWS@@6B@ 0059100c     MonitorFX.obj
 0002:00003014       ??_7TAG_MFXFLYINGOBJECTS@@6B@ 00591014     MonitorFX.obj
 0002:0000301c       ??_7TAG_MFXWATCH@@6B@      0059101c     MonitorFX.obj
 0002:00003024       ??_C@_0CD@CMCH@actorInstance?9?$DOmonitorInfo?9?$DOeffe@ 00591024     MonitorFX.obj
 0002:00003048       ??_C@_0BM@BHML@C?3?2Taz?2Source?2MonitorFX?4cpp?$AA@ 00591048     MonitorFX.obj
 0002:00003064       __real@4@3ffef0a3d70000000000 00591064     MonitorFX.obj
 0002:00003068       __real@4@3ffcf9db230000000000 00591068     MonitorFX.obj
 0002:0000306c       ??_C@_0EC@EHLG@?5?5?5?$CK?$CK?$CK?5WARNING?5?$CK?$CK?$CK?0?5could?5not?5cr@ 0059106c     MonitorFX.obj
 0002:000030b0       ??_C@_0BC@MLFI@extras?2wbflag?4bmp?$AA@ 005910b0     MonitorFX.obj
 0002:000030c4       ??_C@_01KBCC@v?$AA@        005910c4     MonitorFX.obj
 0002:000030c8       __real@4@3fffad91690000000000 005910c8     MonitorFX.obj
